ARM GAS  /tmp/ccH3uE4j.s 			page 1


   1              		.syntax unified
   2              		.cpu cortex-m3
   3              		.fpu softvfp
   4              		.eabi_attribute 20, 1
   5              		.eabi_attribute 21, 1
   6              		.eabi_attribute 23, 3
   7              		.eabi_attribute 24, 1
   8              		.eabi_attribute 25, 1
   9              		.eabi_attribute 26, 1
  10              		.eabi_attribute 30, 2
  11              		.eabi_attribute 34, 1
  12              		.eabi_attribute 18, 4
  13              		.thumb
  14              		.file	"userthread.cpp"
  15              		.section	.text._ZN5amiro10UserThreadD2Ev,"ax",%progbits
  16              		.align	2
  17              		.p2align 4,,15
  18              		.global	_ZN5amiro10UserThreadD2Ev
  19              		.thumb
  20              		.thumb_func
  21              		.type	_ZN5amiro10UserThreadD2Ev, %function
  22              	_ZN5amiro10UserThreadD2Ev:
  23              		@ args = 0, pretend = 0, frame = 0
  24              		@ frame_needed = 0, uses_anonymous_args = 0
  25              		@ link register save eliminated.
  26 0000 014B     		ldr	r3, .L2
  27 0002 0360     		str	r3, [r0]
  28 0004 7047     		bx	lr
  29              	.L3:
  30 0006 00BF     		.align	2
  31              	.L2:
  32 0008 08000000 		.word	.LANCHOR0+8
  33              		.size	_ZN5amiro10UserThreadD2Ev, .-_ZN5amiro10UserThreadD2Ev
  34              		.global	_ZN5amiro10UserThreadD1Ev
  35              		.thumb_set _ZN5amiro10UserThreadD1Ev,_ZN5amiro10UserThreadD2Ev
  36 000c AFF30080 		.section	.text._ZN5amiro10UserThreadD0Ev,"ax",%progbits
  37              		.align	2
  38              		.p2align 4,,15
  39              		.global	_ZN5amiro10UserThreadD0Ev
  40              		.thumb
  41              		.thumb_func
  42              		.type	_ZN5amiro10UserThreadD0Ev, %function
  43              	_ZN5amiro10UserThreadD0Ev:
  44              		@ args = 0, pretend = 0, frame = 0
  45              		@ frame_needed = 0, uses_anonymous_args = 0
  46 0000 10B5     		push	{r4, lr}
  47 0002 034B     		ldr	r3, .L5
  48 0004 0446     		mov	r4, r0
  49 0006 0360     		str	r3, [r0]
  50 0008 FFF7FEFF 		bl	_ZdlPv
  51 000c 2046     		mov	r0, r4
  52 000e 10BD     		pop	{r4, pc}
  53              	.L6:
  54              		.align	2
  55              	.L5:
  56 0010 08000000 		.word	.LANCHOR0+8
  57              		.size	_ZN5amiro10UserThreadD0Ev, .-_ZN5amiro10UserThreadD0Ev
ARM GAS  /tmp/ccH3uE4j.s 			page 2


  58 0014 AFF30080 		.section	.text._ZN10chibios_rt16BaseStaticThreadILi1024EE5startEm,"axG",%progbits,_ZN10chibios_rt1
  58      AFF30080 
  58      AFF30080 
  59              		.align	2
  60              		.p2align 4,,15
  61              		.weak	_ZN10chibios_rt16BaseStaticThreadILi1024EE5startEm
  62              		.thumb
  63              		.thumb_func
  64              		.type	_ZN10chibios_rt16BaseStaticThreadILi1024EE5startEm, %function
  65              	_ZN10chibios_rt16BaseStaticThreadILi1024EE5startEm:
  66              		@ args = 0, pretend = 0, frame = 0
  67              		@ frame_needed = 0, uses_anonymous_args = 0
  68 0000 30B5     		push	{r4, r5, lr}
  69 0002 0D46     		mov	r5, r1
  70 0004 83B0     		sub	sp, sp, #12
  71 0006 0446     		mov	r4, r0
  72 0008 0091     		str	r1, [sp]
  73 000a 05F10800 		add	r0, r5, #8
  74 000e 4FF49A61 		mov	r1, #1232
  75 0012 054B     		ldr	r3, .L8
  76 0014 FFF7FEFF 		bl	chThdCreateStatic
  77 0018 044A     		ldr	r2, .L8+4
  78 001a 0346     		mov	r3, r0
  79 001c 6860     		str	r0, [r5, #4]
  80 001e 2046     		mov	r0, r4
  81 0020 84E80C00 		stmia	r4, {r2, r3}
  82 0024 03B0     		add	sp, sp, #12
  83              		@ sp needed
  84 0026 30BD     		pop	{r4, r5, pc}
  85              	.L9:
  86              		.align	2
  87              	.L8:
  88 0028 00000000 		.word	_ZN10chibios_rt10_thd_startEPv
  89 002c 08000000 		.word	_ZTVN10chibios_rt15ThreadReferenceE+8
  90              		.size	_ZN10chibios_rt16BaseStaticThreadILi1024EE5startEm, .-_ZN10chibios_rt16BaseStaticThreadILi10
  91              		.section	.text._ZL8chprintfP20BaseSequentialStreamPKcz.constprop.1,"ax",%progbits
  92              		.align	2
  93              		.p2align 4,,15
  94              		.thumb
  95              		.thumb_func
  96              		.type	_ZL8chprintfP20BaseSequentialStreamPKcz.constprop.1, %function
  97              	_ZL8chprintfP20BaseSequentialStreamPKcz.constprop.1:
  98              		@ args = 4, pretend = 12, frame = 8
  99              		@ frame_needed = 0, uses_anonymous_args = 1
 100 0000 0EB4     		push	{r1, r2, r3}
 101 0002 00B5     		push	{lr}
 102 0004 82B0     		sub	sp, sp, #8
 103 0006 03AB     		add	r3, sp, #12
 104 0008 53F8041B 		ldr	r1, [r3], #4
 105 000c 0448     		ldr	r0, .L11
 106 000e 1A46     		mov	r2, r3
 107 0010 0193     		str	r3, [sp, #4]
 108 0012 FFF7FEFF 		bl	chvprintf
 109 0016 02B0     		add	sp, sp, #8
 110              		@ sp needed
 111 0018 5DF804EB 		ldr	lr, [sp], #4
 112 001c 03B0     		add	sp, sp, #12
ARM GAS  /tmp/ccH3uE4j.s 			page 3


 113 001e 7047     		bx	lr
 114              	.L12:
 115              		.align	2
 116              	.L11:
 117 0020 00000000 		.word	SD1
 118              		.size	_ZL8chprintfP20BaseSequentialStreamPKcz.constprop.1, .-_ZL8chprintfP20BaseSequentialStreamPK
 119              		.global	__aeabi_i2d
 120              		.global	__aeabi_d2iz
 121              		.global	__aeabi_i2f
 122              		.global	__aeabi_fdiv
 123              		.global	__aeabi_fmul
 124              		.global	__aeabi_f2iz
 125              		.global	__aeabi_dmul
 126 0024 AFF30080 		.section	.text.startup._ZN5amiro10UserThread4mainEv,"ax",%progbits
 126      AFF30080 
 126      AFF30080 
 127              		.align	2
 128              		.p2align 4,,15
 129              		.global	_ZN5amiro10UserThread4mainEv
 130              		.thumb
 131              		.thumb_func
 132              		.type	_ZN5amiro10UserThread4mainEv, %function
 133              	_ZN5amiro10UserThread4mainEv:
 134              		@ args = 0, pretend = 0, frame = 32
 135              		@ frame_needed = 0, uses_anonymous_args = 0
 136 0000 2DE9F04F 		push	{r4, r5, r6, r7, r8, r9, r10, fp, lr}
 137 0004 DFF8D081 		ldr	r8, .L33+24
 138 0008 0023     		movs	r3, #0
 139 000a 89B0     		sub	sp, sp, #36
 140 000c 88F80030 		strb	r3, [r8]
 141 0010 0493     		str	r3, [sp, #16]
 142 0012 0593     		str	r3, [sp, #20]
 143 0014 0693     		str	r3, [sp, #24]
 144 0016 0793     		str	r3, [sp, #28]
 145 0018 DFF8D8B1 		ldr	fp, .L33+52
 146 001c DFF8D8A1 		ldr	r10, .L33+56
 147 0020 06E0     		b	.L14
 148              	.L15:
 149 0022 98F80030 		ldrb	r3, [r8]	@ zero_extendqisi2
 150 0026 002B     		cmp	r3, #0
 151 0028 4AD1     		bne	.L30
 152              	.L21:
 153 002a 1420     		movs	r0, #20
 154 002c FFF7FEFF 		bl	_ZN10chibios_rt10BaseThread5sleepEm
 155              	.L14:
 156 0030 FFF7FEFF 		bl	_ZN10chibios_rt10BaseThread15shouldTerminateEv
 157 0034 0028     		cmp	r0, #0
 158 0036 40F0B980 		bne	.L31
 159 003a 6348     		ldr	r0, .L33+8
 160 003c 0221     		movs	r1, #2
 161 003e FFF7FEFF 		bl	_ZN5amiro9LIS331DLH20getAccelerationForceEh
 162 0042 10F5617F 		cmn	r0, #900
 163 0046 ABF80000 		strh	r0, [fp]	@ movhi
 164 004a EADA     		bge	.L15
 165 004c 40F6B830 		movw	r0, #3000
 166 0050 FFF7FEFF 		bl	_ZN10chibios_rt10BaseThread5sleepEm
 167 0054 5D4F     		ldr	r7, .L33+12
ARM GAS  /tmp/ccH3uE4j.s 			page 4


 168 0056 03AE     		add	r6, sp, #12
 169 0058 0DF11C09 		add	r9, sp, #28
 170              	.L16:
 171 005c 7468     		ldr	r4, [r6, #4]
 172 005e 4FF47A75 		mov	r5, #1000
 173              	.L19:
 174 0062 3846     		mov	r0, r7
 175 0064 FFF7FEFF 		bl	_ZN5amiro8VCNL402026getProximityScaledWoOffsetEv
 176 0068 013D     		subs	r5, r5, #1
 177 006a 0444     		add	r4, r4, r0
 178 006c 7460     		str	r4, [r6, #4]
 179 006e F8D1     		bne	.L19
 180 0070 8AFB0430 		smull	r3, r0, r10, r4
 181 0074 E417     		asrs	r4, r4, #31
 182 0076 C4EBA010 		rsb	r0, r4, r0, asr #6
 183 007a FFF7FEFF 		bl	__aeabi_i2d
 184 007e FFF7FEFF 		bl	round
 185 0082 FFF7FEFF 		bl	__aeabi_d2iz
 186 0086 5249     		ldr	r1, .L33+16
 187 0088 46F8040F 		str	r0, [r6, #4]!
 188 008c 0246     		mov	r2, r0
 189 008e 5148     		ldr	r0, .L33+20
 190 0090 FFF7FEFF 		bl	_ZL8chprintfP20BaseSequentialStreamPKcz.constprop.1
 191 0094 4E45     		cmp	r6, r9
 192 0096 07F50077 		add	r7, r7, #512
 193 009a DFD1     		bne	.L16
 194 009c 049B     		ldr	r3, [sp, #16]
 195 009e 98F80020 		ldrb	r2, [r8]	@ zero_extendqisi2
 196 00a2 0193     		str	r3, [sp, #4]
 197 00a4 059C     		ldr	r4, [sp, #20]
 198 00a6 4C4B     		ldr	r3, .L33+24
 199 00a8 002A     		cmp	r2, #0
 200 00aa 58D0     		beq	.L20
 201 00ac 2946     		mov	r1, r5
 202 00ae 2A46     		mov	r2, r5
 203 00b0 4A48     		ldr	r0, .L33+28
 204 00b2 1D70     		strb	r5, [r3]
 205 00b4 FFF7FEFF 		bl	_ZN5amiro12MotorControl12setTargetRPMEll
 206 00b8 98F80030 		ldrb	r3, [r8]	@ zero_extendqisi2
 207 00bc 002B     		cmp	r3, #0
 208 00be B4D0     		beq	.L21
 209              	.L30:
 210 00c0 4248     		ldr	r0, .L33+12
 211 00c2 FFF7FEFF 		bl	_ZN5amiro8VCNL402026getProximityScaledWoOffsetEv
 212 00c6 0746     		mov	r7, r0
 213 00c8 4548     		ldr	r0, .L33+32
 214 00ca FFF7FEFF 		bl	_ZN5amiro8VCNL402026getProximityScaledWoOffsetEv
 215 00ce 0546     		mov	r5, r0
 216 00d0 2046     		mov	r0, r4
 217 00d2 FFF7FEFF 		bl	__aeabi_i2f
 218 00d6 019B     		ldr	r3, [sp, #4]
 219 00d8 8146     		mov	r9, r0
 220 00da 581B     		subs	r0, r3, r5
 221 00dc 2044     		add	r0, r0, r4
 222 00de FFF7FEFF 		bl	__aeabi_i2f
 223 00e2 4946     		mov	r1, r9
 224 00e4 FFF7FEFF 		bl	__aeabi_fdiv
ARM GAS  /tmp/ccH3uE4j.s 			page 5


 225 00e8 3E49     		ldr	r1, .L33+36
 226 00ea FFF7FEFF 		bl	__aeabi_fmul
 227 00ee FFF7FEFF 		bl	__aeabi_f2iz
 228 00f2 0646     		mov	r6, r0
 229 00f4 3846     		mov	r0, r7
 230 00f6 FFF7FEFF 		bl	__aeabi_i2f
 231 00fa 4946     		mov	r1, r9
 232 00fc FFF7FEFF 		bl	__aeabi_fdiv
 233 0100 3849     		ldr	r1, .L33+36
 234 0102 FFF7FEFF 		bl	__aeabi_fmul
 235 0106 FFF7FEFF 		bl	__aeabi_f2iz
 236 010a 3A46     		mov	r2, r7
 237 010c 8146     		mov	r9, r0
 238 010e 2B46     		mov	r3, r5
 239 0110 3048     		ldr	r0, .L33+20
 240 0112 3549     		ldr	r1, .L33+40
 241 0114 FFF7FEFF 		bl	_ZL8chprintfP20BaseSequentialStreamPKcz.constprop.1
 242 0118 4E45     		cmp	r6, r9
 243 011a 4BD0     		beq	.L32
 244              	.L22:
 245 011c 322E     		cmp	r6, #50
 246 011e 15DD     		ble	.L23
 247 0120 3046     		mov	r0, r6
 248 0122 FFF7FEFF 		bl	__aeabi_i2d
 249 0126 26A3     		adr	r3, .L33
 250 0128 D3E90023 		ldrd	r2, [r3]
 251 012c FFF7FEFF 		bl	__aeabi_dmul
 252 0130 FFF7FEFF 		bl	__aeabi_d2iz
 253 0134 0646     		mov	r6, r0
 254 0136 4846     		mov	r0, r9
 255 0138 FFF7FEFF 		bl	__aeabi_i2d
 256 013c 20A3     		adr	r3, .L33
 257 013e D3E90023 		ldrd	r2, [r3]
 258 0142 FFF7FEFF 		bl	__aeabi_dmul
 259 0146 FFF7FEFF 		bl	__aeabi_d2iz
 260 014a 8146     		mov	r9, r0
 261              	.L23:
 262 014c 274A     		ldr	r2, .L33+44
 263 014e 2348     		ldr	r0, .L33+28
 264 0150 02FB06F1 		mul	r1, r2, r6
 265 0154 02FB09F2 		mul	r2, r2, r9
 266 0158 FFF7FEFF 		bl	_ZN5amiro12MotorControl12setTargetRPMEll
 267 015c 65E7     		b	.L21
 268              	.L20:
 269 015e 0122     		movs	r2, #1
 270 0160 03A8     		add	r0, sp, #12
 271 0162 0721     		movs	r1, #7
 272 0164 1A70     		strb	r2, [r3]
 273 0166 FFF7FEFF 		bl	_ZN5amiro5ColorC1ENS0_11GlobalColorE
 274 016a 03AA     		add	r2, sp, #12
 275 016c 2048     		ldr	r0, .L33+48
 276 016e 0321     		movs	r1, #3
 277 0170 FFF7FEFF 		bl	_ZN5amiro23ControllerAreaNetworkTx13setLightColorEiNS_5ColorE
 278 0174 03A8     		add	r0, sp, #12
 279 0176 0721     		movs	r1, #7
 280 0178 FFF7FEFF 		bl	_ZN5amiro5ColorC1ENS0_11GlobalColorE
 281 017c 03AA     		add	r2, sp, #12
ARM GAS  /tmp/ccH3uE4j.s 			page 6


 282 017e 1C48     		ldr	r0, .L33+48
 283 0180 0421     		movs	r1, #4
 284 0182 FFF7FEFF 		bl	_ZN5amiro23ControllerAreaNetworkTx13setLightColorEiNS_5ColorE
 285 0186 03A8     		add	r0, sp, #12
 286 0188 0721     		movs	r1, #7
 287 018a FFF7FEFF 		bl	_ZN5amiro5ColorC1ENS0_11GlobalColorE
 288 018e 03AA     		add	r2, sp, #12
 289 0190 1748     		ldr	r0, .L33+48
 290 0192 0221     		movs	r1, #2
 291 0194 FFF7FEFF 		bl	_ZN5amiro23ControllerAreaNetworkTx13setLightColorEiNS_5ColorE
 292 0198 03A8     		add	r0, sp, #12
 293 019a 0721     		movs	r1, #7
 294 019c FFF7FEFF 		bl	_ZN5amiro5ColorC1ENS0_11GlobalColorE
 295 01a0 03AA     		add	r2, sp, #12
 296 01a2 1348     		ldr	r0, .L33+48
 297 01a4 0521     		movs	r1, #5
 298 01a6 FFF7FEFF 		bl	_ZN5amiro23ControllerAreaNetworkTx13setLightColorEiNS_5ColorE
 299 01aa 3AE7     		b	.L15
 300              	.L31:
 301 01ac 0020     		movs	r0, #0
 302 01ae 09B0     		add	sp, sp, #36
 303              		@ sp needed
 304 01b0 BDE8F08F 		pop	{r4, r5, r6, r7, r8, r9, r10, fp, pc}
 305              	.L32:
 306 01b4 132E     		cmp	r6, #19
 307 01b6 B1DC     		bgt	.L22
 308 01b8 6FF03109 		mvn	r9, #49
 309 01bc B426     		movs	r6, #180
 310 01be C5E7     		b	.L23
 311              	.L34:
 312              		.align	3
 313              	.L33:
 314 01c0 CDCCCCCC 		.word	-858993459
 315 01c4 CCCCFC3F 		.word	1073532108
 316 01c8 380B0000 		.word	global+2872
 317 01cc E8000000 		.word	global+232
 318 01d0 00000000 		.word	.LC0
 319 01d4 00000000 		.word	SD1
 320 01d8 00000000 		.word	.LANCHOR1
 321 01dc 98110000 		.word	global+4504
 322 01e0 E8060000 		.word	global+1768
 323 01e4 00007042 		.word	1114636288
 324 01e8 08000000 		.word	.LC1
 325 01ec 40420F00 		.word	1000000
 326 01f0 401C0000 		.word	global+7232
 327 01f4 00000000 		.word	.LANCHOR2
 328 01f8 D34D6210 		.word	274877907
 329              		.size	_ZN5amiro10UserThread4mainEv, .-_ZN5amiro10UserThread4mainEv
 330 01fc AFF30080 		.section	.text._Z14discriminationi,"ax",%progbits
 331              		.align	2
 332              		.p2align 4,,15
 333              		.global	_Z14discriminationi
 334              		.thumb
 335              		.thumb_func
 336              		.type	_Z14discriminationi, %function
 337              	_Z14discriminationi:
 338              		@ args = 0, pretend = 0, frame = 0
ARM GAS  /tmp/ccH3uE4j.s 			page 7


 339              		@ frame_needed = 0, uses_anonymous_args = 0
 340              		@ link register save eliminated.
 341 0000 B0F57A5F 		cmp	r0, #16000
 342 0004 ACBF     		ite	ge
 343 0006 0220     		movge	r0, #2
 344 0008 0020     		movlt	r0, #0
 345 000a 7047     		bx	lr
 346              		.size	_Z14discriminationi, .-_Z14discriminationi
 347 000c AFF30080 		.section	.text._Z12copyRpmSpeedRA2_KiRA2_i,"ax",%progbits
 348              		.align	2
 349              		.p2align 4,,15
 350              		.global	_Z12copyRpmSpeedRA2_KiRA2_i
 351              		.thumb
 352              		.thumb_func
 353              		.type	_Z12copyRpmSpeedRA2_KiRA2_i, %function
 354              	_Z12copyRpmSpeedRA2_KiRA2_i:
 355              		@ args = 0, pretend = 0, frame = 0
 356              		@ frame_needed = 0, uses_anonymous_args = 0
 357              		@ link register save eliminated.
 358 0000 0368     		ldr	r3, [r0]
 359 0002 0B60     		str	r3, [r1]
 360 0004 4368     		ldr	r3, [r0, #4]
 361 0006 4B60     		str	r3, [r1, #4]
 362 0008 7047     		bx	lr
 363              		.size	_Z12copyRpmSpeedRA2_KiRA2_i, .-_Z12copyRpmSpeedRA2_KiRA2_i
 364 000a 00BFAFF3 		.section	.text._Z13fuzzyficationiRA3_f,"ax",%progbits
 364      0080
 365              		.align	2
 366              		.p2align 4,,15
 367              		.global	_Z13fuzzyficationiRA3_f
 368              		.thumb
 369              		.thumb_func
 370              		.type	_Z13fuzzyficationiRA3_f, %function
 371              	_Z13fuzzyficationiRA3_f:
 372              		@ args = 0, pretend = 0, frame = 0
 373              		@ frame_needed = 0, uses_anonymous_args = 0
 374 0000 B0F5805F 		cmp	r0, #4096
 375 0004 38B5     		push	{r3, r4, r5, lr}
 376 0006 0546     		mov	r5, r0
 377 0008 0C46     		mov	r4, r1
 378 000a 1CDB     		blt	.L48
 379 000c B0F5C04F 		cmp	r0, #24576
 380 0010 12DC     		bgt	.L49
 381 0012 B0F5605F 		cmp	r0, #14336
 382 0016 1DDA     		bge	.L43
 383 0018 B0F5C05F 		cmp	r0, #6144
 384 001c 30DD     		ble	.L44
 385 001e 0023     		movs	r3, #0
 386 0020 0B60     		str	r3, [r1]	@ float
 387              	.L45:
 388 0022 A5F58050 		sub	r0, r5, #4096
 389 0026 FFF7FEFF 		bl	__aeabi_i2f
 390 002a 1B49     		ldr	r1, .L50
 391 002c FFF7FEFF 		bl	__aeabi_fdiv
 392 0030 0023     		movs	r3, #0
 393 0032 6060     		str	r0, [r4, #4]	@ float
 394 0034 A360     		str	r3, [r4, #8]	@ float
ARM GAS  /tmp/ccH3uE4j.s 			page 8


 395 0036 38BD     		pop	{r3, r4, r5, pc}
 396              	.L49:
 397 0038 0023     		movs	r3, #0
 398 003a 4FF07E52 		mov	r2, #1065353216
 399 003e 0B60     		str	r3, [r1]	@ float
 400 0040 4B60     		str	r3, [r1, #4]	@ float
 401 0042 8A60     		str	r2, [r1, #8]	@ float
 402 0044 38BD     		pop	{r3, r4, r5, pc}
 403              	.L48:
 404 0046 0023     		movs	r3, #0
 405 0048 4FF07E52 		mov	r2, #1065353216
 406 004c 0A60     		str	r2, [r1]	@ float
 407 004e 4B60     		str	r3, [r1, #4]	@ float
 408 0050 8B60     		str	r3, [r1, #8]	@ float
 409 0052 38BD     		pop	{r3, r4, r5, pc}
 410              	.L43:
 411 0054 0023     		movs	r3, #0
 412 0056 B0F5C04F 		cmp	r0, #24576
 413 005a 0B60     		str	r3, [r1]	@ float
 414 005c 1AD0     		beq	.L46
 415 005e A0F5C040 		sub	r0, r0, #24576
 416 0062 FFF7FEFF 		bl	__aeabi_i2f
 417 0066 0D49     		ldr	r1, .L50+4
 418 0068 FFF7FEFF 		bl	__aeabi_fdiv
 419 006c 6060     		str	r0, [r4, #4]	@ float
 420              	.L47:
 421 006e A5F52050 		sub	r0, r5, #10240
 422 0072 FFF7FEFF 		bl	__aeabi_i2f
 423 0076 0A49     		ldr	r1, .L50+8
 424 0078 FFF7FEFF 		bl	__aeabi_fdiv
 425 007c A060     		str	r0, [r4, #8]	@ float
 426 007e 38BD     		pop	{r3, r4, r5, pc}
 427              	.L44:
 428 0080 A0F5C050 		sub	r0, r0, #6144
 429 0084 FFF7FEFF 		bl	__aeabi_i2f
 430 0088 4FF03A41 		mov	r1, #-1174405120
 431 008c FFF7FEFF 		bl	__aeabi_fmul
 432 0090 2060     		str	r0, [r4]	@ float
 433 0092 C6E7     		b	.L45
 434              	.L46:
 435 0094 4B60     		str	r3, [r1, #4]	@ float
 436 0096 EAE7     		b	.L47
 437              	.L51:
 438              		.align	2
 439              	.L50:
 440 0098 00002046 		.word	1176502272
 441 009c 000020C6 		.word	-970981376
 442 00a0 00006046 		.word	1180696576
 443              		.size	_Z13fuzzyficationiRA3_f, .-_Z13fuzzyficationiRA3_f
 444              		.global	__aeabi_fcmpgt
 445 00a4 AFF30080 		.section	.text._Z9getMemberRA3_f,"ax",%progbits
 445      AFF30080 
 445      AFF30080 
 446              		.align	2
 447              		.p2align 4,,15
 448              		.global	_Z9getMemberRA3_f
 449              		.thumb
ARM GAS  /tmp/ccH3uE4j.s 			page 9


 450              		.thumb_func
 451              		.type	_Z9getMemberRA3_f, %function
 452              	_Z9getMemberRA3_f:
 453              		@ args = 0, pretend = 0, frame = 0
 454              		@ frame_needed = 0, uses_anonymous_args = 0
 455 0000 70B5     		push	{r4, r5, r6, lr}
 456 0002 4568     		ldr	r5, [r0, #4]	@ float
 457 0004 0668     		ldr	r6, [r0]	@ float
 458 0006 0446     		mov	r4, r0
 459 0008 2946     		mov	r1, r5
 460 000a 3046     		mov	r0, r6
 461 000c FFF7FEFF 		bl	__aeabi_fcmpgt
 462 0010 40B1     		cbz	r0, .L59
 463 0012 3046     		mov	r0, r6
 464 0014 A168     		ldr	r1, [r4, #8]	@ float
 465 0016 FFF7FEFF 		bl	__aeabi_fcmpgt
 466 001a 0028     		cmp	r0, #0
 467 001c 14BF     		ite	ne
 468 001e 0020     		movne	r0, #0
 469 0020 0220     		moveq	r0, #2
 470 0022 70BD     		pop	{r4, r5, r6, pc}
 471              	.L59:
 472 0024 2846     		mov	r0, r5
 473 0026 A168     		ldr	r1, [r4, #8]	@ float
 474 0028 FFF7FEFF 		bl	__aeabi_fcmpgt
 475 002c 0028     		cmp	r0, #0
 476 002e 14BF     		ite	ne
 477 0030 0120     		movne	r0, #1
 478 0032 0220     		moveq	r0, #2
 479 0034 70BD     		pop	{r4, r5, r6, pc}
 480              		.size	_Z9getMemberRA3_f, .-_Z9getMemberRA3_f
 481 0036 00BFAFF3 		.section	.text._Z15defuzzyficationRA4_11colorMemberRA2_i,"ax",%progbits
 481      0080AFF3 
 481      0080
 482              		.align	2
 483              		.p2align 4,,15
 484              		.global	_Z15defuzzyficationRA4_11colorMemberRA2_i
 485              		.thumb
 486              		.thumb_func
 487              		.type	_Z15defuzzyficationRA4_11colorMemberRA2_i, %function
 488              	_Z15defuzzyficationRA4_11colorMemberRA2_i:
 489              		@ args = 0, pretend = 0, frame = 8
 490              		@ frame_needed = 0, uses_anonymous_args = 0
 491 0000 10B5     		push	{r4, lr}
 492 0002 C378     		ldrb	r3, [r0, #3]	@ zero_extendqisi2
 493 0004 8478     		ldrb	r4, [r0, #2]	@ zero_extendqisi2
 494 0006 82B0     		sub	sp, sp, #8
 495 0008 9C42     		cmp	r4, r3
 496 000a 0278     		ldrb	r2, [r0]	@ zero_extendqisi2
 497 000c 2AD0     		beq	.L104
 498              	.L62:
 499 000e 3BB9     		cbnz	r3, .L64
 500              	.L108:
 501 0010 002A     		cmp	r2, #0
 502 0012 53D0     		beq	.L105
 503 0014 012A     		cmp	r2, #1
 504 0016 69D0     		beq	.L106
ARM GAS  /tmp/ccH3uE4j.s 			page 10


 505 0018 022A     		cmp	r2, #2
 506 001a 3CD0     		beq	.L107
 507              	.L60:
 508 001c 02B0     		add	sp, sp, #8
 509              		@ sp needed
 510 001e 10BD     		pop	{r4, pc}
 511              	.L64:
 512 0020 4ABB     		cbnz	r2, .L66
 513 0022 012B     		cmp	r3, #1
 514 0024 4FD1     		bne	.L67
 515 0026 444C     		ldr	r4, .L112
 516 0028 2368     		ldr	r3, [r4]
 517 002a 012B     		cmp	r3, #1
 518 002c 74DD     		ble	.L68
 519 002e 6FF00902 		mvn	r2, #9
 520 0032 92FBF3F3 		sdiv	r3, r2, r3
 521 0036 4148     		ldr	r0, .L112+4
 522 0038 1933     		adds	r3, r3, #25
 523 003a 03EB4303 		add	r3, r3, r3, lsl #1
 524 003e 4B22     		movs	r2, #75
 525 0040 80E80C00 		stmia	r0, {r2, r3}
 526 0044 81E80C00 		stmia	r1, {r2, r3}
 527 0048 01A8     		add	r0, sp, #4
 528 004a 3F21     		movs	r1, #63
 529              	.L103:
 530 004c FFF7FEFF 		bl	_ZN5amiro5ColorC1ENS0_11GlobalColorE
 531 0050 01AA     		add	r2, sp, #4
 532 0052 3B48     		ldr	r0, .L112+8
 533 0054 0321     		movs	r1, #3
 534 0056 FFF7FEFF 		bl	_ZN5amiro23ControllerAreaNetworkTx13setLightColorEiNS_5ColorE
 535 005a 6368     		ldr	r3, [r4, #4]
 536 005c 0133     		adds	r3, r3, #1
 537 005e 6360     		str	r3, [r4, #4]
 538 0060 02B0     		add	sp, sp, #8
 539              		@ sp needed
 540 0062 10BD     		pop	{r4, pc}
 541              	.L104:
 542 0064 9442     		cmp	r4, r2
 543 0066 D2D1     		bne	.L62
 544 0068 4278     		ldrb	r2, [r0, #1]	@ zero_extendqisi2
 545 006a A242     		cmp	r2, r4
 546 006c 0FD0     		beq	.L74
 547 006e 2246     		mov	r2, r4
 548 0070 002B     		cmp	r3, #0
 549 0072 D5D1     		bne	.L64
 550 0074 CCE7     		b	.L108
 551              	.L66:
 552 0076 002C     		cmp	r4, #0
 553 0078 2FD0     		beq	.L109
 554 007a 4078     		ldrb	r0, [r0, #1]	@ zero_extendqisi2
 555 007c C8B1     		cbz	r0, .L76
 556 007e 012B     		cmp	r3, #1
 557 0080 11D0     		beq	.L110
 558 0082 012A     		cmp	r2, #1
 559 0084 15D0     		beq	.L76
 560 0086 012C     		cmp	r4, #1
 561 0088 52D0     		beq	.L111
ARM GAS  /tmp/ccH3uE4j.s 			page 11


 562 008a 0128     		cmp	r0, #1
 563 008c 11D0     		beq	.L76
 564              	.L74:
 565 008e 0023     		movs	r3, #0
 566 0090 0B60     		str	r3, [r1]
 567 0092 4B60     		str	r3, [r1, #4]
 568 0094 C2E7     		b	.L60
 569              	.L107:
 570 0096 284B     		ldr	r3, .L112
 571 0098 0A24     		movs	r4, #10
 572 009a 1920     		movs	r0, #25
 573 009c 0122     		movs	r2, #1
 574 009e 0C60     		str	r4, [r1]
 575 00a0 4860     		str	r0, [r1, #4]
 576 00a2 1A60     		str	r2, [r3]
 577 00a4 BAE7     		b	.L60
 578              	.L110:
 579 00a6 012A     		cmp	r2, #1
 580 00a8 1AD1     		bne	.L75
 581 00aa 012C     		cmp	r4, #1
 582 00ac 18D0     		beq	.L75
 583 00ae 0128     		cmp	r0, #1
 584 00b0 B4D1     		bne	.L60
 585              	.L76:
 586 00b2 244B     		ldr	r3, .L112+12
 587 00b4 0CCB     		ldmia	r3, {r2, r3}
 588 00b6 81E80C00 		stmia	r1, {r2, r3}
 589 00ba AFE7     		b	.L60
 590              	.L105:
 591 00bc 1A23     		movs	r3, #26
 592 00be 0B60     		str	r3, [r1]
 593 00c0 4B60     		str	r3, [r1, #4]
 594 00c2 02B0     		add	sp, sp, #8
 595              		@ sp needed
 596 00c4 10BD     		pop	{r4, pc}
 597              	.L67:
 598 00c6 022B     		cmp	r3, #2
 599 00c8 A8D1     		bne	.L60
 600 00ca 1F4B     		ldr	r3, .L112+16
 601 00cc 1A48     		ldr	r0, .L112
 602 00ce 0124     		movs	r4, #1
 603 00d0 0CCB     		ldmia	r3, {r2, r3}
 604 00d2 81E80C00 		stmia	r1, {r2, r3}
 605 00d6 4460     		str	r4, [r0, #4]
 606 00d8 A0E7     		b	.L60
 607              	.L109:
 608 00da 4378     		ldrb	r3, [r0, #1]	@ zero_extendqisi2
 609 00dc 002B     		cmp	r3, #0
 610 00de D6D0     		beq	.L74
 611              	.L75:
 612 00e0 6FF00902 		mvn	r2, #9
 613 00e4 0A23     		movs	r3, #10
 614 00e6 81E80C00 		stmia	r1, {r2, r3}
 615 00ea 97E7     		b	.L60
 616              	.L106:
 617 00ec 124C     		ldr	r4, .L112
 618 00ee 6368     		ldr	r3, [r4, #4]
ARM GAS  /tmp/ccH3uE4j.s 			page 12


 619 00f0 012B     		cmp	r3, #1
 620 00f2 18DD     		ble	.L71
 621 00f4 2368     		ldr	r3, [r4]
 622 00f6 6FF00902 		mvn	r2, #9
 623 00fa 92FBF3F2 		sdiv	r2, r2, r3
 624 00fe 1932     		adds	r2, r2, #25
 625 0100 0E48     		ldr	r0, .L112+4
 626 0102 02EB4202 		add	r2, r2, r2, lsl #1
 627 0106 4B23     		movs	r3, #75
 628 0108 80E80C00 		stmia	r0, {r2, r3}
 629 010c 81E80C00 		stmia	r1, {r2, r3}
 630              	.L72:
 631 0110 2368     		ldr	r3, [r4]
 632 0112 0133     		adds	r3, r3, #1
 633 0114 2360     		str	r3, [r4]
 634 0116 81E7     		b	.L60
 635              	.L68:
 636 0118 0C4B     		ldr	r3, .L112+20
 637 011a 01A8     		add	r0, sp, #4
 638 011c 0CCB     		ldmia	r3, {r2, r3}
 639 011e 81E80C00 		stmia	r1, {r2, r3}
 640 0122 0721     		movs	r1, #7
 641 0124 92E7     		b	.L103
 642              	.L71:
 643 0126 0F22     		movs	r2, #15
 644 0128 1923     		movs	r3, #25
 645 012a 81E80C00 		stmia	r1, {r2, r3}
 646 012e EFE7     		b	.L72
 647              	.L111:
 648 0130 0128     		cmp	r0, #1
 649 0132 D5D1     		bne	.L75
 650 0134 ABE7     		b	.L74
 651              	.L113:
 652 0136 00BF     		.align	2
 653              	.L112:
 654 0138 00000000 		.word	.LANCHOR3
 655 013c 00000000 		.word	.LANCHOR4
 656 0140 401C0000 		.word	global+7232
 657 0144 00000000 		.word	.LANCHOR7
 658 0148 00000000 		.word	.LANCHOR6
 659 014c 00000000 		.word	.LANCHOR5
 660              		.size	_Z15defuzzyficationRA4_11colorMemberRA2_i, .-_Z15defuzzyficationRA4_11colorMemberRA2_i
 661              		.section	.text._Z11memberToLed11colorMember,"ax",%progbits
 662              		.align	2
 663              		.p2align 4,,15
 664              		.global	_Z11memberToLed11colorMember
 665              		.thumb
 666              		.thumb_func
 667              		.type	_Z11memberToLed11colorMember, %function
 668              	_Z11memberToLed11colorMember:
 669              		@ args = 0, pretend = 0, frame = 0
 670              		@ frame_needed = 0, uses_anonymous_args = 0
 671 0000 0129     		cmp	r1, #1
 672 0002 10B5     		push	{r4, lr}
 673 0004 0446     		mov	r4, r0
 674 0006 11D0     		beq	.L116
 675 0008 0BD3     		bcc	.L117
ARM GAS  /tmp/ccH3uE4j.s 			page 13


 676 000a 0229     		cmp	r1, #2
 677 000c 04D0     		beq	.L118
 678 000e 8F21     		movs	r1, #143
 679 0010 FFF7FEFF 		bl	_ZN5amiro5ColorC1ENS0_11GlobalColorE
 680 0014 2046     		mov	r0, r4
 681 0016 10BD     		pop	{r4, pc}
 682              	.L118:
 683 0018 7721     		movs	r1, #119
 684 001a FFF7FEFF 		bl	_ZN5amiro5ColorC1ENS0_11GlobalColorE
 685 001e 2046     		mov	r0, r4
 686 0020 10BD     		pop	{r4, pc}
 687              	.L117:
 688 0022 3721     		movs	r1, #55
 689 0024 FFF7FEFF 		bl	_ZN5amiro5ColorC1ENS0_11GlobalColorE
 690 0028 2046     		mov	r0, r4
 691 002a 10BD     		pop	{r4, pc}
 692              	.L116:
 693 002c 9121     		movs	r1, #145
 694 002e FFF7FEFF 		bl	_ZN5amiro5ColorC1ENS0_11GlobalColorE
 695 0032 2046     		mov	r0, r4
 696 0034 10BD     		pop	{r4, pc}
 697              		.size	_Z11memberToLed11colorMember, .-_Z11memberToLed11colorMember
 698 0036 00BFAFF3 		.section	.text._Z13lineFollowingRA4_iRA2_i,"ax",%progbits
 698      0080AFF3 
 698      0080
 699              		.align	2
 700              		.p2align 4,,15
 701              		.global	_Z13lineFollowingRA4_iRA2_i
 702              		.thumb
 703              		.thumb_func
 704              		.type	_Z13lineFollowingRA4_iRA2_i, %function
 705              	_Z13lineFollowingRA4_iRA2_i:
 706              		@ args = 0, pretend = 0, frame = 56
 707              		@ frame_needed = 0, uses_anonymous_args = 0
 708 0000 F0B5     		push	{r4, r5, r6, r7, lr}
 709 0002 8FB0     		sub	sp, sp, #60
 710 0004 0446     		mov	r4, r0
 711 0006 0F46     		mov	r7, r1
 712 0008 8068     		ldr	r0, [r0, #8]
 713 000a 02A9     		add	r1, sp, #8
 714 000c FFF7FEFF 		bl	_Z13fuzzyficationiRA3_f
 715 0010 E068     		ldr	r0, [r4, #12]
 716 0012 05A9     		add	r1, sp, #20
 717 0014 FFF7FEFF 		bl	_Z13fuzzyficationiRA3_f
 718 0018 2068     		ldr	r0, [r4]
 719 001a 08A9     		add	r1, sp, #32
 720 001c FFF7FEFF 		bl	_Z13fuzzyficationiRA3_f
 721 0020 6068     		ldr	r0, [r4, #4]
 722 0022 0BA9     		add	r1, sp, #44
 723 0024 FFF7FEFF 		bl	_Z13fuzzyficationiRA3_f
 724 0028 029D     		ldr	r5, [sp, #8]	@ float
 725 002a 039C     		ldr	r4, [sp, #12]	@ float
 726 002c 2846     		mov	r0, r5
 727 002e 2146     		mov	r1, r4
 728 0030 FFF7FEFF 		bl	__aeabi_fcmpgt
 729 0034 0028     		cmp	r0, #0
 730 0036 6CD0     		beq	.L146
ARM GAS  /tmp/ccH3uE4j.s 			page 14


 731 0038 2846     		mov	r0, r5
 732 003a 0499     		ldr	r1, [sp, #16]	@ float
 733 003c FFF7FEFF 		bl	__aeabi_fcmpgt
 734 0040 0028     		cmp	r0, #0
 735 0042 14BF     		ite	ne
 736 0044 0024     		movne	r4, #0
 737 0046 0224     		moveq	r4, #2
 738              	.L124:
 739 0048 059E     		ldr	r6, [sp, #20]	@ float
 740 004a 069D     		ldr	r5, [sp, #24]	@ float
 741 004c 3046     		mov	r0, r6
 742 004e 2946     		mov	r1, r5
 743 0050 8DF80640 		strb	r4, [sp, #6]
 744 0054 FFF7FEFF 		bl	__aeabi_fcmpgt
 745 0058 0028     		cmp	r0, #0
 746 005a 75D0     		beq	.L147
 747 005c 3046     		mov	r0, r6
 748 005e 0799     		ldr	r1, [sp, #28]	@ float
 749 0060 FFF7FEFF 		bl	__aeabi_fcmpgt
 750 0064 0028     		cmp	r0, #0
 751 0066 14BF     		ite	ne
 752 0068 0023     		movne	r3, #0
 753 006a 0223     		moveq	r3, #2
 754              	.L127:
 755 006c 089E     		ldr	r6, [sp, #32]	@ float
 756 006e 099D     		ldr	r5, [sp, #36]	@ float
 757 0070 3046     		mov	r0, r6
 758 0072 2946     		mov	r1, r5
 759 0074 8DF80730 		strb	r3, [sp, #7]
 760 0078 FFF7FEFF 		bl	__aeabi_fcmpgt
 761 007c 0028     		cmp	r0, #0
 762 007e 5AD0     		beq	.L148
 763 0080 3046     		mov	r0, r6
 764 0082 0A99     		ldr	r1, [sp, #40]	@ float
 765 0084 FFF7FEFF 		bl	__aeabi_fcmpgt
 766 0088 0028     		cmp	r0, #0
 767 008a 14BF     		ite	ne
 768 008c 0023     		movne	r3, #0
 769 008e 0223     		moveq	r3, #2
 770              	.L130:
 771 0090 0B9E     		ldr	r6, [sp, #44]	@ float
 772 0092 0C9D     		ldr	r5, [sp, #48]	@ float
 773 0094 3046     		mov	r0, r6
 774 0096 2946     		mov	r1, r5
 775 0098 8DF80430 		strb	r3, [sp, #4]
 776 009c FFF7FEFF 		bl	__aeabi_fcmpgt
 777 00a0 0028     		cmp	r0, #0
 778 00a2 3FD0     		beq	.L149
 779 00a4 3046     		mov	r0, r6
 780 00a6 0D99     		ldr	r1, [sp, #52]	@ float
 781 00a8 FFF7FEFF 		bl	__aeabi_fcmpgt
 782 00ac 0028     		cmp	r0, #0
 783 00ae 14BF     		ite	ne
 784 00b0 0023     		movne	r3, #0
 785 00b2 0223     		moveq	r3, #2
 786              	.L133:
 787 00b4 2146     		mov	r1, r4
ARM GAS  /tmp/ccH3uE4j.s 			page 15


 788 00b6 6846     		mov	r0, sp
 789 00b8 8DF80530 		strb	r3, [sp, #5]
 790 00bc FFF7FEFF 		bl	_Z11memberToLed11colorMember
 791 00c0 6A46     		mov	r2, sp
 792 00c2 2648     		ldr	r0, .L150
 793 00c4 0621     		movs	r1, #6
 794 00c6 FFF7FEFF 		bl	_ZN5amiro23ControllerAreaNetworkTx13setLightColorEiNS_5ColorE
 795 00ca 6846     		mov	r0, sp
 796 00cc 9DF80710 		ldrb	r1, [sp, #7]	@ zero_extendqisi2
 797 00d0 FFF7FEFF 		bl	_Z11memberToLed11colorMember
 798 00d4 6A46     		mov	r2, sp
 799 00d6 2148     		ldr	r0, .L150
 800 00d8 0721     		movs	r1, #7
 801 00da FFF7FEFF 		bl	_ZN5amiro23ControllerAreaNetworkTx13setLightColorEiNS_5ColorE
 802 00de 6846     		mov	r0, sp
 803 00e0 9DF80410 		ldrb	r1, [sp, #4]	@ zero_extendqisi2
 804 00e4 FFF7FEFF 		bl	_Z11memberToLed11colorMember
 805 00e8 6A46     		mov	r2, sp
 806 00ea 1C48     		ldr	r0, .L150
 807 00ec 0021     		movs	r1, #0
 808 00ee FFF7FEFF 		bl	_ZN5amiro23ControllerAreaNetworkTx13setLightColorEiNS_5ColorE
 809 00f2 6846     		mov	r0, sp
 810 00f4 9DF80510 		ldrb	r1, [sp, #5]	@ zero_extendqisi2
 811 00f8 FFF7FEFF 		bl	_Z11memberToLed11colorMember
 812 00fc 6A46     		mov	r2, sp
 813 00fe 1748     		ldr	r0, .L150
 814 0100 0121     		movs	r1, #1
 815 0102 FFF7FEFF 		bl	_ZN5amiro23ControllerAreaNetworkTx13setLightColorEiNS_5ColorE
 816 0106 3946     		mov	r1, r7
 817 0108 01A8     		add	r0, sp, #4
 818 010a FFF7FEFF 		bl	_Z15defuzzyficationRA4_11colorMemberRA2_i
 819 010e 0FB0     		add	sp, sp, #60
 820              		@ sp needed
 821 0110 F0BD     		pop	{r4, r5, r6, r7, pc}
 822              	.L146:
 823 0112 2046     		mov	r0, r4
 824 0114 0499     		ldr	r1, [sp, #16]	@ float
 825 0116 FFF7FEFF 		bl	__aeabi_fcmpgt
 826 011a 0028     		cmp	r0, #0
 827 011c 14BF     		ite	ne
 828 011e 0124     		movne	r4, #1
 829 0120 0224     		moveq	r4, #2
 830 0122 91E7     		b	.L124
 831              	.L149:
 832 0124 2846     		mov	r0, r5
 833 0126 0D99     		ldr	r1, [sp, #52]	@ float
 834 0128 FFF7FEFF 		bl	__aeabi_fcmpgt
 835 012c 0028     		cmp	r0, #0
 836 012e 14BF     		ite	ne
 837 0130 0123     		movne	r3, #1
 838 0132 0223     		moveq	r3, #2
 839 0134 BEE7     		b	.L133
 840              	.L148:
 841 0136 2846     		mov	r0, r5
 842 0138 0A99     		ldr	r1, [sp, #40]	@ float
 843 013a FFF7FEFF 		bl	__aeabi_fcmpgt
 844 013e 0028     		cmp	r0, #0
ARM GAS  /tmp/ccH3uE4j.s 			page 16


 845 0140 14BF     		ite	ne
 846 0142 0123     		movne	r3, #1
 847 0144 0223     		moveq	r3, #2
 848 0146 A3E7     		b	.L130
 849              	.L147:
 850 0148 2846     		mov	r0, r5
 851 014a 0799     		ldr	r1, [sp, #28]	@ float
 852 014c FFF7FEFF 		bl	__aeabi_fcmpgt
 853 0150 0028     		cmp	r0, #0
 854 0152 14BF     		ite	ne
 855 0154 0123     		movne	r3, #1
 856 0156 0223     		moveq	r3, #2
 857 0158 88E7     		b	.L127
 858              	.L151:
 859 015a 00BF     		.align	2
 860              	.L150:
 861 015c 401C0000 		.word	global+7232
 862              		.size	_Z13lineFollowingRA4_iRA2_i, .-_Z13lineFollowingRA4_iRA2_i
 863              		.section	.text._Z11setRpmSpeedRA2_Ki,"ax",%progbits
 864              		.align	2
 865              		.p2align 4,,15
 866              		.global	_Z11setRpmSpeedRA2_Ki
 867              		.thumb
 868              		.thumb_func
 869              		.type	_Z11setRpmSpeedRA2_Ki, %function
 870              	_Z11setRpmSpeedRA2_Ki:
 871              		@ args = 0, pretend = 0, frame = 0
 872              		@ frame_needed = 0, uses_anonymous_args = 0
 873              		@ link register save eliminated.
 874 0000 044B     		ldr	r3, .L153
 875 0002 90E80600 		ldmia	r0, {r1, r2}
 876 0006 0448     		ldr	r0, .L153+4
 877 0008 03FB01F1 		mul	r1, r3, r1
 878 000c 03FB02F2 		mul	r2, r3, r2
 879 0010 FFF7FEBF 		b	_ZN5amiro12MotorControl12setTargetRPMEll
 880              	.L154:
 881              		.align	2
 882              	.L153:
 883 0014 40420F00 		.word	1000000
 884 0018 98110000 		.word	global+4504
 885              		.size	_Z11setRpmSpeedRA2_Ki, .-_Z11setRpmSpeedRA2_Ki
 886 001c AFF30080 		.section	.text._Z13getNextPolicyv,"ax",%progbits
 887              		.align	2
 888              		.p2align 4,,15
 889              		.global	_Z13getNextPolicyv
 890              		.thumb
 891              		.thumb_func
 892              		.type	_Z13getNextPolicyv, %function
 893              	_Z13getNextPolicyv:
 894              		@ args = 0, pretend = 0, frame = 0
 895              		@ frame_needed = 0, uses_anonymous_args = 0
 896              		@ link register save eliminated.
 897 0000 054B     		ldr	r3, .L158
 898 0002 0649     		ldr	r1, .L158+4
 899 0004 1A68     		ldr	r2, [r3]
 900 0006 0C2A     		cmp	r2, #12
 901 0008 D2BF     		itee	le
ARM GAS  /tmp/ccH3uE4j.s 			page 17


 902 000a 501C     		addle	r0, r2, #1
 903 000c 0420     		movgt	r0, #4
 904 000e 0322     		movgt	r2, #3
 905 0010 1860     		str	r0, [r3]
 906 0012 885C     		ldrb	r0, [r1, r2]	@ zero_extendqisi2
 907 0014 7047     		bx	lr
 908              	.L159:
 909 0016 00BF     		.align	2
 910              	.L158:
 911 0018 00000000 		.word	.LANCHOR8
 912 001c 00000000 		.word	.LANCHOR9
 913              		.size	_Z13getNextPolicyv, .-_Z13getNextPolicyv
 914              		.section	.text._ZN5amiro10UserThreadC2Ev,"ax",%progbits
 915              		.align	2
 916              		.p2align 4,,15
 917              		.global	_ZN5amiro10UserThreadC2Ev
 918              		.thumb
 919              		.thumb_func
 920              		.type	_ZN5amiro10UserThreadC2Ev, %function
 921              	_ZN5amiro10UserThreadC2Ev:
 922              		@ args = 0, pretend = 0, frame = 0
 923              		@ frame_needed = 0, uses_anonymous_args = 0
 924 0000 10B5     		push	{r4, lr}
 925 0002 0446     		mov	r4, r0
 926 0004 FFF7FEFF 		bl	_ZN10chibios_rt10BaseThreadC2Ev
 927 0008 014B     		ldr	r3, .L161
 928 000a 2046     		mov	r0, r4
 929 000c 2360     		str	r3, [r4]
 930 000e 10BD     		pop	{r4, pc}
 931              	.L162:
 932              		.align	2
 933              	.L161:
 934 0010 08000000 		.word	.LANCHOR0+8
 935              		.size	_ZN5amiro10UserThreadC2Ev, .-_ZN5amiro10UserThreadC2Ev
 936              		.global	_ZN5amiro10UserThreadC1Ev
 937              		.thumb_set _ZN5amiro10UserThreadC1Ev,_ZN5amiro10UserThreadC2Ev
 938 0014 AFF30080 		.section	.text.startup._GLOBAL__sub_I_policy,"ax",%progbits
 938      AFF30080 
 938      AFF30080 
 939              		.align	2
 940              		.p2align 4,,15
 941              		.thumb
 942              		.thumb_func
 943              		.type	_GLOBAL__sub_I_policy, %function
 944              	_GLOBAL__sub_I_policy:
 945              		@ args = 0, pretend = 0, frame = 0
 946              		@ frame_needed = 0, uses_anonymous_args = 0
 947              		@ link register save eliminated.
 948 0000 F0B4     		push	{r4, r5, r6, r7}
 949 0002 0A49     		ldr	r1, .L164
 950 0004 0A4D     		ldr	r5, .L164+4
 951 0006 0B4E     		ldr	r6, .L164+8
 952 0008 0B4C     		ldr	r4, .L164+12
 953 000a 0C4B     		ldr	r3, .L164+16
 954 000c 1920     		movs	r0, #25
 955 000e 0A22     		movs	r2, #10
 956 0010 6FF00907 		mvn	r7, #9
ARM GAS  /tmp/ccH3uE4j.s 			page 18


 957 0014 4FF00F0C 		mov	ip, #15
 958 0018 2E60     		str	r6, [r5]
 959 001a 6E60     		str	r6, [r5, #4]
 960 001c 84E80110 		stmia	r4, {r0, ip}
 961 0020 83E88400 		stmia	r3, {r2, r7}
 962 0024 F0BC     		pop	{r4, r5, r6, r7}
 963 0026 81E80500 		stmia	r1, {r0, r2}
 964 002a 7047     		bx	lr
 965              	.L165:
 966              		.align	2
 967              	.L164:
 968 002c 00000000 		.word	.LANCHOR6
 969 0030 00000000 		.word	.LANCHOR10
 970 0034 A0860100 		.word	100000
 971 0038 00000000 		.word	.LANCHOR5
 972 003c 00000000 		.word	.LANCHOR7
 973              		.size	_GLOBAL__sub_I_policy, .-_GLOBAL__sub_I_policy
 974              		.section	.init_array,"aw",%init_array
 975              		.align	2
 976 0000 00000000 		.word	_GLOBAL__sub_I_policy(target1)
 977              		.weak	_ZTVN10chibios_rt16BaseStaticThreadILi1024EEE
 978              		.section	.rodata._ZTVN10chibios_rt16BaseStaticThreadILi1024EEE,"aG",%progbits,_ZTVN10chibios_rt16B
 979              		.align	3
 980              		.type	_ZTVN10chibios_rt16BaseStaticThreadILi1024EEE, %object
 981              		.size	_ZTVN10chibios_rt16BaseStaticThreadILi1024EEE, 20
 982              	_ZTVN10chibios_rt16BaseStaticThreadILi1024EEE:
 983 0000 00000000 		.word	0
 984 0004 00000000 		.word	0
 985 0008 00000000 		.word	_ZN10chibios_rt15ThreadReference4stopEv
 986 000c 00000000 		.word	_ZN10chibios_rt10BaseThread4mainEv
 987 0010 00000000 		.word	_ZN10chibios_rt16BaseStaticThreadILi1024EE5startEm
 988              		.global	_ZTVN5amiro10UserThreadE
 989              		.global	vcnl4020Proximity
 990              		.global	vcnl4020AmbientLight
 991              		.global	turn
 992              		.global	lastTurn
 993              		.global	policyCounter
 994              		.global	running
 995              		.global	accel_z
 996              		.global	policy
 997 0014 00000000 		.section	.bss.policyCounter,"aw",%nobits
 998              		.align	2
 999              		.set	.LANCHOR8,. + 0
 1000              		.type	policyCounter, %object
 1001              		.size	policyCounter, 4
 1002              	policyCounter:
 1003 0000 00000000 		.space	4
 1004              		.section	.bss.vcnl4020AmbientLight,"aw",%nobits
 1005              		.align	2
 1006              		.type	vcnl4020AmbientLight, %object
 1007              		.size	vcnl4020AmbientLight, 16
 1008              	vcnl4020AmbientLight:
 1009 0000 00000000 		.space	16
 1009      00000000 
 1009      00000000 
 1009      00000000 
 1010              		.section	.bss._ZN5amiro9constants12DiWheelDriveL10wheelErrorE,"aw",%nobits
ARM GAS  /tmp/ccH3uE4j.s 			page 19


 1011              		.align	2
 1012              		.set	.LANCHOR10,. + 0
 1013              		.type	_ZN5amiro9constants12DiWheelDriveL10wheelErrorE, %object
 1014              		.size	_ZN5amiro9constants12DiWheelDriveL10wheelErrorE, 8
 1015              	_ZN5amiro9constants12DiWheelDriveL10wheelErrorE:
 1016 0000 00000000 		.space	8
 1016      00000000 
 1017              		.section	.bss._ZL12rpmHardRight,"aw",%nobits
 1018              		.align	2
 1019              		.set	.LANCHOR6,. + 0
 1020              		.type	_ZL12rpmHardRight, %object
 1021              		.size	_ZL12rpmHardRight, 8
 1022              	_ZL12rpmHardRight:
 1023 0000 00000000 		.space	8
 1023      00000000 
 1024              		.section	.bss.running,"aw",%nobits
 1025              		.set	.LANCHOR1,. + 0
 1026              		.type	running, %object
 1027              		.size	running, 1
 1028              	running:
 1029 0000 00       		.space	1
 1030              		.section	.bss.turn,"aw",%nobits
 1031              		.align	2
 1032              		.set	.LANCHOR4,. + 0
 1033              		.type	turn, %object
 1034              		.size	turn, 8
 1035              	turn:
 1036 0000 00000000 		.space	8
 1036      00000000 
 1037              		.section	.bss.lastTurn,"aw",%nobits
 1038              		.align	2
 1039              		.set	.LANCHOR3,. + 0
 1040              		.type	lastTurn, %object
 1041              		.size	lastTurn, 8
 1042              	lastTurn:
 1043 0000 00000000 		.space	8
 1043      00000000 
 1044              		.section	.rodata.str1.4,"aMS",%progbits,1
 1045              		.align	2
 1046              	.LC0:
 1047 0000 25303464 		.ascii	"%04d\012\000"
 1047      0A00
 1048 0006 0000     		.space	2
 1049              	.LC1:
 1050 0008 25303464 		.ascii	"%04d   %04d \012\000"
 1050      20202025 
 1050      30346420 
 1050      0A00
 1051 0016 0000     		.section	.bss.vcnl4020Proximity,"aw",%nobits
 1052              		.align	2
 1053              		.type	vcnl4020Proximity, %object
 1054              		.size	vcnl4020Proximity, 16
 1055              	vcnl4020Proximity:
 1056 0000 00000000 		.space	16
 1056      00000000 
 1056      00000000 
 1056      00000000 
ARM GAS  /tmp/ccH3uE4j.s 			page 20


 1057              		.section	.bss._ZL12rpmSoftRight,"aw",%nobits
 1058              		.align	2
 1059              		.set	.LANCHOR5,. + 0
 1060              		.type	_ZL12rpmSoftRight, %object
 1061              		.size	_ZL12rpmSoftRight, 8
 1062              	_ZL12rpmSoftRight:
 1063 0000 00000000 		.space	8
 1063      00000000 
 1064              		.section	.bss.accel_z,"aw",%nobits
 1065              		.align	1
 1066              		.set	.LANCHOR2,. + 0
 1067              		.type	accel_z, %object
 1068              		.size	accel_z, 2
 1069              	accel_z:
 1070 0000 0000     		.space	2
 1071              		.section	.rodata._ZTVN5amiro10UserThreadE,"a",%progbits
 1072              		.align	3
 1073              		.set	.LANCHOR0,. + 0
 1074              		.type	_ZTVN5amiro10UserThreadE, %object
 1075              		.size	_ZTVN5amiro10UserThreadE, 28
 1076              	_ZTVN5amiro10UserThreadE:
 1077 0000 00000000 		.word	0
 1078 0004 00000000 		.word	0
 1079 0008 00000000 		.word	_ZN10chibios_rt15ThreadReference4stopEv
 1080 000c 00000000 		.word	_ZN5amiro10UserThread4mainEv
 1081 0010 00000000 		.word	_ZN10chibios_rt16BaseStaticThreadILi1024EE5startEm
 1082 0014 00000000 		.word	_ZN5amiro10UserThreadD1Ev
 1083 0018 00000000 		.word	_ZN5amiro10UserThreadD0Ev
 1084 001c 00000000 		.section	.data.policy,"aw",%progbits
 1085              		.align	2
 1086              		.set	.LANCHOR9,. + 0
 1087              		.type	policy, %object
 1088              		.size	policy, 13
 1089              	policy:
 1090 0000 02       		.byte	2
 1091 0001 01       		.byte	1
 1092 0002 01       		.byte	1
 1093 0003 02       		.byte	2
 1094 0004 01       		.byte	1
 1095 0005 02       		.byte	2
 1096 0006 01       		.byte	1
 1097 0007 02       		.byte	2
 1098 0008 02       		.byte	2
 1099 0009 01       		.byte	1
 1100 000a 02       		.byte	2
 1101 000b 01       		.byte	1
 1102 000c 02       		.byte	2
 1103 000d 000000   		.section	.bss._ZL12rpmTurnRight,"aw",%nobits
 1104              		.align	2
 1105              		.set	.LANCHOR7,. + 0
 1106              		.type	_ZL12rpmTurnRight, %object
 1107              		.size	_ZL12rpmTurnRight, 8
 1108              	_ZL12rpmTurnRight:
 1109 0000 00000000 		.space	8
 1109      00000000 
 1110              		.ident	"GCC: (GNU Tools for ARM Embedded Processors) 4.8.3 20140228 (release) [ARM/embedded-4_8-br
ARM GAS  /tmp/ccH3uE4j.s 			page 21

