ARM GAS  /tmp/ccy98b8d.s 			page 1


   1              		.syntax unified
   2              		.cpu cortex-m3
   3              		.fpu softvfp
   4              		.eabi_attribute 20, 1
   5              		.eabi_attribute 21, 1
   6              		.eabi_attribute 23, 3
   7              		.eabi_attribute 24, 1
   8              		.eabi_attribute 25, 1
   9              		.eabi_attribute 26, 1
  10              		.eabi_attribute 30, 2
  11              		.eabi_attribute 34, 1
  12              		.eabi_attribute 18, 4
  13              		.thumb
  14              		.file	"nvic.c"
  15              		.section	.text.nvicEnableVector,"ax",%progbits
  16              		.align	2
  17              		.p2align 4,,15
  18              		.global	nvicEnableVector
  19              		.thumb
  20              		.thumb_func
  21              		.type	nvicEnableVector, %function
  22              	nvicEnableVector:
  23              		@ args = 0, pretend = 0, frame = 0
  24              		@ frame_needed = 0, uses_anonymous_args = 0
  25              		@ link register save eliminated.
  26 0000 00F00303 		and	r3, r0, #3
  27 0004 30B4     		push	{r4, r5}
  28 0006 DB00     		lsls	r3, r3, #3
  29 0008 FF24     		movs	r4, #255
  30 000a 9C40     		lsls	r4, r4, r3
  31 000c 9940     		lsls	r1, r1, r3
  32 000e 0122     		movs	r2, #1
  33 0010 00F01F03 		and	r3, r0, #31
  34 0014 9A40     		lsls	r2, r2, r3
  35 0016 20F00303 		bic	r3, r0, #3
  36 001a 03F16043 		add	r3, r3, #-536870912
  37 001e 03F56143 		add	r3, r3, #57600
  38 0022 D3F80053 		ldr	r5, [r3, #768]
  39 0026 4009     		lsrs	r0, r0, #5
  40 0028 8000     		lsls	r0, r0, #2
  41 002a 25EA0404 		bic	r4, r5, r4
  42 002e 00F16040 		add	r0, r0, #-536870912
  43 0032 0C43     		orrs	r4, r4, r1
  44 0034 00F56140 		add	r0, r0, #57600
  45 0038 C3F80043 		str	r4, [r3, #768]
  46 003c C0F88021 		str	r2, [r0, #384]
  47 0040 30BC     		pop	{r4, r5}
  48 0042 0260     		str	r2, [r0]
  49 0044 7047     		bx	lr
  50              		.size	nvicEnableVector, .-nvicEnableVector
  51 0046 00BFAFF3 		.section	.text.nvicDisableVector,"ax",%progbits
  51      0080AFF3 
  51      0080
  52              		.align	2
  53              		.p2align 4,,15
  54              		.global	nvicDisableVector
  55              		.thumb
ARM GAS  /tmp/ccy98b8d.s 			page 2


  56              		.thumb_func
  57              		.type	nvicDisableVector, %function
  58              	nvicDisableVector:
  59              		@ args = 0, pretend = 0, frame = 0
  60              		@ frame_needed = 0, uses_anonymous_args = 0
  61              		@ link register save eliminated.
  62 0000 10B4     		push	{r4}
  63 0002 00F01F03 		and	r3, r0, #31
  64 0006 0124     		movs	r4, #1
  65 0008 9C40     		lsls	r4, r4, r3
  66 000a 00F00303 		and	r3, r0, #3
  67 000e FF22     		movs	r2, #255
  68 0010 DB00     		lsls	r3, r3, #3
  69 0012 02FA03F3 		lsl	r3, r2, r3
  70 0016 4109     		lsrs	r1, r0, #5
  71 0018 094A     		ldr	r2, .L3
  72 001a 20F00300 		bic	r0, r0, #3
  73 001e 2031     		adds	r1, r1, #32
  74 0020 00F16040 		add	r0, r0, #-536870912
  75 0024 42F82140 		str	r4, [r2, r1, lsl #2]
  76 0028 00F56140 		add	r0, r0, #57600
  77 002c D0F80023 		ldr	r2, [r0, #768]
  78 0030 5DF8044B 		ldr	r4, [sp], #4
  79 0034 22EA0303 		bic	r3, r2, r3
  80 0038 C0F80033 		str	r3, [r0, #768]
  81 003c 7047     		bx	lr
  82              	.L4:
  83 003e 00BF     		.align	2
  84              	.L3:
  85 0040 00E100E0 		.word	-536813312
  86              		.size	nvicDisableVector, .-nvicDisableVector
  87 0044 AFF30080 		.section	.text.nvicSetSystemHandlerPriority,"ax",%progbits
  87      AFF30080 
  87      AFF30080 
  88              		.align	2
  89              		.p2align 4,,15
  90              		.global	nvicSetSystemHandlerPriority
  91              		.thumb
  92              		.thumb_func
  93              		.type	nvicSetSystemHandlerPriority, %function
  94              	nvicSetSystemHandlerPriority:
  95              		@ args = 0, pretend = 0, frame = 0
  96              		@ frame_needed = 0, uses_anonymous_args = 0
  97              		@ link register save eliminated.
  98 0000 00F00303 		and	r3, r0, #3
  99 0004 DB00     		lsls	r3, r3, #3
 100 0006 FF22     		movs	r2, #255
 101 0008 9A40     		lsls	r2, r2, r3
 102 000a 9940     		lsls	r1, r1, r3
 103 000c 20F00300 		bic	r0, r0, #3
 104 0010 00F16040 		add	r0, r0, #-536870912
 105 0014 00F56D40 		add	r0, r0, #60672
 106 0018 8369     		ldr	r3, [r0, #24]
 107 001a 23EA0203 		bic	r3, r3, r2
 108 001e 0B43     		orrs	r3, r3, r1
 109 0020 8361     		str	r3, [r0, #24]
 110 0022 7047     		bx	lr
ARM GAS  /tmp/ccy98b8d.s 			page 3


 111              		.size	nvicSetSystemHandlerPriority, .-nvicSetSystemHandlerPriority
 112 0024 AFF30080 		.ident	"GCC: (GNU Tools for ARM Embedded Processors) 4.8.3 20140228 (release) [ARM/embedded-4_8-br
 112      AFF30080 
 112      AFF30080 
ARM GAS  /tmp/ccy98b8d.s 			page 4

