ARM GAS  /tmp/ccLpOfjJ.s 			page 1


   1              		.syntax unified
   2              		.cpu cortex-m4
   3              		.eabi_attribute 27, 3
   4              		.eabi_attribute 28, 1
   5              		.fpu fpv4-sp-d16
   6              		.eabi_attribute 20, 1
   7              		.eabi_attribute 21, 1
   8              		.eabi_attribute 23, 3
   9              		.eabi_attribute 24, 1
  10              		.eabi_attribute 25, 1
  11              		.eabi_attribute 26, 1
  12              		.eabi_attribute 30, 2
  13              		.eabi_attribute 34, 1
  14              		.eabi_attribute 18, 4
  15              		.thumb
  16              		.file	"main.cpp"
  17              		.section	.text._ZN5amiro9I2CDriverD2Ev,"axG",%progbits,_ZN5amiro9I2CDriverD5Ev,comdat
  18              		.align	2
  19              		.p2align 4,,15
  20              		.weak	_ZN5amiro9I2CDriverD2Ev
  21              		.thumb
  22              		.thumb_func
  23              		.type	_ZN5amiro9I2CDriverD2Ev, %function
  24              	_ZN5amiro9I2CDriverD2Ev:
  25              		@ args = 0, pretend = 0, frame = 0
  26              		@ frame_needed = 0, uses_anonymous_args = 0
  27              		@ link register save eliminated.
  28 0000 014B     		ldr	r3, .L2
  29 0002 0360     		str	r3, [r0]
  30 0004 7047     		bx	lr
  31              	.L3:
  32 0006 00BF     		.align	2
  33              	.L2:
  34 0008 08000000 		.word	_ZTVN5amiro9I2CDriverE+8
  35              		.size	_ZN5amiro9I2CDriverD2Ev, .-_ZN5amiro9I2CDriverD2Ev
  36              		.weak	_ZN5amiro9I2CDriverD1Ev
  37              		.thumb_set _ZN5amiro9I2CDriverD1Ev,_ZN5amiro9I2CDriverD2Ev
  38 000c AFF30080 		.section	.text._ZN5amiro7PCA9544ILb1EE8deselectEv,"axG",%progbits,_ZN5amiro7PCA9544ILb1EE8deselect
  39              		.align	2
  40              		.p2align 4,,15
  41              		.weak	_ZN5amiro7PCA9544ILb1EE8deselectEv
  42              		.thumb
  43              		.thumb_func
  44              		.type	_ZN5amiro7PCA9544ILb1EE8deselectEv, %function
  45              	_ZN5amiro7PCA9544ILb1EE8deselectEv:
  46              		@ args = 0, pretend = 0, frame = 0
  47              		@ frame_needed = 0, uses_anonymous_args = 0
  48              		@ link register save eliminated.
  49 0000 0020     		movs	r0, #0
  50 0002 7047     		bx	lr
  51              		.size	_ZN5amiro7PCA9544ILb1EE8deselectEv, .-_ZN5amiro7PCA9544ILb1EE8deselectEv
  52 0004 AFF30080 		.section	.text._ZN5amiro11BaseLTC4412D2Ev,"axG",%progbits,_ZN5amiro11BaseLTC4412D5Ev,comdat
  52      AFF30080 
  52      AFF30080 
  53              		.align	2
  54              		.p2align 4,,15
  55              		.weak	_ZN5amiro11BaseLTC4412D2Ev
ARM GAS  /tmp/ccLpOfjJ.s 			page 2


  56              		.thumb
  57              		.thumb_func
  58              		.type	_ZN5amiro11BaseLTC4412D2Ev, %function
  59              	_ZN5amiro11BaseLTC4412D2Ev:
  60              		@ args = 0, pretend = 0, frame = 0
  61              		@ frame_needed = 0, uses_anonymous_args = 0
  62              		@ link register save eliminated.
  63 0000 014B     		ldr	r3, .L6
  64 0002 0360     		str	r3, [r0]
  65 0004 7047     		bx	lr
  66              	.L7:
  67 0006 00BF     		.align	2
  68              	.L6:
  69 0008 08000000 		.word	_ZTVN5amiro11BaseLTC4412E+8
  70              		.size	_ZN5amiro11BaseLTC4412D2Ev, .-_ZN5amiro11BaseLTC4412D2Ev
  71              		.weak	_ZN5amiro11BaseLTC4412D1Ev
  72              		.thumb_set _ZN5amiro11BaseLTC4412D1Ev,_ZN5amiro11BaseLTC4412D2Ev
  73 000c AFF30080 		.section	.text._ZN5amiro12BaseBQ24103AD2Ev,"axG",%progbits,_ZN5amiro12BaseBQ24103AD5Ev,comdat
  74              		.align	2
  75              		.p2align 4,,15
  76              		.weak	_ZN5amiro12BaseBQ24103AD2Ev
  77              		.thumb
  78              		.thumb_func
  79              		.type	_ZN5amiro12BaseBQ24103AD2Ev, %function
  80              	_ZN5amiro12BaseBQ24103AD2Ev:
  81              		@ args = 0, pretend = 0, frame = 0
  82              		@ frame_needed = 0, uses_anonymous_args = 0
  83              		@ link register save eliminated.
  84 0000 014B     		ldr	r3, .L9
  85 0002 0360     		str	r3, [r0]
  86 0004 7047     		bx	lr
  87              	.L10:
  88 0006 00BF     		.align	2
  89              	.L9:
  90 0008 08000000 		.word	_ZTVN5amiro12BaseBQ24103AE+8
  91              		.size	_ZN5amiro12BaseBQ24103AD2Ev, .-_ZN5amiro12BaseBQ24103AD2Ev
  92              		.weak	_ZN5amiro12BaseBQ24103AD1Ev
  93              		.thumb_set _ZN5amiro12BaseBQ24103AD1Ev,_ZN5amiro12BaseBQ24103AD2Ev
  94 000c AFF30080 		.section	.text._Z18shutdownTimeoutISRPv,"ax",%progbits
  95              		.align	2
  96              		.p2align 4,,15
  97              		.global	_Z18shutdownTimeoutISRPv
  98              		.thumb
  99              		.thumb_func
 100              		.type	_Z18shutdownTimeoutISRPv, %function
 101              	_Z18shutdownTimeoutISRPv:
 102              		@ args = 0, pretend = 0, frame = 0
 103              		@ frame_needed = 0, uses_anonymous_args = 0
 104              		@ link register save eliminated.
 105 0000 7047     		bx	lr
 106              		.size	_Z18shutdownTimeoutISRPv, .-_Z18shutdownTimeoutISRPv
 107 0002 00BFAFF3 		.section	.text._ZN5amiro7LTC4412ILj1073874944ELh8EED2Ev,"axG",%progbits,_ZN5amiro7LTC4412ILj107387
 107      0080AFF3 
 107      0080AFF3 
 107      0080
 108              		.align	2
 109              		.p2align 4,,15
ARM GAS  /tmp/ccLpOfjJ.s 			page 3


 110              		.weak	_ZN5amiro7LTC4412ILj1073874944ELh8EED2Ev
 111              		.thumb
 112              		.thumb_func
 113              		.type	_ZN5amiro7LTC4412ILj1073874944ELh8EED2Ev, %function
 114              	_ZN5amiro7LTC4412ILj1073874944ELh8EED2Ev:
 115              		@ args = 0, pretend = 0, frame = 0
 116              		@ frame_needed = 0, uses_anonymous_args = 0
 117              		@ link register save eliminated.
 118 0000 014B     		ldr	r3, .L13
 119 0002 0360     		str	r3, [r0]
 120 0004 7047     		bx	lr
 121              	.L14:
 122 0006 00BF     		.align	2
 123              	.L13:
 124 0008 08000000 		.word	_ZTVN5amiro11BaseLTC4412E+8
 125              		.size	_ZN5amiro7LTC4412ILj1073874944ELh8EED2Ev, .-_ZN5amiro7LTC4412ILj1073874944ELh8EED2Ev
 126              		.weak	_ZN5amiro7LTC4412ILj1073874944ELh8EED1Ev
 127              		.thumb_set _ZN5amiro7LTC4412ILj1073874944ELh8EED1Ev,_ZN5amiro7LTC4412ILj1073874944ELh8EED2Ev
 128 000c AFF30080 		.section	.text._ZN5amiro8BQ24103AILj1073874944ELm3ELj1073874944ELm0EED2Ev,"axG",%progbits,_ZN5amir
 129              		.align	2
 130              		.p2align 4,,15
 131              		.weak	_ZN5amiro8BQ24103AILj1073874944ELm3ELj1073874944ELm0EED2Ev
 132              		.thumb
 133              		.thumb_func
 134              		.type	_ZN5amiro8BQ24103AILj1073874944ELm3ELj1073874944ELm0EED2Ev, %function
 135              	_ZN5amiro8BQ24103AILj1073874944ELm3ELj1073874944ELm0EED2Ev:
 136              		@ args = 0, pretend = 0, frame = 0
 137              		@ frame_needed = 0, uses_anonymous_args = 0
 138              		@ link register save eliminated.
 139 0000 014B     		ldr	r3, .L16
 140 0002 0360     		str	r3, [r0]
 141 0004 7047     		bx	lr
 142              	.L17:
 143 0006 00BF     		.align	2
 144              	.L16:
 145 0008 08000000 		.word	_ZTVN5amiro12BaseBQ24103AE+8
 146              		.size	_ZN5amiro8BQ24103AILj1073874944ELm3ELj1073874944ELm0EED2Ev, .-_ZN5amiro8BQ24103AILj107387494
 147              		.weak	_ZN5amiro8BQ24103AILj1073874944ELm3ELj1073874944ELm0EED1Ev
 148              		.thumb_set _ZN5amiro8BQ24103AILj1073874944ELm3ELj1073874944ELm0EED1Ev,_ZN5amiro8BQ24103AILj1073874
 149 000c AFF30080 		.section	.text._ZN5amiro8BQ24103AILj1073875968ELm2ELj1073873920ELm4EED2Ev,"axG",%progbits,_ZN5amir
 150              		.align	2
 151              		.p2align 4,,15
 152              		.weak	_ZN5amiro8BQ24103AILj1073875968ELm2ELj1073873920ELm4EED2Ev
 153              		.thumb
 154              		.thumb_func
 155              		.type	_ZN5amiro8BQ24103AILj1073875968ELm2ELj1073873920ELm4EED2Ev, %function
 156              	_ZN5amiro8BQ24103AILj1073875968ELm2ELj1073873920ELm4EED2Ev:
 157              		@ args = 0, pretend = 0, frame = 0
 158              		@ frame_needed = 0, uses_anonymous_args = 0
 159              		@ link register save eliminated.
 160 0000 014B     		ldr	r3, .L19
 161 0002 0360     		str	r3, [r0]
 162 0004 7047     		bx	lr
 163              	.L20:
 164 0006 00BF     		.align	2
 165              	.L19:
 166 0008 08000000 		.word	_ZTVN5amiro12BaseBQ24103AE+8
ARM GAS  /tmp/ccLpOfjJ.s 			page 4


 167              		.size	_ZN5amiro8BQ24103AILj1073875968ELm2ELj1073873920ELm4EED2Ev, .-_ZN5amiro8BQ24103AILj107387596
 168              		.weak	_ZN5amiro8BQ24103AILj1073875968ELm2ELj1073873920ELm4EED1Ev
 169              		.thumb_set _ZN5amiro8BQ24103AILj1073875968ELm2ELj1073873920ELm4EED1Ev,_ZN5amiro8BQ24103AILj1073875
 170 000c AFF30080 		.section	.text._ZNK5amiro7LTC4412ILj1073874944ELh8EE11isPluggedInEv,"axG",%progbits,_ZNK5amiro7LTC
 171              		.align	2
 172              		.p2align 4,,15
 173              		.weak	_ZNK5amiro7LTC4412ILj1073874944ELh8EE11isPluggedInEv
 174              		.thumb
 175              		.thumb_func
 176              		.type	_ZNK5amiro7LTC4412ILj1073874944ELh8EE11isPluggedInEv, %function
 177              	_ZNK5amiro7LTC4412ILj1073874944ELh8EE11isPluggedInEv:
 178              		@ args = 0, pretend = 0, frame = 0
 179              		@ frame_needed = 0, uses_anonymous_args = 0
 180              		@ link register save eliminated.
 181 0000 024B     		ldr	r3, .L22
 182 0002 1869     		ldr	r0, [r3, #16]
 183 0004 C0F30020 		ubfx	r0, r0, #8, #1
 184 0008 7047     		bx	lr
 185              	.L23:
 186 000a 00BF     		.align	2
 187              	.L22:
 188 000c 00080240 		.word	1073874944
 189              		.size	_ZNK5amiro7LTC4412ILj1073874944ELh8EE11isPluggedInEv, .-_ZNK5amiro7LTC4412ILj1073874944ELh8E
 190              		.section	.text._ZNK5amiro8BQ24103AILj1073875968ELm2ELj1073873920ELm4EE9isEnabledEv,"axG",%progbits
 191              		.align	2
 192              		.p2align 4,,15
 193              		.weak	_ZNK5amiro8BQ24103AILj1073875968ELm2ELj1073873920ELm4EE9isEnabledEv
 194              		.thumb
 195              		.thumb_func
 196              		.type	_ZNK5amiro8BQ24103AILj1073875968ELm2ELj1073873920ELm4EE9isEnabledEv, %function
 197              	_ZNK5amiro8BQ24103AILj1073875968ELm2ELj1073873920ELm4EE9isEnabledEv:
 198              		@ args = 0, pretend = 0, frame = 0
 199              		@ frame_needed = 0, uses_anonymous_args = 0
 200              		@ link register save eliminated.
 201 0000 0079     		ldrb	r0, [r0, #4]	@ zero_extendqisi2
 202 0002 7047     		bx	lr
 203              		.size	_ZNK5amiro8BQ24103AILj1073875968ELm2ELj1073873920ELm4EE9isEnabledEv, .-_ZNK5amiro8BQ24103AIL
 204 0004 AFF30080 		.section	.text._ZNK5amiro8BQ24103AILj1073875968ELm2ELj1073873920ELm4EE10isChargingEv,"axG",%progbi
 204      AFF30080 
 204      AFF30080 
 205              		.align	2
 206              		.p2align 4,,15
 207              		.weak	_ZNK5amiro8BQ24103AILj1073875968ELm2ELj1073873920ELm4EE10isChargingEv
 208              		.thumb
 209              		.thumb_func
 210              		.type	_ZNK5amiro8BQ24103AILj1073875968ELm2ELj1073873920ELm4EE10isChargingEv, %function
 211              	_ZNK5amiro8BQ24103AILj1073875968ELm2ELj1073873920ELm4EE10isChargingEv:
 212              		@ args = 0, pretend = 0, frame = 0
 213              		@ frame_needed = 0, uses_anonymous_args = 0
 214              		@ link register save eliminated.
 215 0000 034B     		ldr	r3, .L26
 216 0002 1869     		ldr	r0, [r3, #16]
 217 0004 80F01000 		eor	r0, r0, #16
 218 0008 C0F30010 		ubfx	r0, r0, #4, #1
 219 000c 7047     		bx	lr
 220              	.L27:
 221 000e 00BF     		.align	2
ARM GAS  /tmp/ccLpOfjJ.s 			page 5


 222              	.L26:
 223 0010 00040240 		.word	1073873920
 224              		.size	_ZNK5amiro8BQ24103AILj1073875968ELm2ELj1073873920ELm4EE10isChargingEv, .-_ZNK5amiro8BQ24103A
 225 0014 AFF30080 		.section	.text._ZNK5amiro8BQ24103AILj1073874944ELm3ELj1073874944ELm0EE9isEnabledEv,"axG",%progbits
 225      AFF30080 
 225      AFF30080 
 226              		.align	2
 227              		.p2align 4,,15
 228              		.weak	_ZNK5amiro8BQ24103AILj1073874944ELm3ELj1073874944ELm0EE9isEnabledEv
 229              		.thumb
 230              		.thumb_func
 231              		.type	_ZNK5amiro8BQ24103AILj1073874944ELm3ELj1073874944ELm0EE9isEnabledEv, %function
 232              	_ZNK5amiro8BQ24103AILj1073874944ELm3ELj1073874944ELm0EE9isEnabledEv:
 233              		@ args = 0, pretend = 0, frame = 0
 234              		@ frame_needed = 0, uses_anonymous_args = 0
 235              		@ link register save eliminated.
 236 0000 0079     		ldrb	r0, [r0, #4]	@ zero_extendqisi2
 237 0002 7047     		bx	lr
 238              		.size	_ZNK5amiro8BQ24103AILj1073874944ELm3ELj1073874944ELm0EE9isEnabledEv, .-_ZNK5amiro8BQ24103AIL
 239 0004 AFF30080 		.section	.text._ZNK5amiro8BQ24103AILj1073874944ELm3ELj1073874944ELm0EE10isChargingEv,"axG",%progbi
 239      AFF30080 
 239      AFF30080 
 240              		.align	2
 241              		.p2align 4,,15
 242              		.weak	_ZNK5amiro8BQ24103AILj1073874944ELm3ELj1073874944ELm0EE10isChargingEv
 243              		.thumb
 244              		.thumb_func
 245              		.type	_ZNK5amiro8BQ24103AILj1073874944ELm3ELj1073874944ELm0EE10isChargingEv, %function
 246              	_ZNK5amiro8BQ24103AILj1073874944ELm3ELj1073874944ELm0EE10isChargingEv:
 247              		@ args = 0, pretend = 0, frame = 0
 248              		@ frame_needed = 0, uses_anonymous_args = 0
 249              		@ link register save eliminated.
 250 0000 034B     		ldr	r3, .L30
 251 0002 1869     		ldr	r0, [r3, #16]
 252 0004 00F00100 		and	r0, r0, #1
 253 0008 80F00100 		eor	r0, r0, #1
 254 000c 7047     		bx	lr
 255              	.L31:
 256 000e 00BF     		.align	2
 257              	.L30:
 258 0010 00080240 		.word	1073874944
 259              		.size	_ZNK5amiro8BQ24103AILj1073874944ELm3ELj1073874944ELm0EE10isChargingEv, .-_ZNK5amiro8BQ24103A
 260 0014 AFF30080 		.section	.text._ZN5amiro9I2CDriverD0Ev,"axG",%progbits,_ZN5amiro9I2CDriverD0Ev,comdat
 260      AFF30080 
 260      AFF30080 
 261              		.align	2
 262              		.p2align 4,,15
 263              		.weak	_ZN5amiro9I2CDriverD0Ev
 264              		.thumb
 265              		.thumb_func
 266              		.type	_ZN5amiro9I2CDriverD0Ev, %function
 267              	_ZN5amiro9I2CDriverD0Ev:
 268              		@ args = 0, pretend = 0, frame = 0
 269              		@ frame_needed = 0, uses_anonymous_args = 0
 270 0000 10B5     		push	{r4, lr}
 271 0002 034B     		ldr	r3, .L33
 272 0004 0360     		str	r3, [r0]
ARM GAS  /tmp/ccLpOfjJ.s 			page 6


 273 0006 0446     		mov	r4, r0
 274 0008 FFF7FEFF 		bl	_ZdlPv
 275 000c 2046     		mov	r0, r4
 276 000e 10BD     		pop	{r4, pc}
 277              	.L34:
 278              		.align	2
 279              	.L33:
 280 0010 08000000 		.word	_ZTVN5amiro9I2CDriverE+8
 281              		.size	_ZN5amiro9I2CDriverD0Ev, .-_ZN5amiro9I2CDriverD0Ev
 282 0014 AFF30080 		.section	.text._ZN5amiro11BaseLTC4412D0Ev,"axG",%progbits,_ZN5amiro11BaseLTC4412D0Ev,comdat
 282      AFF30080 
 282      AFF30080 
 283              		.align	2
 284              		.p2align 4,,15
 285              		.weak	_ZN5amiro11BaseLTC4412D0Ev
 286              		.thumb
 287              		.thumb_func
 288              		.type	_ZN5amiro11BaseLTC4412D0Ev, %function
 289              	_ZN5amiro11BaseLTC4412D0Ev:
 290              		@ args = 0, pretend = 0, frame = 0
 291              		@ frame_needed = 0, uses_anonymous_args = 0
 292 0000 10B5     		push	{r4, lr}
 293 0002 034B     		ldr	r3, .L36
 294 0004 0360     		str	r3, [r0]
 295 0006 0446     		mov	r4, r0
 296 0008 FFF7FEFF 		bl	_ZdlPv
 297 000c 2046     		mov	r0, r4
 298 000e 10BD     		pop	{r4, pc}
 299              	.L37:
 300              		.align	2
 301              	.L36:
 302 0010 08000000 		.word	_ZTVN5amiro11BaseLTC4412E+8
 303              		.size	_ZN5amiro11BaseLTC4412D0Ev, .-_ZN5amiro11BaseLTC4412D0Ev
 304 0014 AFF30080 		.section	.text._ZN5amiro12BaseBQ24103AD0Ev,"axG",%progbits,_ZN5amiro12BaseBQ24103AD0Ev,comdat
 304      AFF30080 
 304      AFF30080 
 305              		.align	2
 306              		.p2align 4,,15
 307              		.weak	_ZN5amiro12BaseBQ24103AD0Ev
 308              		.thumb
 309              		.thumb_func
 310              		.type	_ZN5amiro12BaseBQ24103AD0Ev, %function
 311              	_ZN5amiro12BaseBQ24103AD0Ev:
 312              		@ args = 0, pretend = 0, frame = 0
 313              		@ frame_needed = 0, uses_anonymous_args = 0
 314 0000 10B5     		push	{r4, lr}
 315 0002 034B     		ldr	r3, .L39
 316 0004 0360     		str	r3, [r0]
 317 0006 0446     		mov	r4, r0
 318 0008 FFF7FEFF 		bl	_ZdlPv
 319 000c 2046     		mov	r0, r4
 320 000e 10BD     		pop	{r4, pc}
 321              	.L40:
 322              		.align	2
 323              	.L39:
 324 0010 08000000 		.word	_ZTVN5amiro12BaseBQ24103AE+8
 325              		.size	_ZN5amiro12BaseBQ24103AD0Ev, .-_ZN5amiro12BaseBQ24103AD0Ev
ARM GAS  /tmp/ccLpOfjJ.s 			page 7


 326 0014 AFF30080 		.section	.text._ZN5amiro7LTC4412ILj1073874944ELh8EED0Ev,"axG",%progbits,_ZN5amiro7LTC4412ILj107387
 326      AFF30080 
 326      AFF30080 
 327              		.align	2
 328              		.p2align 4,,15
 329              		.weak	_ZN5amiro7LTC4412ILj1073874944ELh8EED0Ev
 330              		.thumb
 331              		.thumb_func
 332              		.type	_ZN5amiro7LTC4412ILj1073874944ELh8EED0Ev, %function
 333              	_ZN5amiro7LTC4412ILj1073874944ELh8EED0Ev:
 334              		@ args = 0, pretend = 0, frame = 0
 335              		@ frame_needed = 0, uses_anonymous_args = 0
 336 0000 10B5     		push	{r4, lr}
 337 0002 034B     		ldr	r3, .L42
 338 0004 0360     		str	r3, [r0]
 339 0006 0446     		mov	r4, r0
 340 0008 FFF7FEFF 		bl	_ZdlPv
 341 000c 2046     		mov	r0, r4
 342 000e 10BD     		pop	{r4, pc}
 343              	.L43:
 344              		.align	2
 345              	.L42:
 346 0010 08000000 		.word	_ZTVN5amiro11BaseLTC4412E+8
 347              		.size	_ZN5amiro7LTC4412ILj1073874944ELh8EED0Ev, .-_ZN5amiro7LTC4412ILj1073874944ELh8EED0Ev
 348 0014 AFF30080 		.section	.text._ZN5amiro8BQ24103AILj1073874944ELm3ELj1073874944ELm0EED0Ev,"axG",%progbits,_ZN5amir
 348      AFF30080 
 348      AFF30080 
 349              		.align	2
 350              		.p2align 4,,15
 351              		.weak	_ZN5amiro8BQ24103AILj1073874944ELm3ELj1073874944ELm0EED0Ev
 352              		.thumb
 353              		.thumb_func
 354              		.type	_ZN5amiro8BQ24103AILj1073874944ELm3ELj1073874944ELm0EED0Ev, %function
 355              	_ZN5amiro8BQ24103AILj1073874944ELm3ELj1073874944ELm0EED0Ev:
 356              		@ args = 0, pretend = 0, frame = 0
 357              		@ frame_needed = 0, uses_anonymous_args = 0
 358 0000 10B5     		push	{r4, lr}
 359 0002 034B     		ldr	r3, .L45
 360 0004 0360     		str	r3, [r0]
 361 0006 0446     		mov	r4, r0
 362 0008 FFF7FEFF 		bl	_ZdlPv
 363 000c 2046     		mov	r0, r4
 364 000e 10BD     		pop	{r4, pc}
 365              	.L46:
 366              		.align	2
 367              	.L45:
 368 0010 08000000 		.word	_ZTVN5amiro12BaseBQ24103AE+8
 369              		.size	_ZN5amiro8BQ24103AILj1073874944ELm3ELj1073874944ELm0EED0Ev, .-_ZN5amiro8BQ24103AILj107387494
 370 0014 AFF30080 		.section	.text._ZN5amiro8BQ24103AILj1073875968ELm2ELj1073873920ELm4EED0Ev,"axG",%progbits,_ZN5amir
 370      AFF30080 
 370      AFF30080 
 371              		.align	2
 372              		.p2align 4,,15
 373              		.weak	_ZN5amiro8BQ24103AILj1073875968ELm2ELj1073873920ELm4EED0Ev
 374              		.thumb
 375              		.thumb_func
 376              		.type	_ZN5amiro8BQ24103AILj1073875968ELm2ELj1073873920ELm4EED0Ev, %function
ARM GAS  /tmp/ccLpOfjJ.s 			page 8


 377              	_ZN5amiro8BQ24103AILj1073875968ELm2ELj1073873920ELm4EED0Ev:
 378              		@ args = 0, pretend = 0, frame = 0
 379              		@ frame_needed = 0, uses_anonymous_args = 0
 380 0000 10B5     		push	{r4, lr}
 381 0002 034B     		ldr	r3, .L48
 382 0004 0360     		str	r3, [r0]
 383 0006 0446     		mov	r4, r0
 384 0008 FFF7FEFF 		bl	_ZdlPv
 385 000c 2046     		mov	r0, r4
 386 000e 10BD     		pop	{r4, pc}
 387              	.L49:
 388              		.align	2
 389              	.L48:
 390 0010 08000000 		.word	_ZTVN5amiro12BaseBQ24103AE+8
 391              		.size	_ZN5amiro8BQ24103AILj1073875968ELm2ELj1073873920ELm4EED0Ev, .-_ZN5amiro8BQ24103AILj107387596
 392 0014 AFF30080 		.section	.text._ZN5amiro8BQ24103AILj1073874944ELm3ELj1073874944ELm0EE6enableEb,"axG",%progbits,_ZN
 392      AFF30080 
 392      AFF30080 
 393              		.align	2
 394              		.p2align 4,,15
 395              		.weak	_ZN5amiro8BQ24103AILj1073874944ELm3ELj1073874944ELm0EE6enableEb
 396              		.thumb
 397              		.thumb_func
 398              		.type	_ZN5amiro8BQ24103AILj1073874944ELm3ELj1073874944ELm0EE6enableEb, %function
 399              	_ZN5amiro8BQ24103AILj1073874944ELm3ELj1073874944ELm0EE6enableEb:
 400              		@ args = 0, pretend = 0, frame = 0
 401              		@ frame_needed = 0, uses_anonymous_args = 0
 402 0000 38B5     		push	{r3, r4, r5, lr}
 403 0002 0546     		mov	r5, r0
 404 0004 0C46     		mov	r4, r1
 405 0006 2023     		movs	r3, #32
 406              	@ 45 "../../include/amiro/power/bq24103a.hpp" 1
 407 0008 83F31188 		msr     BASEPRI, r3
 408              	@ 0 "" 2
 409              		.thumb
 410 000c FFF7FEFF 		bl	dbg_check_lock
 411 0010 002C     		cmp	r4, #0
 412 0012 064B     		ldr	r3, .L53
 413 0014 14BF     		ite	ne
 414 0016 4FF40022 		movne	r2, #524288
 415 001a 0822     		moveq	r2, #8
 416 001c 9A61     		str	r2, [r3, #24]
 417 001e 2C71     		strb	r4, [r5, #4]
 418 0020 FFF7FEFF 		bl	dbg_check_unlock
 419 0024 0023     		movs	r3, #0
 420              	@ 48 "../../include/amiro/power/bq24103a.hpp" 1
 421 0026 83F31188 		msr     BASEPRI, r3
 422              	@ 0 "" 2
 423              		.thumb
 424 002a 38BD     		pop	{r3, r4, r5, pc}
 425              	.L54:
 426              		.align	2
 427              	.L53:
 428 002c 00080240 		.word	1073874944
 429              		.size	_ZN5amiro8BQ24103AILj1073874944ELm3ELj1073874944ELm0EE6enableEb, .-_ZN5amiro8BQ24103AILj1073
 430              		.section	.text._ZN5amiro8BQ24103AILj1073875968ELm2ELj1073873920ELm4EE6enableEb,"axG",%progbits,_ZN
 431              		.align	2
ARM GAS  /tmp/ccLpOfjJ.s 			page 9


 432              		.p2align 4,,15
 433              		.weak	_ZN5amiro8BQ24103AILj1073875968ELm2ELj1073873920ELm4EE6enableEb
 434              		.thumb
 435              		.thumb_func
 436              		.type	_ZN5amiro8BQ24103AILj1073875968ELm2ELj1073873920ELm4EE6enableEb, %function
 437              	_ZN5amiro8BQ24103AILj1073875968ELm2ELj1073873920ELm4EE6enableEb:
 438              		@ args = 0, pretend = 0, frame = 0
 439              		@ frame_needed = 0, uses_anonymous_args = 0
 440 0000 38B5     		push	{r3, r4, r5, lr}
 441 0002 0546     		mov	r5, r0
 442 0004 0C46     		mov	r4, r1
 443 0006 2023     		movs	r3, #32
 444              	@ 45 "../../include/amiro/power/bq24103a.hpp" 1
 445 0008 83F31188 		msr     BASEPRI, r3
 446              	@ 0 "" 2
 447              		.thumb
 448 000c FFF7FEFF 		bl	dbg_check_lock
 449 0010 002C     		cmp	r4, #0
 450 0012 064B     		ldr	r3, .L58
 451 0014 14BF     		ite	ne
 452 0016 4FF48022 		movne	r2, #262144
 453 001a 0422     		moveq	r2, #4
 454 001c 9A61     		str	r2, [r3, #24]
 455 001e 2C71     		strb	r4, [r5, #4]
 456 0020 FFF7FEFF 		bl	dbg_check_unlock
 457 0024 0023     		movs	r3, #0
 458              	@ 48 "../../include/amiro/power/bq24103a.hpp" 1
 459 0026 83F31188 		msr     BASEPRI, r3
 460              	@ 0 "" 2
 461              		.thumb
 462 002a 38BD     		pop	{r3, r4, r5, pc}
 463              	.L59:
 464              		.align	2
 465              	.L58:
 466 002c 000C0240 		.word	1073875968
 467              		.size	_ZN5amiro8BQ24103AILj1073875968ELm2ELj1073873920ELm4EE6enableEb, .-_ZN5amiro8BQ24103AILj1073
 468              		.section	.text._ZL8chprintfP20BaseSequentialStreamPKcz,"ax",%progbits
 469              		.align	2
 470              		.p2align 4,,15
 471              		.thumb
 472              		.thumb_func
 473              		.type	_ZL8chprintfP20BaseSequentialStreamPKcz, %function
 474              	_ZL8chprintfP20BaseSequentialStreamPKcz:
 475              		@ args = 4, pretend = 12, frame = 8
 476              		@ frame_needed = 0, uses_anonymous_args = 1
 477 0000 0EB4     		push	{r1, r2, r3}
 478 0002 00B5     		push	{lr}
 479 0004 82B0     		sub	sp, sp, #8
 480 0006 03AA     		add	r2, sp, #12
 481 0008 52F8041B 		ldr	r1, [r2], #4
 482 000c 0192     		str	r2, [sp, #4]
 483 000e FFF7FEFF 		bl	chvprintf
 484 0012 02B0     		add	sp, sp, #8
 485              		@ sp needed
 486 0014 5DF804EB 		ldr	lr, [sp], #4
 487 0018 03B0     		add	sp, sp, #12
 488 001a 7047     		bx	lr
ARM GAS  /tmp/ccLpOfjJ.s 			page 10


 489              		.size	_ZL8chprintfP20BaseSequentialStreamPKcz, .-_ZL8chprintfP20BaseSequentialStreamPKcz
 490 001c AFF30080 		.section	.text._Z20shellRequestShutdownP20BaseSequentialStreamiPPc,"ax",%progbits
 491              		.align	2
 492              		.p2align 4,,15
 493              		.global	_Z20shellRequestShutdownP20BaseSequentialStreamiPPc
 494              		.thumb
 495              		.thumb_func
 496              		.type	_Z20shellRequestShutdownP20BaseSequentialStreamiPPc, %function
 497              	_Z20shellRequestShutdownP20BaseSequentialStreamiPPc:
 498              		@ args = 0, pretend = 0, frame = 0
 499              		@ frame_needed = 0, uses_anonymous_args = 0
 500 0000 70B5     		push	{r4, r5, r6, lr}
 501 0002 0D46     		mov	r5, r1
 502 0004 5049     		ldr	r1, .L89
 503 0006 1646     		mov	r6, r2
 504 0008 0446     		mov	r4, r0
 505 000a FFF7FEFF 		bl	_ZL8chprintfP20BaseSequentialStreamPKcz
 506 000e 002D     		cmp	r5, #0
 507 0010 3DD0     		beq	.L62
 508 0012 3568     		ldr	r5, [r6]
 509 0014 4D49     		ldr	r1, .L89+4
 510 0016 2846     		mov	r0, r5
 511 0018 FFF7FEFF 		bl	strcmp
 512 001c 0028     		cmp	r0, #0
 513 001e 36D0     		beq	.L62
 514 0020 2846     		mov	r0, r5
 515 0022 4B49     		ldr	r1, .L89+8
 516 0024 FFF7FEFF 		bl	strcmp
 517 0028 0028     		cmp	r0, #0
 518 002a 6AD0     		beq	.L64
 519 002c 2846     		mov	r0, r5
 520 002e 4949     		ldr	r1, .L89+12
 521 0030 FFF7FEFF 		bl	strcmp
 522 0034 0028     		cmp	r0, #0
 523 0036 64D0     		beq	.L64
 524 0038 2846     		mov	r0, r5
 525 003a 4749     		ldr	r1, .L89+16
 526 003c FFF7FEFF 		bl	strcmp
 527 0040 0028     		cmp	r0, #0
 528 0042 67D0     		beq	.L66
 529 0044 2846     		mov	r0, r5
 530 0046 4549     		ldr	r1, .L89+20
 531 0048 FFF7FEFF 		bl	strcmp
 532 004c 0028     		cmp	r0, #0
 533 004e 61D0     		beq	.L66
 534 0050 2846     		mov	r0, r5
 535 0052 4349     		ldr	r1, .L89+24
 536 0054 FFF7FEFF 		bl	strcmp
 537 0058 0028     		cmp	r0, #0
 538 005a 64D0     		beq	.L68
 539 005c 2846     		mov	r0, r5
 540 005e 4149     		ldr	r1, .L89+28
 541 0060 FFF7FEFF 		bl	strcmp
 542 0064 0028     		cmp	r0, #0
 543 0066 5ED0     		beq	.L68
 544 0068 2846     		mov	r0, r5
 545 006a 3F49     		ldr	r1, .L89+32
ARM GAS  /tmp/ccLpOfjJ.s 			page 11


 546 006c FFF7FEFF 		bl	strcmp
 547 0070 28B1     		cbz	r0, .L70
 548 0072 2846     		mov	r0, r5
 549 0074 3D49     		ldr	r1, .L89+36
 550 0076 FFF7FEFF 		bl	strcmp
 551 007a 0028     		cmp	r0, #0
 552 007c 5CD1     		bne	.L71
 553              	.L70:
 554 007e 2046     		mov	r0, r4
 555 0080 3B49     		ldr	r1, .L89+40
 556 0082 FFF7FEFF 		bl	_ZL8chprintfP20BaseSequentialStreamPKcz
 557 0086 3B4B     		ldr	r3, .L89+44
 558 0088 0422     		movs	r2, #4
 559 008a 1A60     		str	r2, [r3]
 560 008c 70BD     		pop	{r4, r5, r6, pc}
 561              	.L62:
 562 008e 2046     		mov	r0, r4
 563 0090 3949     		ldr	r1, .L89+48
 564 0092 FFF7FEFF 		bl	_ZL8chprintfP20BaseSequentialStreamPKcz
 565 0096 2046     		mov	r0, r4
 566 0098 3849     		ldr	r1, .L89+52
 567 009a FFF7FEFF 		bl	_ZL8chprintfP20BaseSequentialStreamPKcz
 568 009e 2046     		mov	r0, r4
 569 00a0 3749     		ldr	r1, .L89+56
 570 00a2 FFF7FEFF 		bl	_ZL8chprintfP20BaseSequentialStreamPKcz
 571 00a6 2046     		mov	r0, r4
 572 00a8 3649     		ldr	r1, .L89+60
 573 00aa FFF7FEFF 		bl	_ZL8chprintfP20BaseSequentialStreamPKcz
 574 00ae 2046     		mov	r0, r4
 575 00b0 3549     		ldr	r1, .L89+64
 576 00b2 FFF7FEFF 		bl	_ZL8chprintfP20BaseSequentialStreamPKcz
 577 00b6 2046     		mov	r0, r4
 578 00b8 3449     		ldr	r1, .L89+68
 579 00ba FFF7FEFF 		bl	_ZL8chprintfP20BaseSequentialStreamPKcz
 580 00be 2046     		mov	r0, r4
 581 00c0 3349     		ldr	r1, .L89+72
 582 00c2 FFF7FEFF 		bl	_ZL8chprintfP20BaseSequentialStreamPKcz
 583 00c6 2046     		mov	r0, r4
 584 00c8 3249     		ldr	r1, .L89+76
 585 00ca FFF7FEFF 		bl	_ZL8chprintfP20BaseSequentialStreamPKcz
 586 00ce 2046     		mov	r0, r4
 587 00d0 3149     		ldr	r1, .L89+80
 588 00d2 FFF7FEFF 		bl	_ZL8chprintfP20BaseSequentialStreamPKcz
 589 00d6 2046     		mov	r0, r4
 590 00d8 3049     		ldr	r1, .L89+84
 591 00da FFF7FEFF 		bl	_ZL8chprintfP20BaseSequentialStreamPKcz
 592 00de 2046     		mov	r0, r4
 593 00e0 2F49     		ldr	r1, .L89+88
 594 00e2 FFF7FEFF 		bl	_ZL8chprintfP20BaseSequentialStreamPKcz
 595 00e6 2046     		mov	r0, r4
 596 00e8 2E49     		ldr	r1, .L89+92
 597 00ea FFF7FEFF 		bl	_ZL8chprintfP20BaseSequentialStreamPKcz
 598 00ee 2046     		mov	r0, r4
 599 00f0 2D49     		ldr	r1, .L89+96
 600 00f2 FFF7FEFF 		bl	_ZL8chprintfP20BaseSequentialStreamPKcz
 601 00f6 2046     		mov	r0, r4
 602 00f8 2149     		ldr	r1, .L89+56
ARM GAS  /tmp/ccLpOfjJ.s 			page 12


 603 00fa BDE87040 		pop	{r4, r5, r6, lr}
 604 00fe FFF7FEBF 		b	_ZL8chprintfP20BaseSequentialStreamPKcz
 605              	.L64:
 606 0102 1C4B     		ldr	r3, .L89+44
 607 0104 2949     		ldr	r1, .L89+100
 608 0106 2046     		mov	r0, r4
 609 0108 0122     		movs	r2, #1
 610 010a BDE87040 		pop	{r4, r5, r6, lr}
 611 010e 1A60     		str	r2, [r3]
 612 0110 FFF7FEBF 		b	_ZL8chprintfP20BaseSequentialStreamPKcz
 613              	.L66:
 614 0114 174B     		ldr	r3, .L89+44
 615 0116 2649     		ldr	r1, .L89+104
 616 0118 2046     		mov	r0, r4
 617 011a 0222     		movs	r2, #2
 618 011c BDE87040 		pop	{r4, r5, r6, lr}
 619 0120 1A60     		str	r2, [r3]
 620 0122 FFF7FEBF 		b	_ZL8chprintfP20BaseSequentialStreamPKcz
 621              	.L68:
 622 0126 134B     		ldr	r3, .L89+44
 623 0128 2249     		ldr	r1, .L89+108
 624 012a 2046     		mov	r0, r4
 625 012c 0322     		movs	r2, #3
 626 012e BDE87040 		pop	{r4, r5, r6, lr}
 627 0132 1A60     		str	r2, [r3]
 628 0134 FFF7FEBF 		b	_ZL8chprintfP20BaseSequentialStreamPKcz
 629              	.L71:
 630 0138 2046     		mov	r0, r4
 631 013a 1F49     		ldr	r1, .L89+112
 632 013c FFF7FEFF 		bl	_ZL8chprintfP20BaseSequentialStreamPKcz
 633 0140 0C4B     		ldr	r3, .L89+44
 634 0142 0022     		movs	r2, #0
 635 0144 1A60     		str	r2, [r3]
 636 0146 70BD     		pop	{r4, r5, r6, pc}
 637              	.L90:
 638              		.align	2
 639              	.L89:
 640 0148 00000000 		.word	.LC6
 641 014c 18000000 		.word	.LC7
 642 0150 6C020000 		.word	.LC21
 643 0154 7C020000 		.word	.LC22
 644 0158 B0020000 		.word	.LC24
 645 015c BC020000 		.word	.LC25
 646 0160 E8020000 		.word	.LC27
 647 0164 F4020000 		.word	.LC28
 648 0168 20030000 		.word	.LC30
 649 016c 28030000 		.word	.LC31
 650 0170 2C030000 		.word	.LC32
 651 0174 00000000 		.word	shutdown_now
 652 0178 20000000 		.word	.LC8
 653 017c 2C000000 		.word	.LC9
 654 0180 40000000 		.word	.LC10
 655 0184 44000000 		.word	.LC11
 656 0188 4C000000 		.word	.LC12
 657 018c 70000000 		.word	.LC13
 658 0190 94000000 		.word	.LC14
 659 0194 D8000000 		.word	.LC15
ARM GAS  /tmp/ccLpOfjJ.s 			page 13


 660 0198 0C010000 		.word	.LC16
 661 019c 54010000 		.word	.LC17
 662 01a0 9C010000 		.word	.LC18
 663 01a4 EC010000 		.word	.LC19
 664 01a8 1C020000 		.word	.LC20
 665 01ac 80020000 		.word	.LC23
 666 01b0 C0020000 		.word	.LC26
 667 01b4 F8020000 		.word	.LC29
 668 01b8 44030000 		.word	.LC33
 669              		.size	_Z20shellRequestShutdownP20BaseSequentialStreamiPPc, .-_Z20shellRequestShutdownP20BaseSequen
 670 01bc AFF30080 		.section	.text._Z23shellRequestResetMemoryP20BaseSequentialStreamiPPc,"ax",%progbits
 671              		.align	2
 672              		.p2align 4,,15
 673              		.global	_Z23shellRequestResetMemoryP20BaseSequentialStreamiPPc
 674              		.thumb
 675              		.thumb_func
 676              		.type	_Z23shellRequestResetMemoryP20BaseSequentialStreamiPPc, %function
 677              	_Z23shellRequestResetMemoryP20BaseSequentialStreamiPPc:
 678              		@ args = 0, pretend = 0, frame = 0
 679              		@ frame_needed = 0, uses_anonymous_args = 0
 680 0000 10B5     		push	{r4, lr}
 681 0002 0A49     		ldr	r1, .L94
 682 0004 0446     		mov	r4, r0
 683 0006 FFF7FEFF 		bl	_ZL8chprintfP20BaseSequentialStreamPKcz
 684 000a 0948     		ldr	r0, .L94+4
 685 000c FFF7FEFF 		bl	_ZN5amiro12fileSystemIo16FileSystemIoBase11resetMemoryEv
 686 0010 28B9     		cbnz	r0, .L93
 687 0012 2046     		mov	r0, r4
 688 0014 0749     		ldr	r1, .L94+8
 689 0016 BDE81040 		pop	{r4, lr}
 690 001a FFF7FEBF 		b	_ZL8chprintfP20BaseSequentialStreamPKcz
 691              	.L93:
 692 001e 2046     		mov	r0, r4
 693 0020 0549     		ldr	r1, .L94+12
 694 0022 BDE81040 		pop	{r4, lr}
 695 0026 FFF7FEBF 		b	_ZL8chprintfP20BaseSequentialStreamPKcz
 696              	.L95:
 697 002a 00BF     		.align	2
 698              	.L94:
 699 002c 60030000 		.word	.LC34
 700 0030 7C030000 		.word	.LANCHOR0+892
 701 0034 8C030000 		.word	.LC36
 702 0038 78030000 		.word	.LC35
 703              		.size	_Z23shellRequestResetMemoryP20BaseSequentialStreamiPPc, .-_Z23shellRequestResetMemoryP20Base
 704 003c AFF30080 		.section	.text._Z22shellRequestGetBoardIdP20BaseSequentialStreamiPPc,"ax",%progbits
 705              		.align	2
 706              		.p2align 4,,15
 707              		.global	_Z22shellRequestGetBoardIdP20BaseSequentialStreamiPPc
 708              		.thumb
 709              		.thumb_func
 710              		.type	_Z22shellRequestGetBoardIdP20BaseSequentialStreamiPPc, %function
 711              	_Z22shellRequestGetBoardIdP20BaseSequentialStreamiPPc:
 712              		@ args = 0, pretend = 0, frame = 8
 713              		@ frame_needed = 0, uses_anonymous_args = 0
 714 0000 10B5     		push	{r4, lr}
 715 0002 0D49     		ldr	r1, .L100
 716 0004 82B0     		sub	sp, sp, #8
ARM GAS  /tmp/ccLpOfjJ.s 			page 14


 717 0006 0446     		mov	r4, r0
 718 0008 FFF7FEFF 		bl	_ZL8chprintfP20BaseSequentialStreamPKcz
 719 000c 02A9     		add	r1, sp, #8
 720 000e FF23     		movs	r3, #255
 721 0010 01F8013D 		strb	r3, [r1, #-1]!
 722 0014 0948     		ldr	r0, .L100+4
 723 0016 FFF7FEFF 		bl	_ZN5amiro12fileSystemIo16FileSystemIoBase10getBoardIdEPh
 724 001a 38B9     		cbnz	r0, .L99
 725 001c 2046     		mov	r0, r4
 726 001e 0849     		ldr	r1, .L100+8
 727 0020 9DF80720 		ldrb	r2, [sp, #7]	@ zero_extendqisi2
 728 0024 FFF7FEFF 		bl	_ZL8chprintfP20BaseSequentialStreamPKcz
 729 0028 02B0     		add	sp, sp, #8
 730              		@ sp needed
 731 002a 10BD     		pop	{r4, pc}
 732              	.L99:
 733 002c 2046     		mov	r0, r4
 734 002e 0549     		ldr	r1, .L100+12
 735 0030 FFF7FEFF 		bl	_ZL8chprintfP20BaseSequentialStreamPKcz
 736 0034 02B0     		add	sp, sp, #8
 737              		@ sp needed
 738 0036 10BD     		pop	{r4, pc}
 739              	.L101:
 740              		.align	2
 741              	.L100:
 742 0038 A0030000 		.word	.LC37
 743 003c 7C030000 		.word	.LANCHOR0+892
 744 0040 CC030000 		.word	.LC39
 745 0044 B8030000 		.word	.LC38
 746              		.size	_Z22shellRequestGetBoardIdP20BaseSequentialStreamiPPc, .-_Z22shellRequestGetBoardIdP20BaseSe
 747 0048 AFF30080 		.section	.text._Z25shellRequestGetMemoryDataP20BaseSequentialStreamiPPc,"ax",%progbits
 747      AFF30080 
 748              		.align	2
 749              		.p2align 4,,15
 750              		.global	_Z25shellRequestGetMemoryDataP20BaseSequentialStreamiPPc
 751              		.thumb
 752              		.thumb_func
 753              		.type	_Z25shellRequestGetMemoryDataP20BaseSequentialStreamiPPc, %function
 754              	_Z25shellRequestGetMemoryDataP20BaseSequentialStreamiPPc:
 755              		@ args = 0, pretend = 0, frame = 0
 756              		@ frame_needed = 1, uses_anonymous_args = 0
 757 0000 2DE9F84F 		push	{r3, r4, r5, r6, r7, r8, r9, r10, fp, lr}
 758 0004 8946     		mov	r9, r1
 759 0006 00AF     		add	r7, sp, #0
 760 0008 9A49     		ldr	r1, .L134
 761 000a 9046     		mov	r8, r2
 762 000c 0546     		mov	r5, r0
 763 000e FFF7FEFF 		bl	_ZL8chprintfP20BaseSequentialStreamPKcz
 764 0012 B9F1010F 		cmp	r9, #1
 765 0016 59DD     		ble	.L103
 766 0018 D8F80040 		ldr	r4, [r8]
 767 001c 9649     		ldr	r1, .L134+4
 768 001e 2046     		mov	r0, r4
 769 0020 FFF7FEFF 		bl	strcmp
 770 0024 0028     		cmp	r0, #0
 771 0026 51D0     		beq	.L103
 772 0028 2046     		mov	r0, r4
ARM GAS  /tmp/ccLpOfjJ.s 			page 15


 773 002a 9449     		ldr	r1, .L134+8
 774 002c FFF7FEFF 		bl	strcmp
 775 0030 0028     		cmp	r0, #0
 776 0032 00F0F280 		beq	.L122
 777 0036 2046     		mov	r0, r4
 778 0038 9149     		ldr	r1, .L134+12
 779 003a FFF7FEFF 		bl	strcmp
 780 003e 0028     		cmp	r0, #0
 781 0040 40F09C80 		bne	.L130
 782 0044 0124     		movs	r4, #1
 783 0046 2646     		mov	r6, r4
 784              	.L106:
 785 0048 D8F80400 		ldr	r0, [r8, #4]
 786 004c FFF7FEFF 		bl	atoi
 787 0050 B9F1020F 		cmp	r9, #2
 788 0054 8346     		mov	fp, r0
 789 0056 40F0F580 		bne	.L131
 790 005a 4FF00108 		mov	r8, #1
 791              	.L107:
 792 005e 8948     		ldr	r0, .L134+16
 793 0060 FFF7FEFF 		bl	_ZN5amiro6EEPROM7getsizeEPv
 794 0064 C31D     		adds	r3, r0, #7
 795 0066 23F00703 		bic	r3, r3, #7
 796 006a 04FB08FA 		mul	r10, r4, r8
 797 006e ADEB030D 		sub	sp, sp, r3
 798 0072 0AEB0B03 		add	r3, r10, fp
 799 0076 9842     		cmp	r0, r3
 800 0078 E946     		mov	r9, sp
 801 007a C0F0D780 		bcc	.L132
 802              	.L108:
 803 007e 824C     		ldr	r4, .L134+20
 804 0080 D4F84033 		ldr	r3, [r4, #832]
 805 0084 5946     		mov	r1, fp
 806 0086 1B6A     		ldr	r3, [r3, #32]
 807 0088 04F55070 		add	r0, r4, #832
 808 008c 9847     		blx	r3
 809 008e D4F84033 		ldr	r3, [r4, #832]
 810 0092 04F55070 		add	r0, r4, #832
 811 0096 5B68     		ldr	r3, [r3, #4]
 812 0098 4946     		mov	r1, r9
 813 009a 5246     		mov	r2, r10
 814 009c 9847     		blx	r3
 815 009e 5045     		cmp	r0, r10
 816 00a0 05D0     		beq	.L109
 817 00a2 0246     		mov	r2, r0
 818 00a4 5346     		mov	r3, r10
 819 00a6 2846     		mov	r0, r5
 820 00a8 7849     		ldr	r1, .L134+24
 821 00aa FFF7FEFF 		bl	_ZL8chprintfP20BaseSequentialStreamPKcz
 822              	.L109:
 823 00ae B8F1000F 		cmp	r8, #0
 824 00b2 00F08D80 		beq	.L120
 825 00b6 013E     		subs	r6, r6, #1
 826 00b8 0024     		movs	r4, #0
 827              	.L121:
 828 00ba 2846     		mov	r0, r5
 829 00bc 052E     		cmp	r6, #5
ARM GAS  /tmp/ccLpOfjJ.s 			page 16


 830 00be 00F2A680 		bhi	.L111
 831 00c2 DFE806F0 		tbb	[pc, r6]
 832              	.L113:
 833 00c6 9E       		.byte	(.L112-.L113)/2
 834 00c7 98       		.byte	(.L114-.L113)/2
 835 00c8 92       		.byte	(.L115-.L113)/2
 836 00c9 8C       		.byte	(.L116-.L113)/2
 837 00ca 7C       		.byte	(.L117-.L113)/2
 838 00cb AD       		.byte	(.L118-.L113)/2
 839              		.align	1
 840              	.L103:
 841 00cc 704A     		ldr	r2, .L134+28
 842 00ce 7149     		ldr	r1, .L134+32
 843 00d0 2846     		mov	r0, r5
 844 00d2 FFF7FEFF 		bl	_ZL8chprintfP20BaseSequentialStreamPKcz
 845 00d6 2846     		mov	r0, r5
 846 00d8 6F49     		ldr	r1, .L134+36
 847 00da FFF7FEFF 		bl	_ZL8chprintfP20BaseSequentialStreamPKcz
 848 00de 2846     		mov	r0, r5
 849 00e0 6E49     		ldr	r1, .L134+40
 850 00e2 FFF7FEFF 		bl	_ZL8chprintfP20BaseSequentialStreamPKcz
 851 00e6 2846     		mov	r0, r5
 852 00e8 6D49     		ldr	r1, .L134+44
 853 00ea FFF7FEFF 		bl	_ZL8chprintfP20BaseSequentialStreamPKcz
 854 00ee 2846     		mov	r0, r5
 855 00f0 6C49     		ldr	r1, .L134+48
 856 00f2 FFF7FEFF 		bl	_ZL8chprintfP20BaseSequentialStreamPKcz
 857 00f6 2846     		mov	r0, r5
 858 00f8 6B49     		ldr	r1, .L134+52
 859 00fa FFF7FEFF 		bl	_ZL8chprintfP20BaseSequentialStreamPKcz
 860 00fe 2846     		mov	r0, r5
 861 0100 6A49     		ldr	r1, .L134+56
 862 0102 FFF7FEFF 		bl	_ZL8chprintfP20BaseSequentialStreamPKcz
 863 0106 2846     		mov	r0, r5
 864 0108 6949     		ldr	r1, .L134+60
 865 010a FFF7FEFF 		bl	_ZL8chprintfP20BaseSequentialStreamPKcz
 866 010e 2846     		mov	r0, r5
 867 0110 6849     		ldr	r1, .L134+64
 868 0112 FFF7FEFF 		bl	_ZL8chprintfP20BaseSequentialStreamPKcz
 869 0116 2846     		mov	r0, r5
 870 0118 6749     		ldr	r1, .L134+68
 871 011a FFF7FEFF 		bl	_ZL8chprintfP20BaseSequentialStreamPKcz
 872 011e 2846     		mov	r0, r5
 873 0120 6649     		ldr	r1, .L134+72
 874 0122 FFF7FEFF 		bl	_ZL8chprintfP20BaseSequentialStreamPKcz
 875 0126 2846     		mov	r0, r5
 876 0128 6549     		ldr	r1, .L134+76
 877 012a FFF7FEFF 		bl	_ZL8chprintfP20BaseSequentialStreamPKcz
 878 012e 2846     		mov	r0, r5
 879 0130 6449     		ldr	r1, .L134+80
 880 0132 FFF7FEFF 		bl	_ZL8chprintfP20BaseSequentialStreamPKcz
 881 0136 2846     		mov	r0, r5
 882 0138 6349     		ldr	r1, .L134+84
 883 013a FFF7FEFF 		bl	_ZL8chprintfP20BaseSequentialStreamPKcz
 884 013e 2846     		mov	r0, r5
 885 0140 6249     		ldr	r1, .L134+88
 886 0142 FFF7FEFF 		bl	_ZL8chprintfP20BaseSequentialStreamPKcz
ARM GAS  /tmp/ccLpOfjJ.s 			page 17


 887 0146 2846     		mov	r0, r5
 888 0148 6149     		ldr	r1, .L134+92
 889 014a FFF7FEFF 		bl	_ZL8chprintfP20BaseSequentialStreamPKcz
 890 014e 2846     		mov	r0, r5
 891 0150 5149     		ldr	r1, .L134+36
 892 0152 FFF7FEFF 		bl	_ZL8chprintfP20BaseSequentialStreamPKcz
 893 0156 2846     		mov	r0, r5
 894 0158 5E49     		ldr	r1, .L134+96
 895 015a FFF7FEFF 		bl	_ZL8chprintfP20BaseSequentialStreamPKcz
 896 015e 2846     		mov	r0, r5
 897 0160 5D49     		ldr	r1, .L134+100
 898 0162 FFF7FEFF 		bl	_ZL8chprintfP20BaseSequentialStreamPKcz
 899 0166 2846     		mov	r0, r5
 900 0168 5C49     		ldr	r1, .L134+104
 901 016a FFF7FEFF 		bl	_ZL8chprintfP20BaseSequentialStreamPKcz
 902 016e 2846     		mov	r0, r5
 903 0170 4949     		ldr	r1, .L134+36
 904 0172 FFF7FEFF 		bl	_ZL8chprintfP20BaseSequentialStreamPKcz
 905              	.L102:
 906 0176 BD46     		mov	sp, r7
 907              		@ sp needed
 908 0178 BDE8F88F 		pop	{r3, r4, r5, r6, r7, r8, r9, r10, fp, pc}
 909              	.L130:
 910 017c 2046     		mov	r0, r4
 911 017e 5849     		ldr	r1, .L134+108
 912 0180 FFF7FEFF 		bl	strcmp
 913 0184 0028     		cmp	r0, #0
 914 0186 63D0     		beq	.L124
 915 0188 2046     		mov	r0, r4
 916 018a 5649     		ldr	r1, .L134+112
 917 018c FFF7FEFF 		bl	strcmp
 918 0190 0028     		cmp	r0, #0
 919 0192 60D0     		beq	.L125
 920 0194 2046     		mov	r0, r4
 921 0196 5449     		ldr	r1, .L134+116
 922 0198 FFF7FEFF 		bl	strcmp
 923 019c 0028     		cmp	r0, #0
 924 019e 5DD0     		beq	.L126
 925 01a0 2046     		mov	r0, r4
 926 01a2 5249     		ldr	r1, .L134+120
 927 01a4 FFF7FEFF 		bl	strcmp
 928 01a8 0028     		cmp	r0, #0
 929 01aa 5AD0     		beq	.L127
 930 01ac 2046     		mov	r0, r4
 931 01ae 5049     		ldr	r1, .L134+124
 932 01b0 FFF7FEFF 		bl	strcmp
 933 01b4 0028     		cmp	r0, #0
 934 01b6 57D1     		bne	.L133
 935 01b8 0424     		movs	r4, #4
 936 01ba 0626     		movs	r6, #6
 937 01bc 44E7     		b	.L106
 938              	.L117:
 939 01be 4D49     		ldr	r1, .L134+128
 940 01c0 39F91420 		ldrsh	r2, [r9, r4, lsl #1]
 941 01c4 FFF7FEFF 		bl	_ZL8chprintfP20BaseSequentialStreamPKcz
 942              	.L119:
 943 01c8 0134     		adds	r4, r4, #1
ARM GAS  /tmp/ccLpOfjJ.s 			page 18


 944 01ca 4445     		cmp	r4, r8
 945 01cc 7FF475AF 		bne	.L121
 946              	.L120:
 947 01d0 2846     		mov	r0, r5
 948 01d2 3149     		ldr	r1, .L134+36
 949 01d4 FFF7FEFF 		bl	_ZL8chprintfP20BaseSequentialStreamPKcz
 950 01d8 BD46     		mov	sp, r7
 951              		@ sp needed
 952 01da BDE8F88F 		pop	{r3, r4, r5, r6, r7, r8, r9, r10, fp, pc}
 953              	.L116:
 954 01de 4649     		ldr	r1, .L134+132
 955 01e0 19F90420 		ldrsb	r2, [r9, r4]
 956 01e4 FFF7FEFF 		bl	_ZL8chprintfP20BaseSequentialStreamPKcz
 957 01e8 EEE7     		b	.L119
 958              	.L115:
 959 01ea 4449     		ldr	r1, .L134+136
 960 01ec 59F82420 		ldr	r2, [r9, r4, lsl #2]
 961 01f0 FFF7FEFF 		bl	_ZL8chprintfP20BaseSequentialStreamPKcz
 962 01f4 E8E7     		b	.L119
 963              	.L114:
 964 01f6 4249     		ldr	r1, .L134+140
 965 01f8 39F81420 		ldrh	r2, [r9, r4, lsl #1]
 966 01fc FFF7FEFF 		bl	_ZL8chprintfP20BaseSequentialStreamPKcz
 967 0200 E2E7     		b	.L119
 968              	.L112:
 969 0202 4049     		ldr	r1, .L134+144
 970 0204 19F80420 		ldrb	r2, [r9, r4]	@ zero_extendqisi2
 971 0208 FFF7FEFF 		bl	_ZL8chprintfP20BaseSequentialStreamPKcz
 972 020c DCE7     		b	.L119
 973              	.L111:
 974 020e 3E49     		ldr	r1, .L134+148
 975 0210 19F80420 		ldrb	r2, [r9, r4]	@ zero_extendqisi2
 976 0214 FFF7FEFF 		bl	_ZL8chprintfP20BaseSequentialStreamPKcz
 977 0218 D6E7     		b	.L119
 978              	.L122:
 979 021a 0646     		mov	r6, r0
 980 021c 0124     		movs	r4, #1
 981 021e 13E7     		b	.L106
 982              	.L118:
 983 0220 3A49     		ldr	r1, .L134+152
 984 0222 59F82420 		ldr	r2, [r9, r4, lsl #2]
 985 0226 FFF7FEFF 		bl	_ZL8chprintfP20BaseSequentialStreamPKcz
 986 022a CDE7     		b	.L119
 987              	.L132:
 988 022c CBEB0000 		rsb	r0, fp, r0
 989 0230 B0FBF4F8 		udiv	r8, r0, r4
 990 0234 4246     		mov	r2, r8
 991 0236 2846     		mov	r0, r5
 992 0238 3549     		ldr	r1, .L134+156
 993 023a FFF7FEFF 		bl	_ZL8chprintfP20BaseSequentialStreamPKcz
 994 023e 04FB08FA 		mul	r10, r4, r8
 995 0242 1CE7     		b	.L108
 996              	.L131:
 997 0244 D8F80800 		ldr	r0, [r8, #8]
 998 0248 FFF7FEFF 		bl	atoi
 999 024c 8046     		mov	r8, r0
 1000 024e 06E7     		b	.L107
ARM GAS  /tmp/ccLpOfjJ.s 			page 19


 1001              	.L124:
 1002 0250 0224     		movs	r4, #2
 1003 0252 2646     		mov	r6, r4
 1004 0254 F8E6     		b	.L106
 1005              	.L125:
 1006 0256 0424     		movs	r4, #4
 1007 0258 0326     		movs	r6, #3
 1008 025a F5E6     		b	.L106
 1009              	.L126:
 1010 025c 0124     		movs	r4, #1
 1011 025e 0426     		movs	r6, #4
 1012 0260 F2E6     		b	.L106
 1013              	.L127:
 1014 0262 0224     		movs	r4, #2
 1015 0264 0526     		movs	r6, #5
 1016 0266 EFE6     		b	.L106
 1017              	.L133:
 1018 0268 2846     		mov	r0, r5
 1019 026a 2A49     		ldr	r1, .L134+160
 1020 026c FFF7FEFF 		bl	_ZL8chprintfP20BaseSequentialStreamPKcz
 1021 0270 81E7     		b	.L102
 1022              	.L135:
 1023 0272 00BF     		.align	2
 1024              	.L134:
 1025 0274 E0030000 		.word	.LC40
 1026 0278 18000000 		.word	.LC7
 1027 027c 30060000 		.word	.LC58
 1028 0280 34060000 		.word	.LC59
 1029 0284 40030000 		.word	.LANCHOR0+832
 1030 0288 00000000 		.word	.LANCHOR0
 1031 028c CC060000 		.word	.LC67
 1032 0290 04040000 		.word	.LC42
 1033 0294 F8030000 		.word	.LC41
 1034 0298 40000000 		.word	.LC10
 1035 029c 44000000 		.word	.LC11
 1036 02a0 30040000 		.word	.LC43
 1037 02a4 70000000 		.word	.LC13
 1038 02a8 60040000 		.word	.LC44
 1039 02ac 88040000 		.word	.LC45
 1040 02b0 AC040000 		.word	.LC46
 1041 02b4 D0040000 		.word	.LC47
 1042 02b8 F4040000 		.word	.LC48
 1043 02bc 14050000 		.word	.LC49
 1044 02c0 38050000 		.word	.LC50
 1045 02c4 5C050000 		.word	.LC51
 1046 02c8 64050000 		.word	.LC52
 1047 02cc 90050000 		.word	.LC53
 1048 02d0 A8050000 		.word	.LC54
 1049 02d4 CC050000 		.word	.LC55
 1050 02d8 D4050000 		.word	.LC56
 1051 02dc 04060000 		.word	.LC57
 1052 02e0 38060000 		.word	.LC60
 1053 02e4 3C060000 		.word	.LC61
 1054 02e8 40060000 		.word	.LC62
 1055 02ec 44060000 		.word	.LC63
 1056 02f0 48060000 		.word	.LC64
 1057 02f4 24070000 		.word	.LC73
ARM GAS  /tmp/ccLpOfjJ.s 			page 20


 1058 02f8 1C070000 		.word	.LC72
 1059 02fc 14070000 		.word	.LC71
 1060 0300 0C070000 		.word	.LC70
 1061 0304 04070000 		.word	.LC69
 1062 0308 FC060000 		.word	.LC68
 1063 030c 2C070000 		.word	.LC74
 1064 0310 8C060000 		.word	.LC66
 1065 0314 4C060000 		.word	.LC65
 1066              		.size	_Z25shellRequestGetMemoryDataP20BaseSequentialStreamiPPc, .-_Z25shellRequestGetMemoryDataP20
 1067 0318 AFF30080 		.section	.text._Z27shellRequestResetVcnlOffsetP20BaseSequentialStreamiPPc,"ax",%progbits
 1067      AFF30080 
 1068              		.align	2
 1069              		.p2align 4,,15
 1070              		.global	_Z27shellRequestResetVcnlOffsetP20BaseSequentialStreamiPPc
 1071              		.thumb
 1072              		.thumb_func
 1073              		.type	_Z27shellRequestResetVcnlOffsetP20BaseSequentialStreamiPPc, %function
 1074              	_Z27shellRequestResetVcnlOffsetP20BaseSequentialStreamiPPc:
 1075              		@ args = 0, pretend = 0, frame = 0
 1076              		@ frame_needed = 0, uses_anonymous_args = 0
 1077 0000 2DE9F041 		push	{r4, r5, r6, r7, r8, lr}
 1078 0004 0024     		movs	r4, #0
 1079 0006 154E     		ldr	r6, .L145
 1080 0008 0746     		mov	r7, r0
 1081 000a A046     		mov	r8, r4
 1082 000c 08E0     		b	.L140
 1083              	.L143:
 1084 000e 3046     		mov	r0, r6
 1085 0010 2946     		mov	r1, r5
 1086 0012 0134     		adds	r4, r4, #1
 1087 0014 FFF7FEFF 		bl	_ZN5amiro8VCNL402018setProximityOffsetEt
 1088 0018 082C     		cmp	r4, #8
 1089 001a 06F52276 		add	r6, r6, #648
 1090 001e 12D0     		beq	.L142
 1091              	.L140:
 1092 0020 0021     		movs	r1, #0
 1093 0022 E2B2     		uxtb	r2, r4
 1094 0024 0E48     		ldr	r0, .L145+4
 1095 0026 FFF7FEFF 		bl	_ZN5amiro12fileSystemIo19FSIOPowerManagement17setVcnl4020OffsetEth
 1096 002a 0546     		mov	r5, r0
 1097 002c 2246     		mov	r2, r4
 1098 002e 3846     		mov	r0, r7
 1099 0030 0C49     		ldr	r1, .L145+8
 1100 0032 002D     		cmp	r5, #0
 1101 0034 EBD0     		beq	.L143
 1102 0036 0134     		adds	r4, r4, #1
 1103 0038 FFF7FEFF 		bl	_ZL8chprintfP20BaseSequentialStreamPKcz
 1104 003c 082C     		cmp	r4, #8
 1105 003e A846     		mov	r8, r5
 1106 0040 06F52276 		add	r6, r6, #648
 1107 0044 ECD1     		bne	.L140
 1108              	.L142:
 1109 0046 B8F1000F 		cmp	r8, #0
 1110 004a 01D0     		beq	.L144
 1111 004c BDE8F081 		pop	{r4, r5, r6, r7, r8, pc}
 1112              	.L144:
 1113 0050 3846     		mov	r0, r7
ARM GAS  /tmp/ccLpOfjJ.s 			page 21


 1114 0052 0549     		ldr	r1, .L145+12
 1115 0054 BDE8F041 		pop	{r4, r5, r6, r7, r8, lr}
 1116 0058 FFF7FEBF 		b	_ZL8chprintfP20BaseSequentialStreamPKcz
 1117              	.L146:
 1118              		.align	2
 1119              	.L145:
 1120 005c B01F0000 		.word	.LANCHOR0+8112
 1121 0060 7C030000 		.word	.LANCHOR0+892
 1122 0064 34070000 		.word	.LC75
 1123 0068 4C070000 		.word	.LC76
 1124              		.size	_Z27shellRequestResetVcnlOffsetP20BaseSequentialStreamiPPc, .-_Z27shellRequestResetVcnlOffse
 1125 006c AFF30080 		.section	.text._Z25shellRequestGetVcnlOffsetP20BaseSequentialStreamiPPc,"ax",%progbits
 1126              		.align	2
 1127              		.p2align 4,,15
 1128              		.global	_Z25shellRequestGetVcnlOffsetP20BaseSequentialStreamiPPc
 1129              		.thumb
 1130              		.thumb_func
 1131              		.type	_Z25shellRequestGetVcnlOffsetP20BaseSequentialStreamiPPc, %function
 1132              	_Z25shellRequestGetVcnlOffsetP20BaseSequentialStreamiPPc:
 1133              		@ args = 0, pretend = 0, frame = 8
 1134              		@ frame_needed = 0, uses_anonymous_args = 0
 1135 0000 70B5     		push	{r4, r5, r6, lr}
 1136 0002 0C46     		mov	r4, r1
 1137 0004 82B0     		sub	sp, sp, #8
 1138 0006 1649     		ldr	r1, .L155
 1139 0008 1646     		mov	r6, r2
 1140 000a 0546     		mov	r5, r0
 1141 000c FFF7FEFF 		bl	_ZL8chprintfP20BaseSequentialStreamPKcz
 1142 0010 012C     		cmp	r4, #1
 1143 0012 06D0     		beq	.L148
 1144 0014 2846     		mov	r0, r5
 1145 0016 1349     		ldr	r1, .L155+4
 1146 0018 134A     		ldr	r2, .L155+8
 1147 001a FFF7FEFF 		bl	_ZL8chprintfP20BaseSequentialStreamPKcz
 1148              	.L147:
 1149 001e 02B0     		add	sp, sp, #8
 1150              		@ sp needed
 1151 0020 70BD     		pop	{r4, r5, r6, pc}
 1152              	.L148:
 1153 0022 3068     		ldr	r0, [r6]
 1154 0024 FFF7FEFF 		bl	atoi
 1155 0028 C2B2     		uxtb	r2, r0
 1156 002a 072A     		cmp	r2, #7
 1157 002c 0AD8     		bhi	.L154
 1158 002e 0F48     		ldr	r0, .L155+12
 1159 0030 0DF10601 		add	r1, sp, #6
 1160 0034 FFF7FEFF 		bl	_ZN5amiro12fileSystemIo19FSIOPowerManagement17getVcnl4020OffsetEPth
 1161 0038 58B1     		cbz	r0, .L151
 1162 003a 2846     		mov	r0, r5
 1163 003c 0C49     		ldr	r1, .L155+16
 1164 003e FFF7FEFF 		bl	_ZL8chprintfP20BaseSequentialStreamPKcz
 1165 0042 ECE7     		b	.L147
 1166              	.L154:
 1167 0044 0B48     		ldr	r0, .L155+20
 1168 0046 0C49     		ldr	r1, .L155+24
 1169 0048 0722     		movs	r2, #7
 1170 004a FFF7FEFF 		bl	_ZL8chprintfP20BaseSequentialStreamPKcz
ARM GAS  /tmp/ccLpOfjJ.s 			page 22


 1171 004e 02B0     		add	sp, sp, #8
 1172              		@ sp needed
 1173 0050 70BD     		pop	{r4, r5, r6, pc}
 1174              	.L151:
 1175 0052 2846     		mov	r0, r5
 1176 0054 0949     		ldr	r1, .L155+28
 1177 0056 BDF80620 		ldrh	r2, [sp, #6]
 1178 005a FFF7FEFF 		bl	_ZL8chprintfP20BaseSequentialStreamPKcz
 1179 005e DEE7     		b	.L147
 1180              	.L156:
 1181              		.align	2
 1182              	.L155:
 1183 0060 60070000 		.word	.LC77
 1184 0064 F8030000 		.word	.LC41
 1185 0068 7C070000 		.word	.LC78
 1186 006c 7C030000 		.word	.LANCHOR0+892
 1187 0070 B8070000 		.word	.LC80
 1188 0074 00000000 		.word	SD1
 1189 0078 94070000 		.word	.LC79
 1190 007c CC070000 		.word	.LC81
 1191              		.size	_Z25shellRequestGetVcnlOffsetP20BaseSequentialStreamiPPc, .-_Z25shellRequestGetVcnlOffsetP20
 1192              		.section	.text._Z21shellRequestPrintVCNLP20BaseSequentialStreamiPPc,"ax",%progbits
 1193              		.align	2
 1194              		.p2align 4,,15
 1195              		.global	_Z21shellRequestPrintVCNLP20BaseSequentialStreamiPPc
 1196              		.thumb
 1197              		.thumb_func
 1198              		.type	_Z21shellRequestPrintVCNLP20BaseSequentialStreamiPPc, %function
 1199              	_Z21shellRequestPrintVCNLP20BaseSequentialStreamiPPc:
 1200              		@ args = 0, pretend = 0, frame = 0
 1201              		@ frame_needed = 0, uses_anonymous_args = 0
 1202 0000 2DE9F04F 		push	{r4, r5, r6, r7, r8, r9, r10, fp, lr}
 1203 0004 8946     		mov	r9, r1
 1204 0006 83B0     		sub	sp, sp, #12
 1205 0008 4449     		ldr	r1, .L175
 1206 000a 1446     		mov	r4, r2
 1207 000c 0746     		mov	r7, r0
 1208 000e FFF7FEFF 		bl	_ZL8chprintfP20BaseSequentialStreamPKcz
 1209 0012 B9F1000F 		cmp	r9, #0
 1210 0016 48DD     		ble	.L174
 1211 0018 2568     		ldr	r5, [r4]
 1212 001a 4149     		ldr	r1, .L175+4
 1213 001c 2846     		mov	r0, r5
 1214 001e FFF7FEFF 		bl	strcmp
 1215 0022 0028     		cmp	r0, #0
 1216 0024 5AD0     		beq	.L166
 1217 0026 2846     		mov	r0, r5
 1218 0028 FFF7FEFF 		bl	atoi
 1219 002c B9F1010F 		cmp	r9, #1
 1220 0030 8246     		mov	r10, r0
 1221 0032 03D0     		beq	.L160
 1222 0034 6068     		ldr	r0, [r4, #4]
 1223 0036 FFF7FEFF 		bl	atoi
 1224 003a 8146     		mov	r9, r0
 1225              	.L160:
 1226 003c 0AFB09FA 		mul	r10, r10, r9
 1227 0040 BAF1000F 		cmp	r10, #0
ARM GAS  /tmp/ccLpOfjJ.s 			page 23


 1228 0044 2ED0     		beq	.L157
 1229              	.L159:
 1230 0046 DFF814B1 		ldr	fp, .L175+64
 1231 004a 4FF00008 		mov	r8, #0
 1232              	.L164:
 1233 004e 354C     		ldr	r4, .L175+8
 1234 0050 0025     		movs	r5, #0
 1235              	.L165:
 1236 0052 2046     		mov	r0, r4
 1237 0054 FFF7FEFF 		bl	_ZN5amiro8VCNL402015getAmbientLightEv
 1238 0058 0646     		mov	r6, r0
 1239 005a 2046     		mov	r0, r4
 1240 005c FFF7FEFF 		bl	_ZN5amiro8VCNL402012getProximityEv
 1241 0060 2A46     		mov	r2, r5
 1242 0062 0090     		str	r0, [sp]
 1243 0064 3346     		mov	r3, r6
 1244 0066 3049     		ldr	r1, .L175+12
 1245 0068 3846     		mov	r0, r7
 1246 006a 0135     		adds	r5, r5, #1
 1247 006c FFF7FEFF 		bl	_ZL8chprintfP20BaseSequentialStreamPKcz
 1248 0070 082D     		cmp	r5, #8
 1249 0072 04F52274 		add	r4, r4, #648
 1250 0076 ECD1     		bne	.L165
 1251 0078 3846     		mov	r0, r7
 1252 007a 2C49     		ldr	r1, .L175+16
 1253 007c FFF7FEFF 		bl	_ZL8chprintfP20BaseSequentialStreamPKcz
 1254 0080 2B48     		ldr	r0, .L175+20
 1255 0082 4FF47A73 		mov	r3, #1000
 1256 0086 B0FBF9F0 		udiv	r0, r0, r9
 1257 008a 03FB00F0 		mul	r0, r3, r0
 1258 008e 0138     		subs	r0, r0, #1
 1259 0090 ABFB0030 		umull	r3, r0, fp, r0
 1260 0094 800C     		lsrs	r0, r0, #18
 1261 0096 08F10108 		add	r8, r8, #1
 1262 009a 0130     		adds	r0, r0, #1
 1263 009c FFF7FEFF 		bl	_ZN10chibios_rt10BaseThread5sleepEm
 1264 00a0 D045     		cmp	r8, r10
 1265 00a2 D4D3     		bcc	.L164
 1266              	.L157:
 1267 00a4 03B0     		add	sp, sp, #12
 1268              		@ sp needed
 1269 00a6 BDE8F08F 		pop	{r4, r5, r6, r7, r8, r9, r10, fp, pc}
 1270              	.L174:
 1271 00aa 3846     		mov	r0, r7
 1272 00ac 2149     		ldr	r1, .L175+24
 1273 00ae FFF7FEFF 		bl	_ZL8chprintfP20BaseSequentialStreamPKcz
 1274 00b2 3846     		mov	r0, r7
 1275 00b4 2049     		ldr	r1, .L175+28
 1276 00b6 FFF7FEFF 		bl	_ZL8chprintfP20BaseSequentialStreamPKcz
 1277 00ba 3846     		mov	r0, r7
 1278 00bc 1F49     		ldr	r1, .L175+32
 1279 00be FFF7FEFF 		bl	_ZL8chprintfP20BaseSequentialStreamPKcz
 1280 00c2 3846     		mov	r0, r7
 1281 00c4 1949     		ldr	r1, .L175+16
 1282 00c6 FFF7FEFF 		bl	_ZL8chprintfP20BaseSequentialStreamPKcz
 1283 00ca 2068     		ldr	r0, [r4]
 1284 00cc 1449     		ldr	r1, .L175+4
ARM GAS  /tmp/ccLpOfjJ.s 			page 24


 1285 00ce FFF7FEFF 		bl	strcmp
 1286 00d2 18B1     		cbz	r0, .L166
 1287 00d4 4FF0010A 		mov	r10, #1
 1288 00d8 D146     		mov	r9, r10
 1289 00da B4E7     		b	.L159
 1290              	.L166:
 1291 00dc 184A     		ldr	r2, .L175+36
 1292 00de 1949     		ldr	r1, .L175+40
 1293 00e0 3846     		mov	r0, r7
 1294 00e2 FFF7FEFF 		bl	_ZL8chprintfP20BaseSequentialStreamPKcz
 1295 00e6 3846     		mov	r0, r7
 1296 00e8 1749     		ldr	r1, .L175+44
 1297 00ea FFF7FEFF 		bl	_ZL8chprintfP20BaseSequentialStreamPKcz
 1298 00ee 3846     		mov	r0, r7
 1299 00f0 1649     		ldr	r1, .L175+48
 1300 00f2 FFF7FEFF 		bl	_ZL8chprintfP20BaseSequentialStreamPKcz
 1301 00f6 3846     		mov	r0, r7
 1302 00f8 1549     		ldr	r1, .L175+52
 1303 00fa FFF7FEFF 		bl	_ZL8chprintfP20BaseSequentialStreamPKcz
 1304 00fe 3846     		mov	r0, r7
 1305 0100 1149     		ldr	r1, .L175+44
 1306 0102 FFF7FEFF 		bl	_ZL8chprintfP20BaseSequentialStreamPKcz
 1307 0106 3846     		mov	r0, r7
 1308 0108 1249     		ldr	r1, .L175+56
 1309 010a FFF7FEFF 		bl	_ZL8chprintfP20BaseSequentialStreamPKcz
 1310 010e 1249     		ldr	r1, .L175+60
 1311 0110 3846     		mov	r0, r7
 1312 0112 03B0     		add	sp, sp, #12
 1313              		@ sp needed
 1314 0114 BDE8F04F 		pop	{r4, r5, r6, r7, r8, r9, r10, fp, lr}
 1315 0118 FFF7FEBF 		b	_ZL8chprintfP20BaseSequentialStreamPKcz
 1316              	.L176:
 1317              		.align	2
 1318              	.L175:
 1319 011c E8070000 		.word	.LC82
 1320 0120 18000000 		.word	.LC7
 1321 0124 B01F0000 		.word	.LANCHOR0+8112
 1322 0128 48090000 		.word	.LC92
 1323 012c 78080000 		.word	.LC86
 1324 0130 40420F00 		.word	1000000
 1325 0134 00080000 		.word	.LC83
 1326 0138 24080000 		.word	.LC84
 1327 013c 54080000 		.word	.LC85
 1328 0140 A4080000 		.word	.LC87
 1329 0144 F8030000 		.word	.LC41
 1330 0148 40000000 		.word	.LC10
 1331 014c CC080000 		.word	.LC88
 1332 0150 D8080000 		.word	.LC89
 1333 0154 14090000 		.word	.LC90
 1334 0158 20090000 		.word	.LC91
 1335 015c 83DE1B43 		.word	1125899907
 1336              		.size	_Z21shellRequestPrintVCNLP20BaseSequentialStreamiPPc, .-_Z21shellRequestPrintVCNLP20BaseSequ
 1337              		.section	.text._Z17shellRequestCalibP20BaseSequentialStreamiPPc,"ax",%progbits
 1338              		.align	2
 1339              		.p2align 4,,15
 1340              		.global	_Z17shellRequestCalibP20BaseSequentialStreamiPPc
 1341              		.thumb
ARM GAS  /tmp/ccLpOfjJ.s 			page 25


 1342              		.thumb_func
 1343              		.type	_Z17shellRequestCalibP20BaseSequentialStreamiPPc, %function
 1344              	_Z17shellRequestCalibP20BaseSequentialStreamiPPc:
 1345              		@ args = 0, pretend = 0, frame = 0
 1346              		@ frame_needed = 0, uses_anonymous_args = 0
 1347 0000 08B5     		push	{r3, lr}
 1348 0002 0449     		ldr	r1, .L178
 1349 0004 FFF7FEFF 		bl	_ZL8chprintfP20BaseSequentialStreamPKcz
 1350 0008 0348     		ldr	r0, .L178+4
 1351 000a BDE80840 		pop	{r3, lr}
 1352 000e FFF7FEBF 		b	_ZN5amiro15PowerManagement9calibrateEv
 1353              	.L179:
 1354 0012 00BF     		.align	2
 1355              	.L178:
 1356 0014 70090000 		.word	.LC93
 1357 0018 28370000 		.word	.LANCHOR0+14120
 1358              		.size	_Z17shellRequestCalibP20BaseSequentialStreamiPPc, .-_Z17shellRequestCalibP20BaseSequentialSt
 1359 001c AFF30080 		.section	.text._Z22shellRequestGetRobotIdP20BaseSequentialStreamiPPc,"ax",%progbits
 1360              		.align	2
 1361              		.p2align 4,,15
 1362              		.global	_Z22shellRequestGetRobotIdP20BaseSequentialStreamiPPc
 1363              		.thumb
 1364              		.thumb_func
 1365              		.type	_Z22shellRequestGetRobotIdP20BaseSequentialStreamiPPc, %function
 1366              	_Z22shellRequestGetRobotIdP20BaseSequentialStreamiPPc:
 1367              		@ args = 0, pretend = 0, frame = 0
 1368              		@ frame_needed = 0, uses_anonymous_args = 0
 1369 0000 10B5     		push	{r4, lr}
 1370 0002 0B49     		ldr	r1, .L183
 1371 0004 0446     		mov	r4, r0
 1372 0006 FFF7FEFF 		bl	_ZL8chprintfP20BaseSequentialStreamPKcz
 1373 000a 0A48     		ldr	r0, .L183+4
 1374 000c FFF7FEFF 		bl	_ZN5amiro23ControllerAreaNetworkRx10getRobotIDEv
 1375 0010 0949     		ldr	r1, .L183+8
 1376 0012 0246     		mov	r2, r0
 1377 0014 2046     		mov	r0, r4
 1378 0016 FFF7FEFF 		bl	_ZL8chprintfP20BaseSequentialStreamPKcz
 1379 001a 0648     		ldr	r0, .L183+4
 1380 001c FFF7FEFF 		bl	_ZN5amiro23ControllerAreaNetworkRx10getRobotIDEv
 1381 0020 00B1     		cbz	r0, .L182
 1382 0022 10BD     		pop	{r4, pc}
 1383              	.L182:
 1384 0024 2046     		mov	r0, r4
 1385 0026 0549     		ldr	r1, .L183+12
 1386 0028 BDE81040 		pop	{r4, lr}
 1387 002c FFF7FEBF 		b	_ZL8chprintfP20BaseSequentialStreamPKcz
 1388              	.L184:
 1389              		.align	2
 1390              	.L183:
 1391 0030 84090000 		.word	.LC94
 1392 0034 48390000 		.word	.LANCHOR0+14664
 1393 0038 9C090000 		.word	.LC95
 1394 003c AC090000 		.word	.LC96
 1395              		.size	_Z22shellRequestGetRobotIdP20BaseSequentialStreamiPPc, .-_Z22shellRequestGetRobotIdP20BaseSe
 1396              		.global	__aeabi_f2d
 1397              		.section	.text._Z25shellRequestGetSystemLoadP20BaseSequentialStreamiPPc,"ax",%progbits
 1398              		.align	2
ARM GAS  /tmp/ccLpOfjJ.s 			page 26


 1399              		.p2align 4,,15
 1400              		.global	_Z25shellRequestGetSystemLoadP20BaseSequentialStreamiPPc
 1401              		.thumb
 1402              		.thumb_func
 1403              		.type	_Z25shellRequestGetSystemLoadP20BaseSequentialStreamiPPc, %function
 1404              	_Z25shellRequestGetSystemLoadP20BaseSequentialStreamiPPc:
 1405              		@ args = 0, pretend = 0, frame = 0
 1406              		@ frame_needed = 0, uses_anonymous_args = 0
 1407 0000 F0B5     		push	{r4, r5, r6, r7, lr}
 1408 0002 2DED028B 		fstmfdd	sp!, {d8}
 1409 0006 0D46     		mov	r5, r1
 1410 0008 83B0     		sub	sp, sp, #12
 1411 000a 3149     		ldr	r1, .L190
 1412 000c 1646     		mov	r6, r2
 1413 000e 0446     		mov	r4, r0
 1414 0010 FFF7FEFF 		bl	_ZL8chprintfP20BaseSequentialStreamPKcz
 1415 0014 002D     		cmp	r5, #0
 1416 0016 54DD     		ble	.L189
 1417 0018 3068     		ldr	r0, [r6]
 1418 001a FFF7FEFF 		bl	atoi
 1419 001e 4FF47A76 		mov	r6, #1000
 1420 0022 C2B2     		uxtb	r2, r0
 1421 0024 06FB02F6 		mul	r6, r6, r2
 1422 0028 012A     		cmp	r2, #1
 1423 002a 3746     		mov	r7, r6
 1424 002c 4DD9     		bls	.L186
 1425 002e 294B     		ldr	r3, .L190+4
 1426              	.L188:
 1427 0030 294D     		ldr	r5, .L190+8
 1428 0032 2A49     		ldr	r1, .L190+12
 1429 0034 9FED2A8A 		flds	s16, .L190+16
 1430 0038 2046     		mov	r0, r4
 1431 003a FFF7FEFF 		bl	_ZL8chprintfP20BaseSequentialStreamPKcz
 1432 003e 6B68     		ldr	r3, [r5, #4]
 1433 0040 3846     		mov	r0, r7
 1434 0042 5F6A     		ldr	r7, [r3, #36]
 1435 0044 FFF7FEFF 		bl	_ZN10chibios_rt10BaseThread5sleepEm
 1436 0048 6B68     		ldr	r3, [r5, #4]
 1437 004a 5B6A     		ldr	r3, [r3, #36]
 1438 004c DB1B     		subs	r3, r3, r7
 1439 004e 07EE903A 		fmsr	s15, r3	@ int
 1440 0052 07EE106A 		fmsr	s14, r6	@ int
 1441 0056 F8EE677A 		fuitos	s15, s15
 1442 005a F8EEC76A 		fsitos	s13, s14
 1443 005e B7EE007A 		fconsts	s14, #112
 1444 0062 C7EEA67A 		fdivs	s15, s15, s13
 1445 0066 77EE677A 		fsubs	s15, s14, s15
 1446 006a 67EE887A 		fmuls	s15, s15, s16
 1447 006e 17EE900A 		fmrs	r0, s15
 1448 0072 FFF7FEFF 		bl	__aeabi_f2d
 1449 0076 0246     		mov	r2, r0
 1450 0078 0B46     		mov	r3, r1
 1451 007a 2046     		mov	r0, r4
 1452 007c 1949     		ldr	r1, .L190+20
 1453 007e FFF7FEFF 		bl	_ZL8chprintfP20BaseSequentialStreamPKcz
 1454 0082 FFF7FEFF 		bl	chCoreStatus
 1455 0086 C0F5E035 		rsb	r5, r0, #114688
ARM GAS  /tmp/ccLpOfjJ.s 			page 27


 1456 008a 07EE905A 		fmsr	s15, r5	@ int
 1457 008e B8EE677A 		fuitos	s14, s15
 1458 0092 DFED157A 		flds	s15, .L190+24
 1459 0096 C7EE277A 		fdivs	s15, s14, s15
 1460 009a 67EE887A 		fmuls	s15, s15, s16
 1461 009e 17EE900A 		fmrs	r0, s15
 1462 00a2 FFF7FEFF 		bl	__aeabi_f2d
 1463 00a6 0B46     		mov	r3, r1
 1464 00a8 4FF4E031 		mov	r1, #114688
 1465 00ac 0246     		mov	r2, r0
 1466 00ae 0191     		str	r1, [sp, #4]
 1467 00b0 0095     		str	r5, [sp]
 1468 00b2 2046     		mov	r0, r4
 1469 00b4 0D49     		ldr	r1, .L190+28
 1470 00b6 FFF7FEFF 		bl	_ZL8chprintfP20BaseSequentialStreamPKcz
 1471 00ba 03B0     		add	sp, sp, #12
 1472              		@ sp needed
 1473 00bc BDEC028B 		fldmfdd	sp!, {d8}
 1474 00c0 F0BD     		pop	{r4, r5, r6, r7, pc}
 1475              	.L189:
 1476 00c2 4FF47A77 		mov	r7, #1000
 1477 00c6 3E46     		mov	r6, r7
 1478 00c8 0122     		movs	r2, #1
 1479              	.L186:
 1480 00ca 094B     		ldr	r3, .L190+32
 1481 00cc B0E7     		b	.L188
 1482              	.L191:
 1483 00ce 00BF     		.align	2
 1484              	.L190:
 1485 00d0 100A0000 		.word	.LC99
 1486 00d4 000A0000 		.word	.LC97
 1487 00d8 00000000 		.word	rlist
 1488 00dc 2C0A0000 		.word	.LC100
 1489 00e0 0000C842 		.word	1120403456
 1490 00e4 500A0000 		.word	.LC101
 1491 00e8 0000E047 		.word	1205862400
 1492 00ec 640A0000 		.word	.LC102
 1493 00f0 080A0000 		.word	.LC98
 1494              		.size	_Z25shellRequestGetSystemLoadP20BaseSequentialStreamiPPc, .-_Z25shellRequestGetSystemLoadP20
 1495              		.global	__aeabi_d2f
 1496 00f4 AFF30080 		.section	.text._Z23shellRequestWiiSteeringP20BaseSequentialStreamiPPc,"ax",%progbits
 1496      AFF30080 
 1496      AFF30080 
 1497              		.align	2
 1498              		.p2align 4,,15
 1499              		.global	_Z23shellRequestWiiSteeringP20BaseSequentialStreamiPPc
 1500              		.thumb
 1501              		.thumb_func
 1502              		.type	_Z23shellRequestWiiSteeringP20BaseSequentialStreamiPPc, %function
 1503              	_Z23shellRequestWiiSteeringP20BaseSequentialStreamiPPc:
 1504              		@ args = 0, pretend = 0, frame = 0
 1505              		@ frame_needed = 0, uses_anonymous_args = 0
 1506 0000 70B5     		push	{r4, r5, r6, lr}
 1507 0002 0446     		mov	r4, r0
 1508 0004 2B48     		ldr	r0, .L201
 1509 0006 0D46     		mov	r5, r1
 1510 0008 1646     		mov	r6, r2
ARM GAS  /tmp/ccLpOfjJ.s 			page 28


 1511 000a FFF7FEFF 		bl	_ZNK5amiro10UserThread14getCurrenStateEv
 1512 000e 0228     		cmp	r0, #2
 1513 0010 4AD0     		beq	.L199
 1514 0012 6B1E     		subs	r3, r5, #1
 1515 0014 012B     		cmp	r3, #1
 1516 0016 1ED9     		bls	.L200
 1517              	.L194:
 1518 0018 2046     		mov	r0, r4
 1519 001a 2749     		ldr	r1, .L201+4
 1520 001c FFF7FEFF 		bl	_ZL8chprintfP20BaseSequentialStreamPKcz
 1521 0020 264A     		ldr	r2, .L201+8
 1522 0022 2749     		ldr	r1, .L201+12
 1523 0024 2046     		mov	r0, r4
 1524 0026 FFF7FEFF 		bl	_ZL8chprintfP20BaseSequentialStreamPKcz
 1525 002a 2046     		mov	r0, r4
 1526 002c 2549     		ldr	r1, .L201+16
 1527 002e FFF7FEFF 		bl	_ZL8chprintfP20BaseSequentialStreamPKcz
 1528 0032 2046     		mov	r0, r4
 1529 0034 2449     		ldr	r1, .L201+20
 1530 0036 FFF7FEFF 		bl	_ZL8chprintfP20BaseSequentialStreamPKcz
 1531 003a 2046     		mov	r0, r4
 1532 003c 2349     		ldr	r1, .L201+24
 1533 003e FFF7FEFF 		bl	_ZL8chprintfP20BaseSequentialStreamPKcz
 1534 0042 2046     		mov	r0, r4
 1535 0044 2249     		ldr	r1, .L201+28
 1536 0046 FFF7FEFF 		bl	_ZL8chprintfP20BaseSequentialStreamPKcz
 1537 004a 2046     		mov	r0, r4
 1538 004c 2149     		ldr	r1, .L201+32
 1539 004e BDE87040 		pop	{r4, r5, r6, lr}
 1540 0052 FFF7FEBF 		b	_ZL8chprintfP20BaseSequentialStreamPKcz
 1541              	.L200:
 1542 0056 1748     		ldr	r0, .L201
 1543 0058 3168     		ldr	r1, [r6]
 1544 005a FFF7FEFF 		bl	_ZN5amiro10UserThread13setWiiAddressEPKc
 1545 005e 0028     		cmp	r0, #0
 1546 0060 DAD1     		bne	.L194
 1547 0062 022D     		cmp	r5, #2
 1548 0064 16D0     		beq	.L196
 1549 0066 9FED1C0A 		flds	s0, .L201+36
 1550              	.L197:
 1551 006a 1248     		ldr	r0, .L201
 1552 006c FFF7FEFF 		bl	_ZN5amiro10UserThread14setWiiDeadzoneEf
 1553 0070 DFED1A7A 		flds	s15, .L201+40
 1554 0074 1A49     		ldr	r1, .L201+44
 1555 0076 20EE270A 		fmuls	s0, s0, s15
 1556 007a 2046     		mov	r0, r4
 1557 007c BCEEC00A 		ftouizs	s0, s0
 1558 0080 10EE102A 		fmrs	r2, s0	@ int
 1559 0084 FFF7FEFF 		bl	_ZL8chprintfP20BaseSequentialStreamPKcz
 1560 0088 0A48     		ldr	r0, .L201
 1561 008a 0221     		movs	r1, #2
 1562 008c BDE87040 		pop	{r4, r5, r6, lr}
 1563 0090 FFF7FEBF 		b	_ZN5amiro10UserThread12setNextStateENS0_5StateE
 1564              	.L196:
 1565 0094 7068     		ldr	r0, [r6, #4]
 1566 0096 FFF7FEFF 		bl	atof
 1567 009a 51EC100B 		fmrrd	r0, r1, d0
ARM GAS  /tmp/ccLpOfjJ.s 			page 29


 1568 009e FFF7FEFF 		bl	__aeabi_d2f
 1569 00a2 00EE100A 		fmsr	s0, r0
 1570 00a6 E0E7     		b	.L197
 1571              	.L199:
 1572 00a8 0248     		ldr	r0, .L201
 1573 00aa 0021     		movs	r1, #0
 1574 00ac BDE87040 		pop	{r4, r5, r6, lr}
 1575 00b0 FFF7FEBF 		b	_ZN5amiro10UserThread12setNextStateENS0_5StateE
 1576              	.L202:
 1577              		.align	2
 1578              	.L201:
 1579 00b4 A83B0000 		.word	.LANCHOR0+15272
 1580 00b8 A00A0000 		.word	.LC104
 1581 00bc BC0A0000 		.word	.LC105
 1582 00c0 F8030000 		.word	.LC41
 1583 00c4 40000000 		.word	.LC10
 1584 00c8 E00A0000 		.word	.LC106
 1585 00cc EC0A0000 		.word	.LC107
 1586 00d0 280B0000 		.word	.LC108
 1587 00d4 340B0000 		.word	.LC109
 1588 00d8 CDCCCC3D 		.word	1036831949
 1589 00dc 0000C842 		.word	1120403456
 1590 00e0 880A0000 		.word	.LC103
 1591              		.size	_Z23shellRequestWiiSteeringP20BaseSequentialStreamiPPc, .-_Z23shellRequestWiiSteeringP20Base
 1592 00e4 AFF30080 		.section	.text._ZN5amiro7PCA9544ILb1EED2Ev,"axG",%progbits,_ZN5amiro7PCA9544ILb1EED5Ev,comdat
 1592      AFF30080 
 1592      AFF30080 
 1593              		.align	2
 1594              		.p2align 4,,15
 1595              		.weak	_ZN5amiro7PCA9544ILb1EED2Ev
 1596              		.thumb
 1597              		.thumb_func
 1598              		.type	_ZN5amiro7PCA9544ILb1EED2Ev, %function
 1599              	_ZN5amiro7PCA9544ILb1EED2Ev:
 1600              		@ args = 0, pretend = 0, frame = 0
 1601              		@ frame_needed = 0, uses_anonymous_args = 0
 1602 0000 10B5     		push	{r4, lr}
 1603 0002 034B     		ldr	r3, .L204
 1604 0004 0360     		str	r3, [r0]
 1605 0006 0446     		mov	r4, r0
 1606 0008 FFF7FEFF 		bl	_ZN5amiro14I2CMultiplexerD2Ev
 1607 000c 2046     		mov	r0, r4
 1608 000e 10BD     		pop	{r4, pc}
 1609              	.L205:
 1610              		.align	2
 1611              	.L204:
 1612 0010 08000000 		.word	_ZTVN5amiro7PCA9544ILb1EEE+8
 1613              		.size	_ZN5amiro7PCA9544ILb1EED2Ev, .-_ZN5amiro7PCA9544ILb1EED2Ev
 1614              		.weak	_ZN5amiro7PCA9544ILb1EED1Ev
 1615              		.thumb_set _ZN5amiro7PCA9544ILb1EED1Ev,_ZN5amiro7PCA9544ILb1EED2Ev
 1616 0014 AFF30080 		.section	.text._ZN5amiro7PCA9544ILb1EED0Ev,"axG",%progbits,_ZN5amiro7PCA9544ILb1EED0Ev,comdat
 1616      AFF30080 
 1616      AFF30080 
 1617              		.align	2
 1618              		.p2align 4,,15
 1619              		.weak	_ZN5amiro7PCA9544ILb1EED0Ev
 1620              		.thumb
ARM GAS  /tmp/ccLpOfjJ.s 			page 30


 1621              		.thumb_func
 1622              		.type	_ZN5amiro7PCA9544ILb1EED0Ev, %function
 1623              	_ZN5amiro7PCA9544ILb1EED0Ev:
 1624              		@ args = 0, pretend = 0, frame = 0
 1625              		@ frame_needed = 0, uses_anonymous_args = 0
 1626 0000 10B5     		push	{r4, lr}
 1627 0002 054B     		ldr	r3, .L207
 1628 0004 0360     		str	r3, [r0]
 1629 0006 0446     		mov	r4, r0
 1630 0008 FFF7FEFF 		bl	_ZN5amiro14I2CMultiplexerD2Ev
 1631 000c 2046     		mov	r0, r4
 1632 000e FFF7FEFF 		bl	_ZdlPv
 1633 0012 2046     		mov	r0, r4
 1634 0014 10BD     		pop	{r4, pc}
 1635              	.L208:
 1636 0016 00BF     		.align	2
 1637              	.L207:
 1638 0018 08000000 		.word	_ZTVN5amiro7PCA9544ILb1EEE+8
 1639              		.size	_ZN5amiro7PCA9544ILb1EED0Ev, .-_ZN5amiro7PCA9544ILb1EED0Ev
 1640 001c AFF30080 		.section	.text._ZN5amiro7PCA9544ILb1EE6selectEh,"axG",%progbits,_ZN5amiro7PCA9544ILb1EE6selectEh,c
 1641              		.align	2
 1642              		.p2align 4,,15
 1643              		.weak	_ZN5amiro7PCA9544ILb1EE6selectEh
 1644              		.thumb
 1645              		.thumb_func
 1646              		.type	_ZN5amiro7PCA9544ILb1EE6selectEh, %function
 1647              	_ZN5amiro7PCA9544ILb1EE6selectEh:
 1648              		@ args = 0, pretend = 0, frame = 8
 1649              		@ frame_needed = 0, uses_anonymous_args = 0
 1650 0000 30B5     		push	{r4, r5, lr}
 1651 0002 0329     		cmp	r1, #3
 1652 0004 83B0     		sub	sp, sp, #12
 1653 0006 0D46     		mov	r5, r1
 1654 0008 0446     		mov	r4, r0
 1655 000a 1DD8     		bhi	.L213
 1656              	.L210:
 1657 000c 94F83C30 		ldrb	r3, [r4, #60]	@ zero_extendqisi2
 1658 0010 45F00402 		orr	r2, r5, #4
 1659 0014 AB42     		cmp	r3, r5
 1660 0016 8DF80720 		strb	r2, [sp, #7]
 1661 001a 12D0     		beq	.L212
 1662 001c 2146     		mov	r1, r4
 1663 001e 0DF10702 		add	r2, sp, #7
 1664 0022 51F81C3B 		ldr	r3, [r1], #28
 1665 0026 2262     		str	r2, [r4, #32]
 1666 0028 84F83C50 		strb	r5, [r4, #60]
 1667 002c 0120     		movs	r0, #1
 1668 002e 0022     		movs	r2, #0
 1669 0030 DB68     		ldr	r3, [r3, #12]
 1670 0032 6062     		str	r0, [r4, #36]
 1671 0034 E262     		str	r2, [r4, #44]
 1672 0036 2046     		mov	r0, r4
 1673 0038 4FF0FF32 		mov	r2, #-1
 1674 003c 9847     		blx	r3
 1675 003e 03B0     		add	sp, sp, #12
 1676              		@ sp needed
 1677 0040 30BD     		pop	{r4, r5, pc}
ARM GAS  /tmp/ccLpOfjJ.s 			page 31


 1678              	.L212:
 1679 0042 0020     		movs	r0, #0
 1680 0044 03B0     		add	sp, sp, #12
 1681              		@ sp needed
 1682 0046 30BD     		pop	{r4, r5, pc}
 1683              	.L213:
 1684 0048 0148     		ldr	r0, .L214
 1685 004a FFF7FEFF 		bl	chDbgPanic
 1686 004e DDE7     		b	.L210
 1687              	.L215:
 1688              		.align	2
 1689              	.L214:
 1690 0050 740B0000 		.word	.LC110
 1691              		.size	_ZN5amiro7PCA9544ILb1EE6selectEh, .-_ZN5amiro7PCA9544ILb1EE6selectEh
 1692 0054 AFF30080 		.section	.text._Z29shellRequestGetBootloaderInfoP20BaseSequentialStreamiPPc,"ax",%progbits
 1692      AFF30080 
 1692      AFF30080 
 1693              		.align	2
 1694              		.p2align 4,,15
 1695              		.global	_Z29shellRequestGetBootloaderInfoP20BaseSequentialStreamiPPc
 1696              		.thumb
 1697              		.thumb_func
 1698              		.type	_Z29shellRequestGetBootloaderInfoP20BaseSequentialStreamiPPc, %function
 1699              	_Z29shellRequestGetBootloaderInfoP20BaseSequentialStreamiPPc:
 1700              		@ args = 0, pretend = 0, frame = 0
 1701              		@ frame_needed = 0, uses_anonymous_args = 0
 1702 0000 00B5     		push	{lr}
 1703 0002 134B     		ldr	r3, .L223
 1704 0004 134A     		ldr	r2, .L223+4
 1705 0006 1B68     		ldr	r3, [r3]
 1706 0008 9342     		cmp	r3, r2
 1707 000a 83B0     		sub	sp, sp, #12
 1708 000c 14D0     		beq	.L218
 1709 000e 124A     		ldr	r2, .L223+8
 1710 0010 9342     		cmp	r3, r2
 1711 0012 0AD1     		bne	.L222
 1712 0014 114B     		ldr	r3, .L223+12
 1713 0016 1248     		ldr	r0, .L223+16
 1714 0018 1A68     		ldr	r2, [r3]
 1715 001a 0092     		str	r2, [sp]
 1716 001c 1346     		mov	r3, r2
 1717 001e 1149     		ldr	r1, .L223+20
 1718 0020 FFF7FEFF 		bl	_ZL8chprintfP20BaseSequentialStreamPKcz
 1719 0024 03B0     		add	sp, sp, #12
 1720              		@ sp needed
 1721 0026 5DF804FB 		ldr	pc, [sp], #4
 1722              	.L222:
 1723 002a 0D48     		ldr	r0, .L223+16
 1724 002c 0E49     		ldr	r1, .L223+24
 1725 002e 03B0     		add	sp, sp, #12
 1726              		@ sp needed
 1727 0030 5DF804EB 		ldr	lr, [sp], #4
 1728 0034 FFF7FEBF 		b	_ZL8chprintfP20BaseSequentialStreamPKcz
 1729              	.L218:
 1730 0038 0849     		ldr	r1, .L223+12
 1731 003a 0948     		ldr	r0, .L223+16
 1732 003c 4A78     		ldrb	r2, [r1, #1]	@ zero_extendqisi2
ARM GAS  /tmp/ccLpOfjJ.s 			page 32


 1733 003e 8B78     		ldrb	r3, [r1, #2]	@ zero_extendqisi2
 1734 0040 C978     		ldrb	r1, [r1, #3]	@ zero_extendqisi2
 1735 0042 0091     		str	r1, [sp]
 1736 0044 0749     		ldr	r1, .L223+20
 1737 0046 FFF7FEFF 		bl	_ZL8chprintfP20BaseSequentialStreamPKcz
 1738 004a 03B0     		add	sp, sp, #12
 1739              		@ sp needed
 1740 004c 5DF804FB 		ldr	pc, [sp], #4
 1741              	.L224:
 1742              		.align	2
 1743              	.L223:
 1744 0050 C0010008 		.word	134218176
 1745 0054 4C422D41 		.word	1093485132
 1746 0058 009966FF 		.word	-10053376
 1747 005c C4010008 		.word	134218180
 1748 0060 00000000 		.word	SD1
 1749 0064 900B0000 		.word	.LC111
 1750 0068 A80B0000 		.word	.LC112
 1751              		.size	_Z29shellRequestGetBootloaderInfoP20BaseSequentialStreamiPPc, .-_Z29shellRequestGetBootloade
 1752 006c AFF30080 		.section	.text._Z22shellRequestSetBoardIdP20BaseSequentialStreamiPPc,"ax",%progbits
 1753              		.align	2
 1754              		.p2align 4,,15
 1755              		.global	_Z22shellRequestSetBoardIdP20BaseSequentialStreamiPPc
 1756              		.thumb
 1757              		.thumb_func
 1758              		.type	_Z22shellRequestSetBoardIdP20BaseSequentialStreamiPPc, %function
 1759              	_Z22shellRequestSetBoardIdP20BaseSequentialStreamiPPc:
 1760              		@ args = 0, pretend = 0, frame = 0
 1761              		@ frame_needed = 0, uses_anonymous_args = 0
 1762 0000 70B5     		push	{r4, r5, r6, lr}
 1763 0002 0C46     		mov	r4, r1
 1764 0004 1049     		ldr	r1, .L230
 1765 0006 1646     		mov	r6, r2
 1766 0008 0546     		mov	r5, r0
 1767 000a FFF7FEFF 		bl	_ZL8chprintfP20BaseSequentialStreamPKcz
 1768 000e 9CB1     		cbz	r4, .L228
 1769 0010 3068     		ldr	r0, [r6]
 1770 0012 FFF7FEFF 		bl	atoi
 1771 0016 C1B2     		uxtb	r1, r0
 1772 0018 0C48     		ldr	r0, .L230+4
 1773 001a FFF7FEFF 		bl	_ZN5amiro12fileSystemIo16FileSystemIoBase10setBoardIdEh
 1774 001e 28B9     		cbnz	r0, .L229
 1775 0020 2846     		mov	r0, r5
 1776 0022 0B49     		ldr	r1, .L230+8
 1777 0024 BDE87040 		pop	{r4, r5, r6, lr}
 1778 0028 FFF7FEBF 		b	_ZL8chprintfP20BaseSequentialStreamPKcz
 1779              	.L229:
 1780 002c 2846     		mov	r0, r5
 1781 002e 0949     		ldr	r1, .L230+12
 1782 0030 BDE87040 		pop	{r4, r5, r6, lr}
 1783 0034 FFF7FEBF 		b	_ZL8chprintfP20BaseSequentialStreamPKcz
 1784              	.L228:
 1785 0038 2846     		mov	r0, r5
 1786 003a 0749     		ldr	r1, .L230+16
 1787 003c 074A     		ldr	r2, .L230+20
 1788 003e BDE87040 		pop	{r4, r5, r6, lr}
 1789 0042 FFF7FEBF 		b	_ZL8chprintfP20BaseSequentialStreamPKcz
ARM GAS  /tmp/ccLpOfjJ.s 			page 33


 1790              	.L231:
 1791 0046 00BF     		.align	2
 1792              	.L230:
 1793 0048 C40B0000 		.word	.LC113
 1794 004c 7C030000 		.word	.LANCHOR0+892
 1795 0050 040C0000 		.word	.LC116
 1796 0054 F00B0000 		.word	.LC115
 1797 0058 F8030000 		.word	.LC41
 1798 005c DC0B0000 		.word	.LC114
 1799              		.size	_Z22shellRequestSetBoardIdP20BaseSequentialStreamiPPc, .-_Z22shellRequestSetBoardIdP20BaseSe
 1800              		.section	.text._Z23shellRequestSetChargingP20BaseSequentialStreamiPPc,"ax",%progbits
 1801              		.align	2
 1802              		.p2align 4,,15
 1803              		.global	_Z23shellRequestSetChargingP20BaseSequentialStreamiPPc
 1804              		.thumb
 1805              		.thumb_func
 1806              		.type	_Z23shellRequestSetChargingP20BaseSequentialStreamiPPc, %function
 1807              	_Z23shellRequestSetChargingP20BaseSequentialStreamiPPc:
 1808              		@ args = 0, pretend = 0, frame = 0
 1809              		@ frame_needed = 0, uses_anonymous_args = 0
 1810 0000 70B5     		push	{r4, r5, r6, lr}
 1811 0002 0D46     		mov	r5, r1
 1812 0004 1A49     		ldr	r1, .L237
 1813 0006 1646     		mov	r6, r2
 1814 0008 0446     		mov	r4, r0
 1815 000a FFF7FEFF 		bl	_ZL8chprintfP20BaseSequentialStreamPKcz
 1816 000e 002D     		cmp	r5, #0
 1817 0010 16DD     		ble	.L236
 1818 0012 3068     		ldr	r0, [r6]
 1819 0014 FFF7FEFF 		bl	atoi
 1820 0018 164B     		ldr	r3, .L237+4
 1821 001a 174A     		ldr	r2, .L237+8
 1822 001c 1749     		ldr	r1, .L237+12
 1823 001e 051C     		adds	r5, r0, #0
 1824 0020 18BF     		it	ne
 1825 0022 0125     		movne	r5, #1
 1826 0024 002D     		cmp	r5, #0
 1827 0026 18BF     		it	ne
 1828 0028 1A46     		movne	r2, r3
 1829 002a 2046     		mov	r0, r4
 1830 002c FFF7FEFF 		bl	_ZL8chprintfP20BaseSequentialStreamPKcz
 1831 0030 1348     		ldr	r0, .L237+16
 1832 0032 FFF7FEFF 		bl	_ZN5amiro15PowerManagement14getPowerStatusEv
 1833 0036 0378     		ldrb	r3, [r0]	@ zero_extendqisi2
 1834 0038 65F38203 		bfi	r3, r5, #2, #1
 1835 003c 0370     		strb	r3, [r0]
 1836 003e 70BD     		pop	{r4, r5, r6, pc}
 1837              	.L236:
 1838 0040 104A     		ldr	r2, .L237+20
 1839 0042 1149     		ldr	r1, .L237+24
 1840 0044 2046     		mov	r0, r4
 1841 0046 FFF7FEFF 		bl	_ZL8chprintfP20BaseSequentialStreamPKcz
 1842 004a 2046     		mov	r0, r4
 1843 004c 0F49     		ldr	r1, .L237+28
 1844 004e FFF7FEFF 		bl	_ZL8chprintfP20BaseSequentialStreamPKcz
 1845 0052 2046     		mov	r0, r4
 1846 0054 0E49     		ldr	r1, .L237+32
ARM GAS  /tmp/ccLpOfjJ.s 			page 34


 1847 0056 FFF7FEFF 		bl	_ZL8chprintfP20BaseSequentialStreamPKcz
 1848 005a 2046     		mov	r0, r4
 1849 005c 0D49     		ldr	r1, .L237+36
 1850 005e FFF7FEFF 		bl	_ZL8chprintfP20BaseSequentialStreamPKcz
 1851 0062 2046     		mov	r0, r4
 1852 0064 0949     		ldr	r1, .L237+28
 1853 0066 BDE87040 		pop	{r4, r5, r6, lr}
 1854 006a FFF7FEBF 		b	_ZL8chprintfP20BaseSequentialStreamPKcz
 1855              	.L238:
 1856 006e 00BF     		.align	2
 1857              	.L237:
 1858 0070 300C0000 		.word	.LC119
 1859 0074 180C0000 		.word	.LC117
 1860 0078 240C0000 		.word	.LC118
 1861 007c D00C0000 		.word	.LC123
 1862 0080 28370000 		.word	.LANCHOR0+14120
 1863 0084 4C0C0000 		.word	.LC120
 1864 0088 F8030000 		.word	.LC41
 1865 008c 40000000 		.word	.LC10
 1866 0090 640C0000 		.word	.LC121
 1867 0094 700C0000 		.word	.LC122
 1868              		.size	_Z23shellRequestSetChargingP20BaseSequentialStreamiPPc, .-_Z23shellRequestSetChargingP20Base
 1869 0098 AFF30080 		.section	.text._Z19shellSwitchBoardCmdP20BaseSequentialStreamiPPc,"ax",%progbits
 1869      AFF30080 
 1870              		.align	2
 1871              		.p2align 4,,15
 1872              		.global	_Z19shellSwitchBoardCmdP20BaseSequentialStreamiPPc
 1873              		.thumb
 1874              		.thumb_func
 1875              		.type	_Z19shellSwitchBoardCmdP20BaseSequentialStreamiPPc, %function
 1876              	_Z19shellSwitchBoardCmdP20BaseSequentialStreamiPPc:
 1877              		@ args = 0, pretend = 0, frame = 0
 1878              		@ frame_needed = 0, uses_anonymous_args = 0
 1879 0000 0129     		cmp	r1, #1
 1880 0002 38B5     		push	{r3, r4, r5, lr}
 1881 0004 0446     		mov	r4, r0
 1882 0006 04D0     		beq	.L240
 1883 0008 0949     		ldr	r1, .L241
 1884 000a BDE83840 		pop	{r3, r4, r5, lr}
 1885 000e FFF7FEBF 		b	_ZL8chprintfP20BaseSequentialStreamPKcz
 1886              	.L240:
 1887 0012 1068     		ldr	r0, [r2]
 1888 0014 FFF7FEFF 		bl	atoi
 1889 0018 0649     		ldr	r1, .L241+4
 1890 001a 0546     		mov	r5, r0
 1891 001c 2046     		mov	r0, r4
 1892 001e FFF7FEFF 		bl	_ZL8chprintfP20BaseSequentialStreamPKcz
 1893 0022 E9B2     		uxtb	r1, r5
 1894 0024 0448     		ldr	r0, .L241+8
 1895 0026 BDE83840 		pop	{r3, r4, r5, lr}
 1896 002a FFF7FEBF 		b	_ZN5amiro12SerialCanMux13sendSwitchCmdEh
 1897              	.L242:
 1898 002e 00BF     		.align	2
 1899              	.L241:
 1900 0030 EC0C0000 		.word	.LC124
 1901 0034 1C0D0000 		.word	.LC125
 1902 0038 F0360000 		.word	.LANCHOR0+14064
ARM GAS  /tmp/ccLpOfjJ.s 			page 35


 1903              		.size	_Z19shellSwitchBoardCmdP20BaseSequentialStreamiPPc, .-_Z19shellSwitchBoardCmdP20BaseSequenti
 1904 003c AFF30080 		.section	.text._Z25shellRequestSetVcnlOffsetP20BaseSequentialStreamiPPc,"ax",%progbits
 1905              		.align	2
 1906              		.p2align 4,,15
 1907              		.global	_Z25shellRequestSetVcnlOffsetP20BaseSequentialStreamiPPc
 1908              		.thumb
 1909              		.thumb_func
 1910              		.type	_Z25shellRequestSetVcnlOffsetP20BaseSequentialStreamiPPc, %function
 1911              	_Z25shellRequestSetVcnlOffsetP20BaseSequentialStreamiPPc:
 1912              		@ args = 0, pretend = 0, frame = 0
 1913              		@ frame_needed = 0, uses_anonymous_args = 0
 1914 0000 F8B5     		push	{r3, r4, r5, r6, r7, lr}
 1915 0002 0C46     		mov	r4, r1
 1916 0004 1E49     		ldr	r1, .L249
 1917 0006 1646     		mov	r6, r2
 1918 0008 0546     		mov	r5, r0
 1919 000a FFF7FEFF 		bl	_ZL8chprintfP20BaseSequentialStreamPKcz
 1920 000e 022C     		cmp	r4, #2
 1921 0010 06D0     		beq	.L244
 1922 0012 2846     		mov	r0, r5
 1923 0014 1B49     		ldr	r1, .L249+4
 1924 0016 1C4A     		ldr	r2, .L249+8
 1925 0018 BDE8F840 		pop	{r3, r4, r5, r6, r7, lr}
 1926 001c FFF7FEBF 		b	_ZL8chprintfP20BaseSequentialStreamPKcz
 1927              	.L244:
 1928 0020 3068     		ldr	r0, [r6]
 1929 0022 FFF7FEFF 		bl	atoi
 1930 0026 C4B2     		uxtb	r4, r0
 1931 0028 7068     		ldr	r0, [r6, #4]
 1932 002a FFF7FEFF 		bl	atoi
 1933 002e 072C     		cmp	r4, #7
 1934 0030 1ED8     		bhi	.L247
 1935 0032 164F     		ldr	r7, .L249+12
 1936 0034 86B2     		uxth	r6, r0
 1937 0036 3146     		mov	r1, r6
 1938 0038 07F55F70 		add	r0, r7, #892
 1939 003c 2246     		mov	r2, r4
 1940 003e FFF7FEFF 		bl	_ZN5amiro12fileSystemIo19FSIOPowerManagement17setVcnl4020OffsetEth
 1941 0042 78B9     		cbnz	r0, .L248
 1942 0044 2846     		mov	r0, r5
 1943 0046 1249     		ldr	r1, .L249+16
 1944 0048 FFF7FEFF 		bl	_ZL8chprintfP20BaseSequentialStreamPKcz
 1945 004c 4FF42273 		mov	r3, #648
 1946 0050 03FB0470 		mla	r0, r3, r4, r7
 1947 0054 00F5FD50 		add	r0, r0, #8096
 1948 0058 3146     		mov	r1, r6
 1949 005a 1030     		adds	r0, r0, #16
 1950 005c BDE8F840 		pop	{r3, r4, r5, r6, r7, lr}
 1951 0060 FFF7FEBF 		b	_ZN5amiro8VCNL402018setProximityOffsetEt
 1952              	.L248:
 1953 0064 2846     		mov	r0, r5
 1954 0066 0B49     		ldr	r1, .L249+20
 1955 0068 BDE8F840 		pop	{r3, r4, r5, r6, r7, lr}
 1956 006c FFF7FEBF 		b	_ZL8chprintfP20BaseSequentialStreamPKcz
 1957              	.L247:
 1958 0070 0948     		ldr	r0, .L249+24
 1959 0072 0A49     		ldr	r1, .L249+28
ARM GAS  /tmp/ccLpOfjJ.s 			page 36


 1960 0074 0722     		movs	r2, #7
 1961 0076 BDE8F840 		pop	{r3, r4, r5, r6, r7, lr}
 1962 007a FFF7FEBF 		b	_ZL8chprintfP20BaseSequentialStreamPKcz
 1963              	.L250:
 1964 007e 00BF     		.align	2
 1965              	.L249:
 1966 0080 340D0000 		.word	.LC126
 1967 0084 F8030000 		.word	.LC41
 1968 0088 500D0000 		.word	.LC127
 1969 008c 00000000 		.word	.LANCHOR0
 1970 0090 7C0D0000 		.word	.LC129
 1971 0094 680D0000 		.word	.LC128
 1972 0098 00000000 		.word	SD1
 1973 009c 94070000 		.word	.LC79
 1974              		.size	_Z25shellRequestSetVcnlOffsetP20BaseSequentialStreamiPPc, .-_Z25shellRequestSetVcnlOffsetP20
 1975              		.section	.text._Z19shellRequestGetVcnlP20BaseSequentialStreamiPPc,"ax",%progbits
 1976              		.align	2
 1977              		.p2align 4,,15
 1978              		.global	_Z19shellRequestGetVcnlP20BaseSequentialStreamiPPc
 1979              		.thumb
 1980              		.thumb_func
 1981              		.type	_Z19shellRequestGetVcnlP20BaseSequentialStreamiPPc, %function
 1982              	_Z19shellRequestGetVcnlP20BaseSequentialStreamiPPc:
 1983              		@ args = 0, pretend = 0, frame = 0
 1984              		@ frame_needed = 0, uses_anonymous_args = 0
 1985 0000 2DE9F047 		push	{r4, r5, r6, r7, r8, r9, r10, lr}
 1986 0004 0C46     		mov	r4, r1
 1987 0006 82B0     		sub	sp, sp, #8
 1988 0008 2149     		ldr	r1, .L258
 1989 000a 9246     		mov	r10, r2
 1990 000c 8046     		mov	r8, r0
 1991 000e FFF7FEFF 		bl	_ZL8chprintfP20BaseSequentialStreamPKcz
 1992 0012 012C     		cmp	r4, #1
 1993 0014 33D1     		bne	.L252
 1994 0016 DAF80000 		ldr	r0, [r10]
 1995 001a FFF7FEFF 		bl	atoi
 1996 001e 4FF00009 		mov	r9, #0
 1997 0022 8145     		cmp	r9, r0
 1998 0024 28DA     		bge	.L251
 1999              	.L257:
 2000 0026 1B4C     		ldr	r4, .L258+4
 2001 0028 0025     		movs	r5, #0
 2002              	.L256:
 2003 002a 2046     		mov	r0, r4
 2004 002c FFF7FEFF 		bl	_ZN5amiro8VCNL402015getAmbientLightEv
 2005 0030 0746     		mov	r7, r0
 2006 0032 2046     		mov	r0, r4
 2007 0034 FFF7FEFF 		bl	_ZN5amiro8VCNL402012getProximityEv
 2008 0038 0646     		mov	r6, r0
 2009 003a 2046     		mov	r0, r4
 2010 003c FFF7FEFF 		bl	_ZN5amiro8VCNL402026getProximityScaledWoOffsetEv
 2011 0040 2A46     		mov	r2, r5
 2012 0042 0190     		str	r0, [sp, #4]
 2013 0044 0096     		str	r6, [sp]
 2014 0046 3B46     		mov	r3, r7
 2015 0048 4046     		mov	r0, r8
 2016 004a 1349     		ldr	r1, .L258+8
ARM GAS  /tmp/ccLpOfjJ.s 			page 37


 2017 004c 0135     		adds	r5, r5, #1
 2018 004e FFF7FEFF 		bl	_ZL8chprintfP20BaseSequentialStreamPKcz
 2019 0052 082D     		cmp	r5, #8
 2020 0054 04F52274 		add	r4, r4, #648
 2021 0058 E7D1     		bne	.L256
 2022 005a 1049     		ldr	r1, .L258+12
 2023 005c 4046     		mov	r0, r8
 2024 005e FFF7FEFF 		bl	_ZL8chprintfP20BaseSequentialStreamPKcz
 2025 0062 FA20     		movs	r0, #250
 2026 0064 FFF7FEFF 		bl	_ZN10chibios_rt10BaseThread5sleepEm
 2027 0068 DAF80000 		ldr	r0, [r10]
 2028 006c FFF7FEFF 		bl	atoi
 2029 0070 09F10109 		add	r9, r9, #1
 2030 0074 8145     		cmp	r9, r0
 2031 0076 D6DB     		blt	.L257
 2032              	.L251:
 2033 0078 02B0     		add	sp, sp, #8
 2034              		@ sp needed
 2035 007a BDE8F087 		pop	{r4, r5, r6, r7, r8, r9, r10, pc}
 2036              	.L252:
 2037 007e 0849     		ldr	r1, .L258+16
 2038 0080 084A     		ldr	r2, .L258+20
 2039 0082 4046     		mov	r0, r8
 2040 0084 02B0     		add	sp, sp, #8
 2041              		@ sp needed
 2042 0086 BDE8F047 		pop	{r4, r5, r6, r7, r8, r9, r10, lr}
 2043 008a FFF7FEBF 		b	_ZL8chprintfP20BaseSequentialStreamPKcz
 2044              	.L259:
 2045 008e 00BF     		.align	2
 2046              	.L258:
 2047 0090 8C0D0000 		.word	.LC130
 2048 0094 B01F0000 		.word	.LANCHOR0+8112
 2049 0098 A40D0000 		.word	.LC131
 2050 009c CC0D0000 		.word	.LC132
 2051 00a0 F8030000 		.word	.LC41
 2052 00a4 D00D0000 		.word	.LC133
 2053              		.size	_Z19shellRequestGetVcnlP20BaseSequentialStreamiPPc, .-_Z19shellRequestGetVcnlP20BaseSequenti
 2054 00a8 AFF30080 		.section	.text._ZN5amiro6GlobalC2Ev,"axG",%progbits,_ZN5amiro6GlobalC5Ev,comdat
 2054      AFF30080 
 2055              		.align	2
 2056              		.p2align 4,,15
 2057              		.weak	_ZN5amiro6GlobalC2Ev
 2058              		.thumb
 2059              		.thumb_func
 2060              		.type	_ZN5amiro6GlobalC2Ev, %function
 2061              	_ZN5amiro6GlobalC2Ev:
 2062              		@ args = 0, pretend = 0, frame = 16
 2063              		@ frame_needed = 0, uses_anonymous_args = 0
 2064 0000 2DE9F04F 		push	{r4, r5, r6, r7, r8, r9, r10, fp, lr}
 2065 0004 DFF8CCE3 		ldr	lr, .L261+52
 2066 0008 7546     		mov	r5, lr
 2067 000a 8346     		mov	fp, r0
 2068 000c 0FCD     		ldmia	r5!, {r0, r1, r2, r3}
 2069 000e 0027     		movs	r7, #0
 2070 0010 4FF4E136 		mov	r6, #115200
 2071 0014 0BF10C04 		add	r4, fp, #12
 2072 0018 CBF80060 		str	r6, [fp]
ARM GAS  /tmp/ccLpOfjJ.s 			page 38


 2073 001c ABF80470 		strh	r7, [fp, #4]	@ movhi
 2074 0020 ABF80670 		strh	r7, [fp, #6]	@ movhi
 2075 0024 ABF80870 		strh	r7, [fp, #8]	@ movhi
 2076 0028 0FC4     		stmia	r4!, {r0, r1, r2, r3}
 2077 002a 0FCD     		ldmia	r5!, {r0, r1, r2, r3}
 2078 002c 0FC4     		stmia	r4!, {r0, r1, r2, r3}
 2079 002e 0FCD     		ldmia	r5!, {r0, r1, r2, r3}
 2080 0030 0FC4     		stmia	r4!, {r0, r1, r2, r3}
 2081 0032 0EF13406 		add	r6, lr, #52
 2082 0036 96E80700 		ldmia	r6, {r0, r1, r2}
 2083 003a 2B68     		ldr	r3, [r5]
 2084 003c 2360     		str	r3, [r4]
 2085 003e 0BF14003 		add	r3, fp, #64
 2086 0042 83E80700 		stmia	r3, {r0, r1, r2}
 2087 0046 0BF14C03 		add	r3, fp, #76
 2088 004a 0EF14405 		add	r5, lr, #68
 2089 004e 83E80700 		stmia	r3, {r0, r1, r2}
 2090 0052 DEF84000 		ldr	r0, [lr, #64]	@ unaligned
 2091 0056 CBF85800 		str	r0, [fp, #88]	@ unaligned
 2092 005a 0FCD     		ldmia	r5!, {r0, r1, r2, r3}
 2093 005c 0BF16004 		add	r4, fp, #96
 2094 0060 0FC4     		stmia	r4!, {r0, r1, r2, r3}
 2095 0062 0FCD     		ldmia	r5!, {r0, r1, r2, r3}
 2096 0064 0FC4     		stmia	r4!, {r0, r1, r2, r3}
 2097 0066 95E80700 		ldmia	r5, {r0, r1, r2}
 2098 006a 87B0     		sub	sp, sp, #28
 2099 006c 84E80700 		stmia	r4, {r0, r1, r2}
 2100 0070 CB4B     		ldr	r3, .L261
 2101 0072 CC49     		ldr	r1, .L261+4
 2102 0074 0BF54C74 		add	r4, fp, #816
 2103 0078 0BF16002 		add	r2, fp, #96
 2104 007c 0BF19000 		add	r0, fp, #144
 2105 0080 FFF7FEFF 		bl	_ZN5amiro11ADConverterC1ER9ADCDriverR18ADCConversionGroupm
 2106 0084 0BF54E76 		add	r6, fp, #824
 2107 0088 2046     		mov	r0, r4
 2108 008a C749     		ldr	r1, .L261+8
 2109 008c FFF7FEFF 		bl	_ZN5amiro11HWI2CDriverC1EP9I2CDriver
 2110 0090 0BF55078 		add	r8, fp, #832
 2111 0094 3046     		mov	r0, r6
 2112 0096 C549     		ldr	r1, .L261+12
 2113 0098 FFF7FEFF 		bl	_ZN5amiro11HWI2CDriverC1EP9I2CDriver
 2114 009c 0096     		str	r6, [sp]
 2115 009e 4046     		mov	r0, r8
 2116 00a0 8021     		movs	r1, #128
 2117 00a2 0822     		movs	r2, #8
 2118 00a4 4FF4FA73 		mov	r3, #500
 2119 00a8 FFF7FEFF 		bl	_ZN5amiro4AT24C1EjhtPNS_9I2CDriverE
 2120 00ac 0125     		movs	r5, #1
 2121 00ae C04B     		ldr	r3, .L261+16
 2122 00b0 CBF87C83 		str	r8, [fp, #892]
 2123 00b4 4FF00208 		mov	r8, #2
 2124 00b8 CBF88433 		str	r3, [fp, #900]
 2125 00bc 3146     		mov	r1, r6
 2126 00be 8BF88053 		strb	r5, [fp, #896]
 2127 00c2 8BF88253 		strb	r5, [fp, #898]
 2128 00c6 8BF88353 		strb	r5, [fp, #899]
 2129 00ca 8BF88183 		strb	r8, [fp, #897]
ARM GAS  /tmp/ccLpOfjJ.s 			page 39


 2130 00ce 0BF56270 		add	r0, fp, #904
 2131 00d2 4522     		movs	r2, #69
 2132 00d4 FFF7FEFF 		bl	_ZN5amiro6INA2196DriverC1ERNS_9I2CDriverEh
 2133 00d8 2146     		mov	r1, r4
 2134 00da 0BF5C260 		add	r0, fp, #1552
 2135 00de 4422     		movs	r2, #68
 2136 00e0 FFF7FEFF 		bl	_ZN5amiro6INA2196DriverC1ERNS_9I2CDriverEh
 2137 00e4 2146     		mov	r1, r4
 2138 00e6 0BF69800 		addw	r0, fp, #2200
 2139 00ea 4022     		movs	r2, #64
 2140 00ec FFF7FEFF 		bl	_ZN5amiro6INA2196DriverC1ERNS_9I2CDriverEh
 2141 00f0 3146     		mov	r1, r6
 2142 00f2 0BF53260 		add	r0, fp, #2848
 2143 00f6 4022     		movs	r2, #64
 2144 00f8 FFF7FEFF 		bl	_ZN5amiro6INA2196DriverC1ERNS_9I2CDriverEh
 2145 00fc 3146     		mov	r1, r6
 2146 00fe 0BF6A850 		addw	r0, fp, #3496
 2147 0102 4422     		movs	r2, #68
 2148 0104 FFF7FEFF 		bl	_ZN5amiro6INA2196DriverC1ERNS_9I2CDriverEh
 2149 0108 AA4A     		ldr	r2, .L261+20
 2150 010a 0092     		str	r2, [sp]
 2151 010c 0BF58150 		add	r0, fp, #4128
 2152 0110 4346     		mov	r3, r8
 2153 0112 3146     		mov	r1, r6
 2154 0114 0195     		str	r5, [sp, #4]
 2155 0116 1030     		adds	r0, r0, #16
 2156 0118 FFF7FEFF 		bl	_ZN5amiro7BQ275006DriverC1ERNS_9I2CDriverERK12GPIO_TypeDefhS6_h
 2157 011c A64A     		ldr	r2, .L261+24
 2158 011e 0092     		str	r2, [sp]
 2159 0120 0BF59650 		add	r0, fp, #4800
 2160 0124 0623     		movs	r3, #6
 2161 0126 2146     		mov	r1, r4
 2162 0128 0193     		str	r3, [sp, #4]
 2163 012a 1030     		adds	r0, r0, #16
 2164 012c 0723     		movs	r3, #7
 2165 012e FFF7FEFF 		bl	_ZN5amiro7BQ275006DriverC1ERNS_9I2CDriverERK12GPIO_TypeDefhS6_h
 2166 0132 41F27053 		movw	r3, #5488
 2167 0136 0BEB0302 		add	r2, fp, r3
 2168 013a A049     		ldr	r1, .L261+28
 2169 013c 4BF80310 		str	r1, [fp, r3]
 2170 0140 2023     		movs	r3, #32
 2171 0142 1771     		strb	r7, [r2, #4]
 2172              	@ 45 "../../include/amiro/power/bq24103a.hpp" 1
 2173 0144 83F31188 		msr     BASEPRI, r3
 2174              	@ 0 "" 2
 2175              		.thumb
 2176 0148 FFF7FEFF 		bl	dbg_check_lock
 2177 014c 0BF5AB53 		add	r3, fp, #5472
 2178 0150 984A     		ldr	r2, .L261+20
 2179 0152 0821     		movs	r1, #8
 2180 0154 0025     		movs	r5, #0
 2181 0156 9161     		str	r1, [r2, #24]
 2182 0158 1D75     		strb	r5, [r3, #20]
 2183 015a FFF7FEFF 		bl	dbg_check_unlock
 2184              	@ 48 "../../include/amiro/power/bq24103a.hpp" 1
 2185 015e 85F31188 		msr     BASEPRI, r5
 2186              	@ 0 "" 2
ARM GAS  /tmp/ccLpOfjJ.s 			page 40


 2187              		.thumb
 2188 0162 41F27853 		movw	r3, #5496
 2189 0166 0BEB0302 		add	r2, fp, r3
 2190 016a 9549     		ldr	r1, .L261+32
 2191 016c 4BF80310 		str	r1, [fp, r3]
 2192 0170 0023     		movs	r3, #0
 2193 0172 1371     		strb	r3, [r2, #4]
 2194 0174 2023     		movs	r3, #32
 2195              	@ 45 "../../include/amiro/power/bq24103a.hpp" 1
 2196 0176 83F31188 		msr     BASEPRI, r3
 2197              	@ 0 "" 2
 2198              		.thumb
 2199 017a FFF7FEFF 		bl	dbg_check_lock
 2200 017e 0BF5AB53 		add	r3, fp, #5472
 2201 0182 904A     		ldr	r2, .L261+36
 2202 0184 0421     		movs	r1, #4
 2203 0186 9161     		str	r1, [r2, #24]
 2204 0188 1D77     		strb	r5, [r3, #28]
 2205 018a FFF7FEFF 		bl	dbg_check_unlock
 2206              	@ 48 "../../include/amiro/power/bq24103a.hpp" 1
 2207 018e 85F31188 		msr     BASEPRI, r5
 2208              	@ 0 "" 2
 2209              		.thumb
 2210 0192 0BF5AB52 		add	r2, fp, #5472
 2211 0196 0BF5AC55 		add	r5, fp, #5504
 2212 019a 41F28451 		movw	r1, #5508
 2213 019e 1346     		mov	r3, r2
 2214 01a0 1833     		adds	r3, r3, #24
 2215 01a2 1032     		adds	r2, r2, #16
 2216 01a4 41F65067 		movw	r7, #7760
 2217 01a8 2A60     		str	r2, [r5]
 2218 01aa 05F11000 		add	r0, r5, #16
 2219 01ae 4BF80130 		str	r3, [fp, r1]
 2220 01b2 0BEB0705 		add	r5, fp, r7
 2221 01b6 8449     		ldr	r1, .L261+40
 2222 01b8 FFF7FEFF 		bl	_ZN5amiro9BLUETOOTHC1EP10UARTDriver
 2223 01bc 0BF5F653 		add	r3, fp, #7872
 2224 01c0 2146     		mov	r1, r4
 2225 01c2 2846     		mov	r0, r5
 2226 01c4 0493     		str	r3, [sp, #16]
 2227 01c6 FFF7FEFF 		bl	_ZN5amiro14I2CMultiplexerC2EPNS_9I2CDriverE
 2228 01ca 049B     		ldr	r3, [sp, #16]
 2229 01cc 1033     		adds	r3, r3, #16
 2230 01ce 41F6906A 		movw	r10, #7824
 2231 01d2 0493     		str	r3, [sp, #16]
 2232 01d4 7D4B     		ldr	r3, .L261+44
 2233 01d6 4BF80730 		str	r3, [fp, r7]
 2234 01da 0BEB0A04 		add	r4, fp, r10
 2235 01de 4FF07708 		mov	r8, #119
 2236 01e2 4FF00709 		mov	r9, #7
 2237 01e6 4FF0FF33 		mov	r3, #-1
 2238 01ea 85F81890 		strb	r9, [r5, #24]
 2239 01ee 85F83C30 		strb	r3, [r5, #60]
 2240 01f2 A5F81C80 		strh	r8, [r5, #28]	@ movhi
 2241 01f6 A5F83080 		strh	r8, [r5, #48]	@ movhi
 2242 01fa 3146     		mov	r1, r6
 2243 01fc 2046     		mov	r0, r4
ARM GAS  /tmp/ccLpOfjJ.s 			page 41


 2244 01fe FFF7FEFF 		bl	_ZN5amiro14I2CMultiplexerC2EPNS_9I2CDriverE
 2245 0202 724B     		ldr	r3, .L261+44
 2246 0204 4BF80A30 		str	r3, [fp, r10]
 2247 0208 0BF5F757 		add	r7, fp, #7904
 2248 020c 4FF0FF33 		mov	r3, #-1
 2249 0210 84F83C30 		strb	r3, [r4, #60]
 2250 0214 0C37     		adds	r7, r7, #12
 2251 0216 84F81890 		strb	r9, [r4, #24]
 2252 021a A4F81C80 		strh	r8, [r4, #28]	@ movhi
 2253 021e A4F83080 		strh	r8, [r4, #48]	@ movhi
 2254 0222 2946     		mov	r1, r5
 2255 0224 0498     		ldr	r0, [sp, #16]
 2256 0226 0022     		movs	r2, #0
 2257 0228 0BF5F858 		add	r8, fp, #7936
 2258 022c FFF7FEFF 		bl	_ZN5amiro10VI2CDriverC1EPNS_14I2CMultiplexerEh
 2259 0230 08F10808 		add	r8, r8, #8
 2260 0234 2946     		mov	r1, r5
 2261 0236 3846     		mov	r0, r7
 2262 0238 0122     		movs	r2, #1
 2263 023a FFF7FEFF 		bl	_ZN5amiro10VI2CDriverC1EPNS_14I2CMultiplexerEh
 2264 023e 0BF5F959 		add	r9, fp, #7968
 2265 0242 2946     		mov	r1, r5
 2266 0244 4046     		mov	r0, r8
 2267 0246 0222     		movs	r2, #2
 2268 0248 FFF7FEFF 		bl	_ZN5amiro10VI2CDriverC1EPNS_14I2CMultiplexerEh
 2269 024c 09F10409 		add	r9, r9, #4
 2270 0250 0BF5FA53 		add	r3, fp, #8000
 2271 0254 9A46     		mov	r10, r3
 2272 0256 2946     		mov	r1, r5
 2273 0258 4846     		mov	r0, r9
 2274 025a 0322     		movs	r2, #3
 2275 025c 0593     		str	r3, [sp, #20]
 2276 025e 0AF11C0A 		add	r10, r10, #28
 2277 0262 FFF7FEFF 		bl	_ZN5amiro10VI2CDriverC1EPNS_14I2CMultiplexerEh
 2278 0266 0BF5FB55 		add	r5, fp, #8032
 2279 026a 2146     		mov	r1, r4
 2280 026c 0598     		ldr	r0, [sp, #20]
 2281 026e 0022     		movs	r2, #0
 2282 0270 FFF7FEFF 		bl	_ZN5amiro10VI2CDriverC1EPNS_14I2CMultiplexerEh
 2283 0274 1835     		adds	r5, r5, #24
 2284 0276 2146     		mov	r1, r4
 2285 0278 5046     		mov	r0, r10
 2286 027a 0122     		movs	r2, #1
 2287 027c FFF7FEFF 		bl	_ZN5amiro10VI2CDriverC1EPNS_14I2CMultiplexerEh
 2288 0280 2146     		mov	r1, r4
 2289 0282 2846     		mov	r0, r5
 2290 0284 0222     		movs	r2, #2
 2291 0286 FFF7FEFF 		bl	_ZN5amiro10VI2CDriverC1EPNS_14I2CMultiplexerEh
 2292 028a 0BF5FC53 		add	r3, fp, #8064
 2293 028e 1433     		adds	r3, r3, #20
 2294 0290 1846     		mov	r0, r3
 2295 0292 2146     		mov	r1, r4
 2296 0294 0322     		movs	r2, #3
 2297 0296 0BF15804 		add	r4, fp, #88
 2298 029a 0393     		str	r3, [sp, #12]
 2299 029c FFF7FEFF 		bl	_ZN5amiro10VI2CDriverC1EPNS_14I2CMultiplexerEh
 2300 02a0 0BF5FD50 		add	r0, fp, #8096
ARM GAS  /tmp/ccLpOfjJ.s 			page 42


 2301 02a4 3946     		mov	r1, r7
 2302 02a6 2246     		mov	r2, r4
 2303 02a8 1030     		adds	r0, r0, #16
 2304 02aa FFF7FEFF 		bl	_ZN5amiro8VCNL4020C1EPNS_9I2CDriverEPKNS0_14VCNL4020ConfigE
 2305 02ae 0BF50850 		add	r0, fp, #8704
 2306 02b2 4946     		mov	r1, r9
 2307 02b4 2246     		mov	r2, r4
 2308 02b6 3830     		adds	r0, r0, #56
 2309 02b8 FFF7FEFF 		bl	_ZN5amiro8VCNL4020C1EPNS_9I2CDriverEPKNS0_14VCNL4020ConfigE
 2310 02bc 4146     		mov	r1, r8
 2311 02be 2246     		mov	r2, r4
 2312 02c0 0BF51350 		add	r0, fp, #9408
 2313 02c4 FFF7FEFF 		bl	_ZN5amiro8VCNL4020C1EPNS_9I2CDriverEPKNS0_14VCNL4020ConfigE
 2314 02c8 0BF51D50 		add	r0, fp, #10048
 2315 02cc 0599     		ldr	r1, [sp, #20]
 2316 02ce 404F     		ldr	r7, .L261+48
 2317 02d0 2246     		mov	r2, r4
 2318 02d2 0830     		adds	r0, r0, #8
 2319 02d4 FFF7FEFF 		bl	_ZN5amiro8VCNL4020C1EPNS_9I2CDriverEPKNS0_14VCNL4020ConfigE
 2320 02d8 0BF52750 		add	r0, fp, #10688
 2321 02dc 5146     		mov	r1, r10
 2322 02de 2246     		mov	r2, r4
 2323 02e0 1030     		adds	r0, r0, #16
 2324 02e2 FFF7FEFF 		bl	_ZN5amiro8VCNL4020C1EPNS_9I2CDriverEPKNS0_14VCNL4020ConfigE
 2325 02e6 039B     		ldr	r3, [sp, #12]
 2326 02e8 0BF53150 		add	r0, fp, #11328
 2327 02ec 1946     		mov	r1, r3
 2328 02ee 2246     		mov	r2, r4
 2329 02f0 1830     		adds	r0, r0, #24
 2330 02f2 FFF7FEFF 		bl	_ZN5amiro8VCNL4020C1EPNS_9I2CDriverEPKNS0_14VCNL4020ConfigE
 2331 02f6 0BF53B50 		add	r0, fp, #11968
 2332 02fa 2946     		mov	r1, r5
 2333 02fc 2246     		mov	r2, r4
 2334 02fe 2030     		adds	r0, r0, #32
 2335 0300 FFF7FEFF 		bl	_ZN5amiro8VCNL4020C1EPNS_9I2CDriverEPKNS0_14VCNL4020ConfigE
 2336 0304 2246     		mov	r2, r4
 2337 0306 334C     		ldr	r4, .L261+52
 2338 0308 0499     		ldr	r1, [sp, #16]
 2339 030a 2546     		mov	r5, r4
 2340 030c 0BF54550 		add	r0, fp, #12608
 2341 0310 2830     		adds	r0, r0, #40
 2342 0312 FFF7FEFF 		bl	_ZN5amiro8VCNL4020C1EPNS_9I2CDriverEPKNS0_14VCNL4020ConfigE
 2343 0316 55F8700F 		ldr	r0, [r5, #112]!	@ unaligned
 2344 031a 54F87C8F 		ldr	r8, [r4, #124]!	@ unaligned
 2345 031e 6968     		ldr	r1, [r5, #4]	@ unaligned
 2346 0320 D4F804E0 		ldr	lr, [r4, #4]	@ unaligned
 2347 0324 B5F80890 		ldrh	r9, [r5, #8]	@ unaligned
 2348 0328 2589     		ldrh	r5, [r4, #8]	@ unaligned
 2349 032a 0BF54F53 		add	r3, fp, #13248
 2350 032e 3033     		adds	r3, r3, #48
 2351 0330 03C3     		stmia	r3!, {r0, r1}
 2352 0332 43F2FA34 		movw	r4, #13306
 2353 0336 0BEB0402 		add	r2, fp, r4
 2354 033a 0BF55050 		add	r0, fp, #13312
 2355 033e A3F80090 		strh	r9, [r3]	@ unaligned
 2356 0342 3146     		mov	r1, r6
 2357 0344 4BF80480 		str	r8, [fp, r4]	@ unaligned
ARM GAS  /tmp/ccLpOfjJ.s 			page 43


 2358 0348 0830     		adds	r0, r0, #8
 2359 034a C2F804E0 		str	lr, [r2, #4]	@ unaligned
 2360 034e 1581     		strh	r5, [r2, #8]	@ unaligned
 2361 0350 0022     		movs	r2, #0
 2362 0352 FFF7FEFF 		bl	_ZN5amiro6MPR121C1EPNS_9I2CDriverEh
 2363 0356 0BF55A50 		add	r0, fp, #13952
 2364 035a 3A46     		mov	r2, r7
 2365 035c 1E49     		ldr	r1, .L261+56
 2366 035e 0223     		movs	r3, #2
 2367 0360 3830     		adds	r0, r0, #56
 2368 0362 FFF7FEFF 		bl	_ZN5amiro11IwrapCanMuxC1EP12SerialDriverP9CANDriverh
 2369 0366 0BF55B50 		add	r0, fp, #14016
 2370 036a 3A46     		mov	r2, r7
 2371 036c 0223     		movs	r3, #2
 2372 036e 1A49     		ldr	r1, .L261+56
 2373 0370 3030     		adds	r0, r0, #48
 2374 0372 FFF7FEFF 		bl	_ZN5amiro12SerialCanMuxC1EP12SerialDriverP9CANDriverh
 2375 0376 0BF55C50 		add	r0, fp, #14080
 2376 037a 3946     		mov	r1, r7
 2377 037c 2830     		adds	r0, r0, #40
 2378 037e FFF7FEFF 		bl	_ZN5amiro15PowerManagementC1EP9CANDriver
 2379 0382 0BF56E50 		add	r0, fp, #15232
 2380 0386 2830     		adds	r0, r0, #40
 2381 0388 FFF7FEFF 		bl	_ZN5amiro10UserThreadC1Ev
 2382 038c 0023     		movs	r3, #0
 2383 038e 5846     		mov	r0, fp
 2384 0390 8BF85C30 		strb	r3, [fp, #92]
 2385 0394 8BF85D30 		strb	r3, [fp, #93]
 2386 0398 07B0     		add	sp, sp, #28
 2387              		@ sp needed
 2388 039a BDE8F08F 		pop	{r4, r5, r6, r7, r8, r9, r10, fp, pc}
 2389              	.L262:
 2390 039e 00BF     		.align	2
 2391              	.L261:
 2392 03a0 40548900 		.word	9000000
 2393 03a4 00000000 		.word	ADCD1
 2394 03a8 00000000 		.word	I2CD1
 2395 03ac 00000000 		.word	I2CD2
 2396 03b0 08000000 		.word	_ZTVN5amiro7LTC4412ILj1073874944ELh8EEE+8
 2397 03b4 00080240 		.word	1073874944
 2398 03b8 00040240 		.word	1073873920
 2399 03bc 08000000 		.word	_ZTVN5amiro8BQ24103AILj1073874944ELm3ELj1073874944ELm0EEE+8
 2400 03c0 08000000 		.word	_ZTVN5amiro8BQ24103AILj1073875968ELm2ELj1073873920ELm4EEE+8
 2401 03c4 000C0240 		.word	1073875968
 2402 03c8 00000000 		.word	UARTD3
 2403 03cc 08000000 		.word	_ZTVN5amiro7PCA9544ILb1EEE+8
 2404 03d0 00000000 		.word	CAND1
 2405 03d4 00000000 		.word	.LANCHOR1
 2406 03d8 00000000 		.word	SD1
 2407              		.size	_ZN5amiro6GlobalC2Ev, .-_ZN5amiro6GlobalC2Ev
 2408              		.weak	_ZN5amiro6GlobalC1Ev
 2409              		.thumb_set _ZN5amiro6GlobalC1Ev,_ZN5amiro6GlobalC2Ev
 2410 03dc AFF30080 		.section	.text._Z10systemStopv,"ax",%progbits
 2411              		.align	2
 2412              		.p2align 4,,15
 2413              		.global	_Z10systemStopv
 2414              		.thumb
ARM GAS  /tmp/ccLpOfjJ.s 			page 44


 2415              		.thumb_func
 2416              		.type	_Z10systemStopv, %function
 2417              	_Z10systemStopv:
 2418              		@ args = 0, pretend = 0, frame = 0
 2419              		@ frame_needed = 0, uses_anonymous_args = 0
 2420 0000 38B5     		push	{r3, r4, r5, lr}
 2421 0002 3448     		ldr	r0, .L272
 2422 0004 344C     		ldr	r4, .L272+4
 2423 0006 FFF7FEFF 		bl	_ZN5amiro23ControllerAreaNetworkTx17broadcastShutdownEv
 2424 000a 3448     		ldr	r0, .L272+8
 2425 000c FFF7FEFF 		bl	_ZN10chibios_rt15ThreadReference16requestTerminateEv
 2426 0010 3248     		ldr	r0, .L272+8
 2427 0012 FFF7FEFF 		bl	_ZN10chibios_rt15ThreadReference4waitEv
 2428 0016 0020     		movs	r0, #0
 2429 0018 FFF7FEFF 		bl	boardBluetoothSetState
 2430 001c A4F5F950 		sub	r0, r4, #7968
 2431 0020 FFF7FEFF 		bl	_ZN10chibios_rt15ThreadReference16requestTerminateEv
 2432 0024 A4F5F950 		sub	r0, r4, #7968
 2433 0028 FFF7FEFF 		bl	_ZN10chibios_rt15ThreadReference4waitEv
 2434 002c 04F5A255 		add	r5, r4, #5184
 2435              	.L265:
 2436 0030 2046     		mov	r0, r4
 2437 0032 FFF7FEFF 		bl	_ZN10chibios_rt15ThreadReference16requestTerminateEv
 2438 0036 2046     		mov	r0, r4
 2439 0038 04F52274 		add	r4, r4, #648
 2440 003c FFF7FEFF 		bl	_ZN10chibios_rt15ThreadReference4waitEv
 2441 0040 AC42     		cmp	r4, r5
 2442 0042 F5D1     		bne	.L265
 2443 0044 2648     		ldr	r0, .L272+12
 2444 0046 A0F6A844 		subw	r4, r0, #3240
 2445 004a FFF7FEFF 		bl	_ZN10chibios_rt15ThreadReference16requestTerminateEv
 2446 004e 04F6A840 		addw	r0, r4, #3240
 2447 0052 FFF7FEFF 		bl	_ZN10chibios_rt15ThreadReference4waitEv
 2448 0056 04F64870 		addw	r0, r4, #3912
 2449 005a FFF7FEFF 		bl	_ZN10chibios_rt15ThreadReference16requestTerminateEv
 2450 005e 04F64870 		addw	r0, r4, #3912
 2451 0062 FFF7FEFF 		bl	_ZN10chibios_rt15ThreadReference4waitEv
 2452 0066 04F6A845 		addw	r5, r4, #3240
 2453              	.L267:
 2454 006a 2046     		mov	r0, r4
 2455 006c FFF7FEFF 		bl	_ZN10chibios_rt15ThreadReference16requestTerminateEv
 2456 0070 2046     		mov	r0, r4
 2457 0072 04F52274 		add	r4, r4, #648
 2458 0076 FFF7FEFF 		bl	_ZN10chibios_rt15ThreadReference4waitEv
 2459 007a AC42     		cmp	r4, r5
 2460 007c F5D1     		bne	.L267
 2461 007e 1948     		ldr	r0, .L272+16
 2462 0080 194C     		ldr	r4, .L272+20
 2463 0082 A0F10E01 		sub	r1, r0, #14
 2464 0086 FFF7FEFF 		bl	_ZN5amiro6MPR1219configureEPKNS0_12MPR121ConfigE
 2465 008a 04F17005 		add	r5, r4, #112
 2466              	.L269:
 2467 008e 2368     		ldr	r3, [r4]
 2468 0090 2046     		mov	r0, r4
 2469 0092 DB68     		ldr	r3, [r3, #12]
 2470 0094 1C34     		adds	r4, r4, #28
 2471 0096 9847     		blx	r3
ARM GAS  /tmp/ccLpOfjJ.s 			page 45


 2472 0098 AC42     		cmp	r4, r5
 2473 009a F8D1     		bne	.L269
 2474 009c 134C     		ldr	r4, .L272+24
 2475 009e 04F17005 		add	r5, r4, #112
 2476              	.L271:
 2477 00a2 2368     		ldr	r3, [r4]
 2478 00a4 2046     		mov	r0, r4
 2479 00a6 DB68     		ldr	r3, [r3, #12]
 2480 00a8 1C34     		adds	r4, r4, #28
 2481 00aa 9847     		blx	r3
 2482 00ac AC42     		cmp	r4, r5
 2483 00ae F8D1     		bne	.L271
 2484 00b0 0C48     		ldr	r0, .L272+16
 2485 00b2 FFF7FEFF 		bl	_ZN10chibios_rt15ThreadReference16requestTerminateEv
 2486 00b6 0B48     		ldr	r0, .L272+16
 2487 00b8 FFF7FEFF 		bl	_ZN10chibios_rt15ThreadReference4waitEv
 2488 00bc 0C48     		ldr	r0, .L272+28
 2489 00be FFF7FEFF 		bl	_ZN5amiro11HWI2CDriver4stopEv
 2490 00c2 0C48     		ldr	r0, .L272+32
 2491 00c4 FFF7FEFF 		bl	_ZN5amiro11HWI2CDriver4stopEv
 2492 00c8 0248     		ldr	r0, .L272
 2493 00ca BDE83840 		pop	{r3, r4, r5, lr}
 2494 00ce FFF7FEBF 		b	_ZN5amiro15PowerManagement9terminateEv
 2495              	.L273:
 2496 00d2 00BF     		.align	2
 2497              	.L272:
 2498 00d4 28370000 		.word	.LANCHOR0+14120
 2499 00d8 B01F0000 		.word	.LANCHOR0+8112
 2500 00dc A83B0000 		.word	.LANCHOR0+15272
 2501 00e0 38100000 		.word	.LANCHOR0+4152
 2502 00e4 08340000 		.word	.LANCHOR0+13320
 2503 00e8 D01E0000 		.word	.LANCHOR0+7888
 2504 00ec 401F0000 		.word	.LANCHOR0+8000
 2505 00f0 38030000 		.word	.LANCHOR0+824
 2506 00f4 30030000 		.word	.LANCHOR0+816
 2507              		.size	_Z10systemStopv, .-_Z10systemStopv
 2508 00f8 AFF30080 		.section	.text._Z14systemShutdownv,"ax",%progbits
 2508      AFF30080 
 2509              		.align	2
 2510              		.p2align 4,,15
 2511              		.global	_Z14systemShutdownv
 2512              		.thumb
 2513              		.thumb_func
 2514              		.type	_Z14systemShutdownv, %function
 2515              	_Z14systemShutdownv:
 2516              		@ args = 0, pretend = 0, frame = 24
 2517              		@ frame_needed = 0, uses_anonymous_args = 0
 2518 0000 30B5     		push	{r4, r5, lr}
 2519 0002 4B48     		ldr	r0, .L294
 2520 0004 4B4C     		ldr	r4, .L294+4
 2521 0006 87B0     		sub	sp, sp, #28
 2522 0008 FFF7FEFF 		bl	_ZN5amiro23ControllerAreaNetworkTx17broadcastShutdownEv
 2523 000c 4FF4FA70 		mov	r0, #500
 2524 0010 FFF7FEFF 		bl	_ZN10chibios_rt10BaseThread5sleepEm
 2525 0014 4848     		ldr	r0, .L294+8
 2526 0016 FFF7FEFF 		bl	_ZN10chibios_rt15ThreadReference16requestTerminateEv
 2527 001a 4748     		ldr	r0, .L294+8
ARM GAS  /tmp/ccLpOfjJ.s 			page 46


 2528 001c FFF7FEFF 		bl	_ZN10chibios_rt15ThreadReference4waitEv
 2529 0020 0020     		movs	r0, #0
 2530 0022 FFF7FEFF 		bl	boardBluetoothSetState
 2531 0026 4248     		ldr	r0, .L294
 2532 0028 FFF7FEFF 		bl	_ZN5amiro15PowerManagement9terminateEv
 2533 002c A4F5F950 		sub	r0, r4, #7968
 2534 0030 FFF7FEFF 		bl	_ZN10chibios_rt15ThreadReference16requestTerminateEv
 2535 0034 A4F5F950 		sub	r0, r4, #7968
 2536 0038 FFF7FEFF 		bl	_ZN10chibios_rt15ThreadReference4waitEv
 2537 003c 04F5A255 		add	r5, r4, #5184
 2538              	.L276:
 2539 0040 2046     		mov	r0, r4
 2540 0042 FFF7FEFF 		bl	_ZN10chibios_rt15ThreadReference16requestTerminateEv
 2541 0046 2046     		mov	r0, r4
 2542 0048 04F52274 		add	r4, r4, #648
 2543 004c FFF7FEFF 		bl	_ZN10chibios_rt15ThreadReference4waitEv
 2544 0050 AC42     		cmp	r4, r5
 2545 0052 F5D1     		bne	.L276
 2546 0054 3948     		ldr	r0, .L294+12
 2547 0056 A0F6A844 		subw	r4, r0, #3240
 2548 005a FFF7FEFF 		bl	_ZN10chibios_rt15ThreadReference16requestTerminateEv
 2549 005e 04F6A840 		addw	r0, r4, #3240
 2550 0062 FFF7FEFF 		bl	_ZN10chibios_rt15ThreadReference4waitEv
 2551 0066 04F64870 		addw	r0, r4, #3912
 2552 006a FFF7FEFF 		bl	_ZN10chibios_rt15ThreadReference16requestTerminateEv
 2553 006e 04F64870 		addw	r0, r4, #3912
 2554 0072 FFF7FEFF 		bl	_ZN10chibios_rt15ThreadReference4waitEv
 2555 0076 04F6A845 		addw	r5, r4, #3240
 2556              	.L278:
 2557 007a 2046     		mov	r0, r4
 2558 007c FFF7FEFF 		bl	_ZN10chibios_rt15ThreadReference16requestTerminateEv
 2559 0080 2046     		mov	r0, r4
 2560 0082 04F52274 		add	r4, r4, #648
 2561 0086 FFF7FEFF 		bl	_ZN10chibios_rt15ThreadReference4waitEv
 2562 008a AC42     		cmp	r4, r5
 2563 008c F5D1     		bne	.L278
 2564 008e 2023     		movs	r3, #32
 2565              	@ 180 "main.cpp" 1
 2566 0090 83F31188 		msr     BASEPRI, r3
 2567              	@ 0 "" 2
 2568              		.thumb
 2569 0094 FFF7FEFF 		bl	dbg_check_lock
 2570 0098 01A8     		add	r0, sp, #4
 2571 009a 4EF66021 		movw	r1, #60000
 2572 009e 284A     		ldr	r2, .L294+16
 2573 00a0 0023     		movs	r3, #0
 2574 00a2 FFF7FEFF 		bl	chVTSetI
 2575 00a6 FFF7FEFF 		bl	dbg_check_unlock
 2576 00aa 0023     		movs	r3, #0
 2577              	@ 180 "main.cpp" 1
 2578 00ac 83F31188 		msr     BASEPRI, r3
 2579              	@ 0 "" 2
 2580              		.thumb
 2581 00b0 244C     		ldr	r4, .L294+20
 2582 00b2 2369     		ldr	r3, [r4, #16]
 2583 00b4 9A04     		lsls	r2, r3, #18
 2584 00b6 31D5     		bpl	.L288
ARM GAS  /tmp/ccLpOfjJ.s 			page 47


 2585              	.L279:
 2586 00b8 2023     		movs	r3, #32
 2587              	@ 186 "main.cpp" 1
 2588 00ba 83F31188 		msr     BASEPRI, r3
 2589              	@ 0 "" 2
 2590              		.thumb
 2591 00be FFF7FEFF 		bl	dbg_check_lock
 2592 00c2 049B     		ldr	r3, [sp, #16]
 2593 00c4 13B1     		cbz	r3, .L287
 2594 00c6 01A8     		add	r0, sp, #4
 2595 00c8 FFF7FEFF 		bl	chVTResetI
 2596              	.L287:
 2597 00cc FFF7FEFF 		bl	dbg_check_unlock
 2598 00d0 0023     		movs	r3, #0
 2599              	@ 186 "main.cpp" 1
 2600 00d2 83F31188 		msr     BASEPRI, r3
 2601              	@ 0 "" 2
 2602              		.thumb
 2603 00d6 0020     		movs	r0, #0
 2604 00d8 FFF7FEFF 		bl	boardWriteIoPower
 2605 00dc 1A48     		ldr	r0, .L294+24
 2606 00de 1B4C     		ldr	r4, .L294+28
 2607 00e0 A0F10E01 		sub	r1, r0, #14
 2608 00e4 FFF7FEFF 		bl	_ZN5amiro6MPR1219configureEPKNS0_12MPR121ConfigE
 2609 00e8 04F17005 		add	r5, r4, #112
 2610              	.L283:
 2611 00ec 2368     		ldr	r3, [r4]
 2612 00ee 2046     		mov	r0, r4
 2613 00f0 DB68     		ldr	r3, [r3, #12]
 2614 00f2 1C34     		adds	r4, r4, #28
 2615 00f4 9847     		blx	r3
 2616 00f6 AC42     		cmp	r4, r5
 2617 00f8 F8D1     		bne	.L283
 2618 00fa 154C     		ldr	r4, .L294+32
 2619 00fc 04F17005 		add	r5, r4, #112
 2620              	.L285:
 2621 0100 2368     		ldr	r3, [r4]
 2622 0102 2046     		mov	r0, r4
 2623 0104 DB68     		ldr	r3, [r3, #12]
 2624 0106 1C34     		adds	r4, r4, #28
 2625 0108 9847     		blx	r3
 2626 010a AC42     		cmp	r4, r5
 2627 010c F8D1     		bne	.L285
 2628 010e 0020     		movs	r0, #0
 2629 0110 FFF7FEFF 		bl	boardWriteSystemPower
 2630 0114 FFF7FEFF 		bl	boardStandby
 2631 0118 07B0     		add	sp, sp, #28
 2632              		@ sp needed
 2633 011a 30BD     		pop	{r4, r5, pc}
 2634              	.L288:
 2635 011c 049B     		ldr	r3, [sp, #16]
 2636 011e 002B     		cmp	r3, #0
 2637 0120 CAD0     		beq	.L279
 2638 0122 0120     		movs	r0, #1
 2639 0124 FFF7FEFF 		bl	_ZN10chibios_rt10BaseThread5sleepEm
 2640 0128 2369     		ldr	r3, [r4, #16]
 2641 012a 9B04     		lsls	r3, r3, #18
ARM GAS  /tmp/ccLpOfjJ.s 			page 48


 2642 012c F6D5     		bpl	.L288
 2643 012e C3E7     		b	.L279
 2644              	.L295:
 2645              		.align	2
 2646              	.L294:
 2647 0130 28370000 		.word	.LANCHOR0+14120
 2648 0134 B01F0000 		.word	.LANCHOR0+8112
 2649 0138 A83B0000 		.word	.LANCHOR0+15272
 2650 013c 38100000 		.word	.LANCHOR0+4152
 2651 0140 00000000 		.word	_Z18shutdownTimeoutISRPv
 2652 0144 00080240 		.word	1073874944
 2653 0148 08340000 		.word	.LANCHOR0+13320
 2654 014c D01E0000 		.word	.LANCHOR0+7888
 2655 0150 401F0000 		.word	.LANCHOR0+8000
 2656              		.size	_Z14systemShutdownv, .-_Z14systemShutdownv
 2657              		.section	.text._Z19boardPeripheryCheckP20BaseSequentialStream,"ax",%progbits
 2658              		.align	2
 2659              		.p2align 4,,15
 2660              		.global	_Z19boardPeripheryCheckP20BaseSequentialStream
 2661              		.thumb
 2662              		.thumb_func
 2663              		.type	_Z19boardPeripheryCheckP20BaseSequentialStream, %function
 2664              	_Z19boardPeripheryCheckP20BaseSequentialStream:
 2665              		@ args = 0, pretend = 0, frame = 0
 2666              		@ frame_needed = 0, uses_anonymous_args = 0
 2667 0000 2DE9F84F 		push	{r3, r4, r5, r6, r7, r8, r9, r10, fp, lr}
 2668 0004 0349     		ldr	r1, .L390
 2669 0006 044E     		ldr	r6, .L390+4
 2670 0008 0446     		mov	r4, r0
 2671 000a 0025     		movs	r5, #0
 2672 000c FFF7FEFF 		bl	_ZL8chprintfP20BaseSequentialStreamPKcz
 2673 0010 0DE0     		b	.L300
 2674              	.L391:
 2675 0012 00BF     		.align	2
 2676              	.L390:
 2677 0014 080E0000 		.word	.LC141
 2678 0018 B01F0000 		.word	.LANCHOR0+8112
 2679              	.L374:
 2680 001c 2046     		mov	r0, r4
 2681 001e B049     		ldr	r1, .L392
 2682 0020 0135     		adds	r5, r5, #1
 2683 0022 FFF7FEFF 		bl	_ZL8chprintfP20BaseSequentialStreamPKcz
 2684 0026 082D     		cmp	r5, #8
 2685 0028 06F52276 		add	r6, r6, #648
 2686 002c 0ED0     		beq	.L373
 2687              	.L300:
 2688 002e 3046     		mov	r0, r6
 2689 0030 FFF7FEFF 		bl	_ZN5amiro8VCNL40208getCheckEv
 2690 0034 2A46     		mov	r2, r5
 2691 0036 AB49     		ldr	r1, .L392+4
 2692 0038 0028     		cmp	r0, #0
 2693 003a EFD0     		beq	.L374
 2694 003c 2046     		mov	r0, r4
 2695 003e 0135     		adds	r5, r5, #1
 2696 0040 FFF7FEFF 		bl	_ZL8chprintfP20BaseSequentialStreamPKcz
 2697 0044 082D     		cmp	r5, #8
 2698 0046 06F52276 		add	r6, r6, #648
ARM GAS  /tmp/ccLpOfjJ.s 			page 49


 2699 004a F0D1     		bne	.L300
 2700              	.L373:
 2701 004c 2046     		mov	r0, r4
 2702 004e A649     		ldr	r1, .L392+8
 2703 0050 FFF7FEFF 		bl	_ZL8chprintfP20BaseSequentialStreamPKcz
 2704 0054 A549     		ldr	r1, .L392+12
 2705 0056 2046     		mov	r0, r4
 2706 0058 FFF7FEFF 		bl	_ZL8chprintfP20BaseSequentialStreamPKcz
 2707 005c A44B     		ldr	r3, .L392+16
 2708 005e 1B69     		ldr	r3, [r3, #16]
 2709 0060 DA05     		lsls	r2, r3, #23
 2710 0062 4CBF     		ite	mi
 2711 0064 A349     		ldrmi	r1, .L392+20
 2712 0066 A449     		ldrpl	r1, .L392+24
 2713 0068 2046     		mov	r0, r4
 2714 006a FFF7FEFF 		bl	_ZL8chprintfP20BaseSequentialStreamPKcz
 2715 006e 2046     		mov	r0, r4
 2716 0070 9D49     		ldr	r1, .L392+8
 2717 0072 FFF7FEFF 		bl	_ZL8chprintfP20BaseSequentialStreamPKcz
 2718 0076 A148     		ldr	r0, .L392+28
 2719 0078 FFF7FEFF 		bl	_ZN5amiro12fileSystemIo16FileSystemIoBase8getCheckEv
 2720 007c 0028     		cmp	r0, #0
 2721 007e 00F0D281 		beq	.L303
 2722 0082 2046     		mov	r0, r4
 2723 0084 9E49     		ldr	r1, .L392+32
 2724 0086 FFF7FEFF 		bl	_ZL8chprintfP20BaseSequentialStreamPKcz
 2725              	.L304:
 2726 008a 2046     		mov	r0, r4
 2727 008c 9649     		ldr	r1, .L392+8
 2728 008e 9D4D     		ldr	r5, .L392+36
 2729 0090 FFF7FEFF 		bl	_ZL8chprintfP20BaseSequentialStreamPKcz
 2730 0094 2046     		mov	r0, r4
 2731 0096 9549     		ldr	r1, .L392+12
 2732 0098 FFF7FEFF 		bl	_ZL8chprintfP20BaseSequentialStreamPKcz
 2733 009c 2046     		mov	r0, r4
 2734 009e 9A49     		ldr	r1, .L392+40
 2735 00a0 FFF7FEFF 		bl	_ZL8chprintfP20BaseSequentialStreamPKcz
 2736 00a4 9949     		ldr	r1, .L392+44
 2737 00a6 2046     		mov	r0, r4
 2738 00a8 FFF7FEFF 		bl	_ZL8chprintfP20BaseSequentialStreamPKcz
 2739 00ac D5F88833 		ldr	r3, [r5, #904]
 2740 00b0 05F56270 		add	r0, r5, #904
 2741 00b4 DB69     		ldr	r3, [r3, #28]
 2742 00b6 9847     		blx	r3
 2743 00b8 9549     		ldr	r1, .L392+48
 2744 00ba 5FFA80F9 		uxtb	r9, r0
 2745 00be 2046     		mov	r0, r4
 2746 00c0 FFF7FEFF 		bl	_ZL8chprintfP20BaseSequentialStreamPKcz
 2747 00c4 B9F1FF0F 		cmp	r9, #255
 2748 00c8 2046     		mov	r0, r4
 2749 00ca 00F09283 		beq	.L375
 2750 00ce B9F1000F 		cmp	r9, #0
 2751 00d2 40F0AD81 		bne	.L376
 2752 00d6 8F49     		ldr	r1, .L392+52
 2753 00d8 FFF7FEFF 		bl	_ZL8chprintfP20BaseSequentialStreamPKcz
 2754              	.L306:
 2755 00dc 2046     		mov	r0, r4
ARM GAS  /tmp/ccLpOfjJ.s 			page 50


 2756 00de 8E49     		ldr	r1, .L392+56
 2757 00e0 FFF7FEFF 		bl	_ZL8chprintfP20BaseSequentialStreamPKcz
 2758 00e4 8D49     		ldr	r1, .L392+60
 2759 00e6 2046     		mov	r0, r4
 2760 00e8 FFF7FEFF 		bl	_ZL8chprintfP20BaseSequentialStreamPKcz
 2761 00ec D5F81036 		ldr	r3, [r5, #1552]
 2762 00f0 8B48     		ldr	r0, .L392+64
 2763 00f2 DB69     		ldr	r3, [r3, #28]
 2764 00f4 9847     		blx	r3
 2765 00f6 8649     		ldr	r1, .L392+48
 2766 00f8 5FFA80FA 		uxtb	r10, r0
 2767 00fc 2046     		mov	r0, r4
 2768 00fe FFF7FEFF 		bl	_ZL8chprintfP20BaseSequentialStreamPKcz
 2769 0102 BAF1FF0F 		cmp	r10, #255
 2770 0106 2046     		mov	r0, r4
 2771 0108 00F06F83 		beq	.L377
 2772 010c BAF1000F 		cmp	r10, #0
 2773 0110 00F01182 		beq	.L310
 2774 0114 8349     		ldr	r1, .L392+68
 2775 0116 5246     		mov	r2, r10
 2776 0118 FFF7FEFF 		bl	_ZL8chprintfP20BaseSequentialStreamPKcz
 2777              	.L309:
 2778 011c 2046     		mov	r0, r4
 2779 011e 7E49     		ldr	r1, .L392+56
 2780 0120 FFF7FEFF 		bl	_ZL8chprintfP20BaseSequentialStreamPKcz
 2781 0124 8049     		ldr	r1, .L392+72
 2782 0126 2046     		mov	r0, r4
 2783 0128 FFF7FEFF 		bl	_ZL8chprintfP20BaseSequentialStreamPKcz
 2784 012c D5F89838 		ldr	r3, [r5, #2200]
 2785 0130 7E48     		ldr	r0, .L392+76
 2786 0132 DB69     		ldr	r3, [r3, #28]
 2787 0134 9847     		blx	r3
 2788 0136 7649     		ldr	r1, .L392+48
 2789 0138 5FFA80F8 		uxtb	r8, r0
 2790 013c 2046     		mov	r0, r4
 2791 013e FFF7FEFF 		bl	_ZL8chprintfP20BaseSequentialStreamPKcz
 2792 0142 B8F1FF0F 		cmp	r8, #255
 2793 0146 2046     		mov	r0, r4
 2794 0148 00F04B83 		beq	.L378
 2795 014c B8F1000F 		cmp	r8, #0
 2796 0150 00F0ED81 		beq	.L313
 2797 0154 7349     		ldr	r1, .L392+68
 2798 0156 4246     		mov	r2, r8
 2799 0158 FFF7FEFF 		bl	_ZL8chprintfP20BaseSequentialStreamPKcz
 2800              	.L312:
 2801 015c 2046     		mov	r0, r4
 2802 015e 6E49     		ldr	r1, .L392+56
 2803 0160 FFF7FEFF 		bl	_ZL8chprintfP20BaseSequentialStreamPKcz
 2804 0164 7249     		ldr	r1, .L392+80
 2805 0166 2046     		mov	r0, r4
 2806 0168 FFF7FEFF 		bl	_ZL8chprintfP20BaseSequentialStreamPKcz
 2807 016c D5F8203B 		ldr	r3, [r5, #2848]
 2808 0170 7048     		ldr	r0, .L392+84
 2809 0172 DB69     		ldr	r3, [r3, #28]
 2810 0174 9847     		blx	r3
 2811 0176 6649     		ldr	r1, .L392+48
 2812 0178 C7B2     		uxtb	r7, r0
ARM GAS  /tmp/ccLpOfjJ.s 			page 51


 2813 017a 2046     		mov	r0, r4
 2814 017c FFF7FEFF 		bl	_ZL8chprintfP20BaseSequentialStreamPKcz
 2815 0180 FF2F     		cmp	r7, #255
 2816 0182 2046     		mov	r0, r4
 2817 0184 00F02983 		beq	.L379
 2818 0188 002F     		cmp	r7, #0
 2819 018a 00F0D881 		beq	.L316
 2820 018e 6549     		ldr	r1, .L392+68
 2821 0190 3A46     		mov	r2, r7
 2822 0192 FFF7FEFF 		bl	_ZL8chprintfP20BaseSequentialStreamPKcz
 2823              	.L315:
 2824 0196 6748     		ldr	r0, .L392+84
 2825 0198 FFF7FEFF 		bl	_ZN5amiro6INA2196Driver14readBusVoltageEv
 2826 019c 2046     		mov	r0, r4
 2827 019e 5E49     		ldr	r1, .L392+56
 2828 01a0 FFF7FEFF 		bl	_ZL8chprintfP20BaseSequentialStreamPKcz
 2829 01a4 6449     		ldr	r1, .L392+88
 2830 01a6 2046     		mov	r0, r4
 2831 01a8 FFF7FEFF 		bl	_ZL8chprintfP20BaseSequentialStreamPKcz
 2832 01ac D5F8A83D 		ldr	r3, [r5, #3496]
 2833 01b0 6248     		ldr	r0, .L392+92
 2834 01b2 DB69     		ldr	r3, [r3, #28]
 2835 01b4 9847     		blx	r3
 2836 01b6 5649     		ldr	r1, .L392+48
 2837 01b8 C6B2     		uxtb	r6, r0
 2838 01ba 2046     		mov	r0, r4
 2839 01bc FFF7FEFF 		bl	_ZL8chprintfP20BaseSequentialStreamPKcz
 2840 01c0 FF2E     		cmp	r6, #255
 2841 01c2 2046     		mov	r0, r4
 2842 01c4 00F0C782 		beq	.L380
 2843 01c8 002E     		cmp	r6, #0
 2844 01ca 00F0AC81 		beq	.L319
 2845 01ce 5549     		ldr	r1, .L392+68
 2846 01d0 3246     		mov	r2, r6
 2847 01d2 FFF7FEFF 		bl	_ZL8chprintfP20BaseSequentialStreamPKcz
 2848              	.L320:
 2849 01d6 4AEA0909 		orr	r9, r10, r9
 2850 01da 48EA0908 		orr	r8, r8, r9
 2851 01de 47EA0808 		orr	r8, r7, r8
 2852 01e2 2046     		mov	r0, r4
 2853 01e4 4C49     		ldr	r1, .L392+56
 2854 01e6 46EA0808 		orr	r8, r6, r8
 2855 01ea FFF7FEFF 		bl	_ZL8chprintfP20BaseSequentialStreamPKcz
 2856 01ee B8F1FF0F 		cmp	r8, #255
 2857 01f2 00F0B782 		beq	.L318
 2858 01f6 474F     		ldr	r7, .L392+52
 2859 01f8 514A     		ldr	r2, .L392+96
 2860 01fa 5249     		ldr	r1, .L392+100
 2861 01fc B8F1000F 		cmp	r8, #0
 2862 0200 08BF     		it	eq
 2863 0202 3A46     		moveq	r2, r7
 2864 0204 2046     		mov	r0, r4
 2865 0206 FFF7FEFF 		bl	_ZL8chprintfP20BaseSequentialStreamPKcz
 2866 020a 2046     		mov	r0, r4
 2867 020c 3649     		ldr	r1, .L392+8
 2868 020e FFF7FEFF 		bl	_ZL8chprintfP20BaseSequentialStreamPKcz
 2869 0212 2046     		mov	r0, r4
ARM GAS  /tmp/ccLpOfjJ.s 			page 52


 2870 0214 3549     		ldr	r1, .L392+12
 2871 0216 FFF7FEFF 		bl	_ZL8chprintfP20BaseSequentialStreamPKcz
 2872 021a 2046     		mov	r0, r4
 2873 021c 4A49     		ldr	r1, .L392+104
 2874 021e FFF7FEFF 		bl	_ZL8chprintfP20BaseSequentialStreamPKcz
 2875 0222 4A49     		ldr	r1, .L392+108
 2876 0224 2046     		mov	r0, r4
 2877 0226 FFF7FEFF 		bl	_ZL8chprintfP20BaseSequentialStreamPKcz
 2878 022a 41F23003 		movw	r3, #4144
 2879 022e 4848     		ldr	r0, .L392+112
 2880 0230 EB58     		ldr	r3, [r5, r3]
 2881 0232 DB69     		ldr	r3, [r3, #28]
 2882 0234 9847     		blx	r3
 2883 0236 4749     		ldr	r1, .L392+116
 2884 0238 0646     		mov	r6, r0
 2885 023a 2046     		mov	r0, r4
 2886 023c FFF7FEFF 		bl	_ZL8chprintfP20BaseSequentialStreamPKcz
 2887 0240 012E     		cmp	r6, #1
 2888 0242 00F0DF82 		beq	.L381
 2889 0246 002E     		cmp	r6, #0
 2890 0248 00F08781 		beq	.L326
 2891 024c 2046     		mov	r0, r4
 2892 024e 3549     		ldr	r1, .L392+68
 2893 0250 4246     		mov	r2, r8
 2894 0252 FFF7FEFF 		bl	_ZL8chprintfP20BaseSequentialStreamPKcz
 2895              	.L325:
 2896 0256 2046     		mov	r0, r4
 2897 0258 2F49     		ldr	r1, .L392+56
 2898 025a FFF7FEFF 		bl	_ZL8chprintfP20BaseSequentialStreamPKcz
 2899 025e 3E49     		ldr	r1, .L392+120
 2900 0260 2046     		mov	r0, r4
 2901 0262 FFF7FEFF 		bl	_ZL8chprintfP20BaseSequentialStreamPKcz
 2902 0266 41F2D023 		movw	r3, #4816
 2903 026a 3C48     		ldr	r0, .L392+124
 2904 026c EB58     		ldr	r3, [r5, r3]
 2905 026e DB69     		ldr	r3, [r3, #28]
 2906 0270 9847     		blx	r3
 2907 0272 3B49     		ldr	r1, .L392+128
 2908 0274 0746     		mov	r7, r0
 2909 0276 2046     		mov	r0, r4
 2910 0278 FFF7FEFF 		bl	_ZL8chprintfP20BaseSequentialStreamPKcz
 2911 027c 012F     		cmp	r7, #1
 2912 027e 00F0BC82 		beq	.L382
 2913 0282 002F     		cmp	r7, #0
 2914 0284 00F06481 		beq	.L327
 2915 0288 4246     		mov	r2, r8
 2916 028a 2046     		mov	r0, r4
 2917 028c 2549     		ldr	r1, .L392+68
 2918 028e FFF7FEFF 		bl	_ZL8chprintfP20BaseSequentialStreamPKcz
 2919              	.L322:
 2920 0292 2046     		mov	r0, r4
 2921 0294 1549     		ldr	r1, .L392+12
 2922 0296 3743     		orrs	r7, r7, r6
 2923 0298 FFF7FEFF 		bl	_ZL8chprintfP20BaseSequentialStreamPKcz
 2924 029c FF2F     		cmp	r7, #255
 2925 029e 00F05582 		beq	.L383
 2926 02a2 1C4A     		ldr	r2, .L392+52
ARM GAS  /tmp/ccLpOfjJ.s 			page 53


 2927 02a4 264B     		ldr	r3, .L392+96
 2928 02a6 2F49     		ldr	r1, .L392+132
 2929 02a8 002F     		cmp	r7, #0
 2930 02aa 18BF     		it	ne
 2931 02ac 1A46     		movne	r2, r3
 2932 02ae 2046     		mov	r0, r4
 2933 02b0 FFF7FEFF 		bl	_ZL8chprintfP20BaseSequentialStreamPKcz
 2934              	.L329:
 2935 02b4 2046     		mov	r0, r4
 2936 02b6 0C49     		ldr	r1, .L392+8
 2937 02b8 FFF7FEFF 		bl	_ZL8chprintfP20BaseSequentialStreamPKcz
 2938 02bc 2046     		mov	r0, r4
 2939 02be 0B49     		ldr	r1, .L392+12
 2940 02c0 FFF7FEFF 		bl	_ZL8chprintfP20BaseSequentialStreamPKcz
 2941 02c4 2046     		mov	r0, r4
 2942 02c6 2849     		ldr	r1, .L392+136
 2943 02c8 FFF7FEFF 		bl	_ZL8chprintfP20BaseSequentialStreamPKcz
 2944 02cc 084B     		ldr	r3, .L392+16
 2945 02ce 1B69     		ldr	r3, [r3, #16]
 2946 02d0 DB05     		lsls	r3, r3, #23
 2947 02d2 2046     		mov	r0, r4
 2948 02d4 00F1B180 		bmi	.L331
 2949 02d8 2449     		ldr	r1, .L392+140
 2950 02da FFF7FEFF 		bl	_ZL8chprintfP20BaseSequentialStreamPKcz
 2951 02de 47E0     		b	.L393
 2952              	.L394:
 2953              		.align	2
 2954              	.L392:
 2955 02e0 180E0000 		.word	.LC142
 2956 02e4 2C0E0000 		.word	.LC143
 2957 02e8 78080000 		.word	.LC86
 2958 02ec 40000000 		.word	.LC10
 2959 02f0 00080240 		.word	1073874944
 2960 02f4 400E0000 		.word	.LC144
 2961 02f8 580E0000 		.word	.LC145
 2962 02fc 7C030000 		.word	.LANCHOR0+892
 2963 0300 740E0000 		.word	.LC146
 2964 0304 00000000 		.word	.LANCHOR0
 2965 0308 A40E0000 		.word	.LC148
 2966 030c B00E0000 		.word	.LC149
 2967 0310 C00E0000 		.word	.LC150
 2968 0314 E80D0000 		.word	.LC135
 2969 0318 CC0D0000 		.word	.LC132
 2970 031c F00E0000 		.word	.LC153
 2971 0320 10060000 		.word	.LANCHOR0+1552
 2972 0324 D40E0000 		.word	.LC152
 2973 0328 FC0E0000 		.word	.LC154
 2974 032c 98080000 		.word	.LANCHOR0+2200
 2975 0330 080F0000 		.word	.LC155
 2976 0334 200B0000 		.word	.LANCHOR0+2848
 2977 0338 140F0000 		.word	.LC156
 2978 033c A80D0000 		.word	.LANCHOR0+3496
 2979 0340 E00D0000 		.word	.LC134
 2980 0344 680F0000 		.word	.LC163
 2981 0348 3C0F0000 		.word	.LC158
 2982 034c 480F0000 		.word	.LC159
 2983 0350 30100000 		.word	.LANCHOR0+4144
ARM GAS  /tmp/ccLpOfjJ.s 			page 54


 2984 0354 500F0000 		.word	.LC160
 2985 0358 580F0000 		.word	.LC161
 2986 035c D0120000 		.word	.LANCHOR0+4816
 2987 0360 600F0000 		.word	.LC162
 2988 0364 B40F0000 		.word	.LC166
 2989 0368 C80F0000 		.word	.LC167
 2990 036c D40F0000 		.word	.LC168
 2991              	.L393:
 2992              	.L332:
 2993 0370 2046     		mov	r0, r4
 2994 0372 7C49     		ldr	r1, .L395
 2995 0374 FFF7FEFF 		bl	_ZL8chprintfP20BaseSequentialStreamPKcz
 2996 0378 2046     		mov	r0, r4
 2997 037a 7B49     		ldr	r1, .L395+4
 2998 037c FFF7FEFF 		bl	_ZL8chprintfP20BaseSequentialStreamPKcz
 2999 0380 2046     		mov	r0, r4
 3000 0382 7A49     		ldr	r1, .L395+8
 3001 0384 FFF7FEFF 		bl	_ZL8chprintfP20BaseSequentialStreamPKcz
 3002 0388 2046     		mov	r0, r4
 3003 038a 7949     		ldr	r1, .L395+12
 3004 038c FFF7FEFF 		bl	_ZL8chprintfP20BaseSequentialStreamPKcz
 3005 0390 7848     		ldr	r0, .L395+16
 3006 0392 FFF7FEFF 		bl	_ZN5amiro9BLUETOOTH18bluetoothIsMuxModeEv
 3007 0396 0028     		cmp	r0, #0
 3008 0398 40F0D580 		bne	.L384
 3009 039c 2046     		mov	r0, r4
 3010 039e 7649     		ldr	r1, .L395+20
 3011 03a0 FFF7FEFF 		bl	_ZL8chprintfP20BaseSequentialStreamPKcz
 3012 03a4 7348     		ldr	r0, .L395+16
 3013 03a6 7549     		ldr	r1, .L395+24
 3014 03a8 FFF7FEFF 		bl	_ZN5amiro9BLUETOOTH20bluetoothSendCommandEPKc
 3015 03ac 7148     		ldr	r0, .L395+16
 3016 03ae 7449     		ldr	r1, .L395+28
 3017 03b0 FFF7FEFF 		bl	_ZN5amiro9BLUETOOTH20bluetoothSendCommandEPKc
 3018 03b4 6F48     		ldr	r0, .L395+16
 3019 03b6 7349     		ldr	r1, .L395+32
 3020 03b8 FFF7FEFF 		bl	_ZN5amiro9BLUETOOTH20bluetoothSendCommandEPKc
 3021 03bc 6D48     		ldr	r0, .L395+16
 3022 03be FFF7FEFF 		bl	_ZN5amiro9BLUETOOTH18bluetoothEnableMuxEv
 3023 03c2 6C48     		ldr	r0, .L395+16
 3024 03c4 FFF7FEFF 		bl	_ZN5amiro9BLUETOOTH14bluetoothResetEv
 3025              	.L349:
 3026 03c8 6A48     		ldr	r0, .L395+16
 3027 03ca 6F49     		ldr	r1, .L395+36
 3028 03cc FFF7FEFF 		bl	_ZN5amiro9BLUETOOTH20bluetoothSendCommandEPKc
 3029 03d0 6848     		ldr	r0, .L395+16
 3030 03d2 6E49     		ldr	r1, .L395+40
 3031 03d4 FFF7FEFF 		bl	_ZN5amiro9BLUETOOTH20bluetoothSendCommandEPKc
 3032 03d8 2046     		mov	r0, r4
 3033 03da 6249     		ldr	r1, .L395
 3034 03dc FFF7FEFF 		bl	_ZL8chprintfP20BaseSequentialStreamPKcz
 3035 03e0 2046     		mov	r0, r4
 3036 03e2 6149     		ldr	r1, .L395+4
 3037 03e4 FFF7FEFF 		bl	_ZL8chprintfP20BaseSequentialStreamPKcz
 3038 03e8 2046     		mov	r0, r4
 3039 03ea 6949     		ldr	r1, .L395+44
 3040 03ec FFF7FEFF 		bl	_ZL8chprintfP20BaseSequentialStreamPKcz
ARM GAS  /tmp/ccLpOfjJ.s 			page 55


 3041 03f0 2046     		mov	r0, r4
 3042 03f2 6849     		ldr	r1, .L395+48
 3043 03f4 FFF7FEFF 		bl	_ZL8chprintfP20BaseSequentialStreamPKcz
 3044 03f8 3222     		movs	r2, #50
 3045 03fa 0121     		movs	r1, #1
 3046 03fc 6648     		ldr	r0, .L395+52
 3047 03fe FFF7FEFF 		bl	pwmEnableChannel
 3048 0402 4FF47A70 		mov	r0, #1000
 3049 0406 FFF7FEFF 		bl	_ZN10chibios_rt10BaseThread5sleepEm
 3050 040a 6348     		ldr	r0, .L395+52
 3051 040c 0121     		movs	r1, #1
 3052 040e FFF7FEFF 		bl	pwmDisableChannel
 3053 0412 2046     		mov	r0, r4
 3054 0414 5349     		ldr	r1, .L395
 3055 0416 FFF7FEFF 		bl	_ZL8chprintfP20BaseSequentialStreamPKcz
 3056 041a 2046     		mov	r0, r4
 3057 041c 5F49     		ldr	r1, .L395+56
 3058 041e BDE8F84F 		pop	{r3, r4, r5, r6, r7, r8, r9, r10, fp, lr}
 3059 0422 FFF7FEBF 		b	_ZL8chprintfP20BaseSequentialStreamPKcz
 3060              	.L303:
 3061 0426 2046     		mov	r0, r4
 3062 0428 5D49     		ldr	r1, .L395+60
 3063 042a FFF7FEFF 		bl	_ZL8chprintfP20BaseSequentialStreamPKcz
 3064 042e 2CE6     		b	.L304
 3065              	.L376:
 3066 0430 5C49     		ldr	r1, .L395+64
 3067 0432 4A46     		mov	r2, r9
 3068 0434 FFF7FEFF 		bl	_ZL8chprintfP20BaseSequentialStreamPKcz
 3069 0438 50E6     		b	.L306
 3070              	.L331:
 3071 043a 5B49     		ldr	r1, .L395+68
 3072 043c FFF7FEFF 		bl	_ZL8chprintfP20BaseSequentialStreamPKcz
 3073 0440 5A48     		ldr	r0, .L395+72
 3074 0442 FFF7FEFF 		bl	_ZNK5amiro7BQ275006Driver13isBatteryGoodEv
 3075 0446 0646     		mov	r6, r0
 3076 0448 0028     		cmp	r0, #0
 3077 044a 00F0CB80 		beq	.L385
 3078 044e DFF88C81 		ldr	r8, .L395+120
 3079 0452 5749     		ldr	r1, .L395+76
 3080 0454 574A     		ldr	r2, .L395+80
 3081 0456 2046     		mov	r0, r4
 3082 0458 FFF7FEFF 		bl	_ZL8chprintfP20BaseSequentialStreamPKcz
 3083 045c D8F80000 		ldr	r0, [r8]
 3084 0460 0368     		ldr	r3, [r0]
 3085 0462 1B69     		ldr	r3, [r3, #16]
 3086 0464 9847     		blx	r3
 3087 0466 0746     		mov	r7, r0
 3088 0468 5349     		ldr	r1, .L395+84
 3089 046a 2046     		mov	r0, r4
 3090 046c 002F     		cmp	r7, #0
 3091 046e 40F06881 		bne	.L386
 3092 0472 524A     		ldr	r2, .L395+88
 3093 0474 FFF7FEFF 		bl	_ZL8chprintfP20BaseSequentialStreamPKcz
 3094 0478 514A     		ldr	r2, .L395+92
 3095              	.L354:
 3096 047a 2046     		mov	r0, r4
 3097 047c 5149     		ldr	r1, .L395+96
ARM GAS  /tmp/ccLpOfjJ.s 			page 56


 3098 047e DFF83CA1 		ldr	r10, .L395+88
 3099 0482 DFF85C91 		ldr	r9, .L395+124
 3100 0486 FFF7FEFF 		bl	_ZL8chprintfP20BaseSequentialStreamPKcz
 3101 048a D8F80000 		ldr	r0, [r8]
 3102 048e 0368     		ldr	r3, [r0]
 3103 0490 87F00101 		eor	r1, r7, #1
 3104 0494 C9B2     		uxtb	r1, r1
 3105 0496 9B68     		ldr	r3, [r3, #8]
 3106 0498 9847     		blx	r3
 3107 049a 40F2DC50 		movw	r0, #1500
 3108 049e FFF7FEFF 		bl	_ZN10chibios_rt10BaseThread5sleepEm
 3109 04a2 D8F80000 		ldr	r0, [r8]
 3110 04a6 0368     		ldr	r3, [r0]
 3111 04a8 1B69     		ldr	r3, [r3, #16]
 3112 04aa 9847     		blx	r3
 3113 04ac 4249     		ldr	r1, .L395+84
 3114 04ae 0028     		cmp	r0, #0
 3115 04b0 0CBF     		ite	eq
 3116 04b2 5246     		moveq	r2, r10
 3117 04b4 4A46     		movne	r2, r9
 3118 04b6 8346     		mov	fp, r0
 3119 04b8 2046     		mov	r0, r4
 3120 04ba FFF7FEFF 		bl	_ZL8chprintfP20BaseSequentialStreamPKcz
 3121 04be 424B     		ldr	r3, .L395+100
 3122 04c0 3F4A     		ldr	r2, .L395+92
 3123 04c2 4049     		ldr	r1, .L395+96
 3124 04c4 002F     		cmp	r7, #0
 3125 04c6 08BF     		it	eq
 3126 04c8 1A46     		moveq	r2, r3
 3127 04ca 2046     		mov	r0, r4
 3128 04cc FFF7FEFF 		bl	_ZL8chprintfP20BaseSequentialStreamPKcz
 3129 04d0 D8F80000 		ldr	r0, [r8]
 3130 04d4 0368     		ldr	r3, [r0]
 3131 04d6 3946     		mov	r1, r7
 3132 04d8 9B68     		ldr	r3, [r3, #8]
 3133 04da 9847     		blx	r3
 3134 04dc 40F2DC50 		movw	r0, #1500
 3135 04e0 FFF7FEFF 		bl	_ZN10chibios_rt10BaseThread5sleepEm
 3136 04e4 D8F80000 		ldr	r0, [r8]
 3137 04e8 0368     		ldr	r3, [r0]
 3138 04ea 1B69     		ldr	r3, [r3, #16]
 3139 04ec 9847     		blx	r3
 3140 04ee 3249     		ldr	r1, .L395+84
 3141 04f0 0028     		cmp	r0, #0
 3142 04f2 0CBF     		ite	eq
 3143 04f4 5246     		moveq	r2, r10
 3144 04f6 4A46     		movne	r2, r9
 3145 04f8 8046     		mov	r8, r0
 3146 04fa 2046     		mov	r0, r4
 3147 04fc FFF7FEFF 		bl	_ZL8chprintfP20BaseSequentialStreamPKcz
 3148 0500 BB45     		cmp	fp, r7
 3149 0502 02D0     		beq	.L338
 3150 0504 B845     		cmp	r8, r7
 3151 0506 00F08D81 		beq	.L387
 3152              	.L338:
 3153 050a 2046     		mov	r0, r4
 3154 050c 2F49     		ldr	r1, .L395+104
ARM GAS  /tmp/ccLpOfjJ.s 			page 57


 3155 050e FFF7FEFF 		bl	_ZL8chprintfP20BaseSequentialStreamPKcz
 3156 0512 2046     		mov	r0, r4
 3157 0514 2E49     		ldr	r1, .L395+108
 3158 0516 FFF7FEFF 		bl	_ZL8chprintfP20BaseSequentialStreamPKcz
 3159 051a 0026     		movs	r6, #0
 3160              	.L355:
 3161 051c 2046     		mov	r0, r4
 3162 051e 1249     		ldr	r1, .L395+4
 3163 0520 FFF7FEFF 		bl	_ZL8chprintfP20BaseSequentialStreamPKcz
 3164 0524 68E0     		b	.L352
 3165              	.L319:
 3166 0526 2B49     		ldr	r1, .L395+112
 3167 0528 FFF7FEFF 		bl	_ZL8chprintfP20BaseSequentialStreamPKcz
 3168 052c 53E6     		b	.L320
 3169              	.L313:
 3170 052e 2949     		ldr	r1, .L395+112
 3171 0530 FFF7FEFF 		bl	_ZL8chprintfP20BaseSequentialStreamPKcz
 3172 0534 12E6     		b	.L312
 3173              	.L310:
 3174 0536 2749     		ldr	r1, .L395+112
 3175 0538 FFF7FEFF 		bl	_ZL8chprintfP20BaseSequentialStreamPKcz
 3176 053c EEE5     		b	.L309
 3177              	.L316:
 3178 053e 2549     		ldr	r1, .L395+112
 3179 0540 FFF7FEFF 		bl	_ZL8chprintfP20BaseSequentialStreamPKcz
 3180 0544 27E6     		b	.L315
 3181              	.L384:
 3182 0546 2046     		mov	r0, r4
 3183 0548 2349     		ldr	r1, .L395+116
 3184 054a FFF7FEFF 		bl	_ZL8chprintfP20BaseSequentialStreamPKcz
 3185 054e 3BE7     		b	.L349
 3186              	.L327:
 3187 0550 2046     		mov	r0, r4
 3188 0552 2049     		ldr	r1, .L395+112
 3189 0554 FFF7FEFF 		bl	_ZL8chprintfP20BaseSequentialStreamPKcz
 3190 0558 9BE6     		b	.L322
 3191              	.L326:
 3192 055a 3946     		mov	r1, r7
 3193 055c 2046     		mov	r0, r4
 3194 055e FFF7FEFF 		bl	_ZL8chprintfP20BaseSequentialStreamPKcz
 3195 0562 78E6     		b	.L325
 3196              	.L396:
 3197              		.align	2
 3198              	.L395:
 3199 0564 78080000 		.word	.LC86
 3200 0568 40000000 		.word	.LC10
 3201 056c 30100000 		.word	.LC171
 3202 0570 3C100000 		.word	.LC172
 3203 0574 90150000 		.word	.LANCHOR0+5520
 3204 0578 5C100000 		.word	.LC174
 3205 057c 7C100000 		.word	.LC175
 3206 0580 8C100000 		.word	.LC176
 3207 0584 9C100000 		.word	.LC177
 3208 0588 AC100000 		.word	.LC178
 3209 058c B4100000 		.word	.LC179
 3210 0590 B8100000 		.word	.LC180
 3211 0594 CC100000 		.word	.LC181
ARM GAS  /tmp/ccLpOfjJ.s 			page 58


 3212 0598 00000000 		.word	PWMD3
 3213 059c FC100000 		.word	.LC182
 3214 05a0 8C0E0000 		.word	.LC147
 3215 05a4 D40E0000 		.word	.LC152
 3216 05a8 480F0000 		.word	.LC159
 3217 05ac 30100000 		.word	.LANCHOR0+4144
 3218 05b0 0C110000 		.word	.LC183
 3219 05b4 4C110000 		.word	.LC186
 3220 05b8 1C100000 		.word	.LC170
 3221 05bc F80D0000 		.word	.LC139
 3222 05c0 F00D0000 		.word	.LC137
 3223 05c4 04100000 		.word	.LC169
 3224 05c8 EC0D0000 		.word	.LC136
 3225 05cc C00E0000 		.word	.LC150
 3226 05d0 E00D0000 		.word	.LC134
 3227 05d4 E80D0000 		.word	.LC135
 3228 05d8 54100000 		.word	.LC173
 3229 05dc 80150000 		.word	.LANCHOR0+5504
 3230 05e0 F40D0000 		.word	.LC138
 3231              	.L385:
 3232 05e4 2046     		mov	r0, r4
 3233 05e6 9449     		ldr	r1, .L397
 3234 05e8 944A     		ldr	r2, .L397+4
 3235 05ea FFF7FEFF 		bl	_ZL8chprintfP20BaseSequentialStreamPKcz
 3236 05ee 2046     		mov	r0, r4
 3237 05f0 9349     		ldr	r1, .L397+8
 3238 05f2 FFF7FEFF 		bl	_ZL8chprintfP20BaseSequentialStreamPKcz
 3239 05f6 0126     		movs	r6, #1
 3240              	.L352:
 3241 05f8 2046     		mov	r0, r4
 3242 05fa 9249     		ldr	r1, .L397+12
 3243 05fc 924F     		ldr	r7, .L397+16
 3244 05fe FFF7FEFF 		bl	_ZL8chprintfP20BaseSequentialStreamPKcz
 3245 0602 2046     		mov	r0, r4
 3246 0604 9149     		ldr	r1, .L397+20
 3247 0606 FFF7FEFF 		bl	_ZL8chprintfP20BaseSequentialStreamPKcz
 3248 060a 9148     		ldr	r0, .L397+24
 3249 060c FFF7FEFF 		bl	_ZNK5amiro7BQ275006Driver13isBatteryGoodEv
 3250 0610 0028     		cmp	r0, #0
 3251 0612 75D0     		beq	.L388
 3252 0614 8849     		ldr	r1, .L397
 3253 0616 8F4A     		ldr	r2, .L397+28
 3254 0618 2046     		mov	r0, r4
 3255 061a FFF7FEFF 		bl	_ZL8chprintfP20BaseSequentialStreamPKcz
 3256 061e 41F28453 		movw	r3, #5508
 3257 0622 F858     		ldr	r0, [r7, r3]
 3258 0624 0368     		ldr	r3, [r0]
 3259 0626 1B69     		ldr	r3, [r3, #16]
 3260 0628 9847     		blx	r3
 3261 062a 0746     		mov	r7, r0
 3262 062c 8A49     		ldr	r1, .L397+32
 3263 062e 2046     		mov	r0, r4
 3264 0630 002F     		cmp	r7, #0
 3265 0632 40F08180 		bne	.L358
 3266 0636 894A     		ldr	r2, .L397+36
 3267 0638 FFF7FEFF 		bl	_ZL8chprintfP20BaseSequentialStreamPKcz
 3268 063c 884A     		ldr	r2, .L397+40
ARM GAS  /tmp/ccLpOfjJ.s 			page 59


 3269              	.L359:
 3270 063e 41F28458 		movw	r8, #5508
 3271 0642 2046     		mov	r0, r4
 3272 0644 8749     		ldr	r1, .L397+44
 3273 0646 DFF83892 		ldr	r9, .L397+72
 3274 064a FFF7FEFF 		bl	_ZL8chprintfP20BaseSequentialStreamPKcz
 3275 064e 55F80800 		ldr	r0, [r5, r8]
 3276 0652 0368     		ldr	r3, [r0]
 3277 0654 87F00101 		eor	r1, r7, #1
 3278 0658 C9B2     		uxtb	r1, r1
 3279 065a 9B68     		ldr	r3, [r3, #8]
 3280 065c 9847     		blx	r3
 3281 065e 40F2DC50 		movw	r0, #1500
 3282 0662 FFF7FEFF 		bl	_ZN10chibios_rt10BaseThread5sleepEm
 3283 0666 55F80800 		ldr	r0, [r5, r8]
 3284 066a 0368     		ldr	r3, [r0]
 3285 066c 1B69     		ldr	r3, [r3, #16]
 3286 066e 9847     		blx	r3
 3287 0670 7A4A     		ldr	r2, .L397+36
 3288 0672 7949     		ldr	r1, .L397+32
 3289 0674 0028     		cmp	r0, #0
 3290 0676 18BF     		it	ne
 3291 0678 4A46     		movne	r2, r9
 3292 067a 8246     		mov	r10, r0
 3293 067c 2046     		mov	r0, r4
 3294 067e FFF7FEFF 		bl	_ZL8chprintfP20BaseSequentialStreamPKcz
 3295 0682 794B     		ldr	r3, .L397+48
 3296 0684 764A     		ldr	r2, .L397+40
 3297 0686 7749     		ldr	r1, .L397+44
 3298 0688 002F     		cmp	r7, #0
 3299 068a 08BF     		it	eq
 3300 068c 1A46     		moveq	r2, r3
 3301 068e 2046     		mov	r0, r4
 3302 0690 FFF7FEFF 		bl	_ZL8chprintfP20BaseSequentialStreamPKcz
 3303 0694 55F80800 		ldr	r0, [r5, r8]
 3304 0698 0368     		ldr	r3, [r0]
 3305 069a 3946     		mov	r1, r7
 3306 069c 9B68     		ldr	r3, [r3, #8]
 3307 069e 9847     		blx	r3
 3308 06a0 40F2DC50 		movw	r0, #1500
 3309 06a4 FFF7FEFF 		bl	_ZN10chibios_rt10BaseThread5sleepEm
 3310 06a8 55F80800 		ldr	r0, [r5, r8]
 3311 06ac 0368     		ldr	r3, [r0]
 3312 06ae 1B69     		ldr	r3, [r3, #16]
 3313 06b0 9847     		blx	r3
 3314 06b2 6E4A     		ldr	r2, .L397+52
 3315 06b4 6849     		ldr	r1, .L397+32
 3316 06b6 0028     		cmp	r0, #0
 3317 06b8 18BF     		it	ne
 3318 06ba 4A46     		movne	r2, r9
 3319 06bc 0546     		mov	r5, r0
 3320 06be 2046     		mov	r0, r4
 3321 06c0 FFF7FEFF 		bl	_ZL8chprintfP20BaseSequentialStreamPKcz
 3322 06c4 BA45     		cmp	r10, r7
 3323 06c6 02D0     		beq	.L345
 3324 06c8 BD42     		cmp	r5, r7
 3325 06ca 00F0A080 		beq	.L389
ARM GAS  /tmp/ccLpOfjJ.s 			page 60


 3326              	.L345:
 3327 06ce 2046     		mov	r0, r4
 3328 06d0 6749     		ldr	r1, .L397+56
 3329 06d2 FFF7FEFF 		bl	_ZL8chprintfP20BaseSequentialStreamPKcz
 3330 06d6 2046     		mov	r0, r4
 3331 06d8 6649     		ldr	r1, .L397+60
 3332 06da FFF7FEFF 		bl	_ZL8chprintfP20BaseSequentialStreamPKcz
 3333 06de 2046     		mov	r0, r4
 3334 06e0 5849     		ldr	r1, .L397+12
 3335 06e2 FFF7FEFF 		bl	_ZL8chprintfP20BaseSequentialStreamPKcz
 3336 06e6 2046     		mov	r0, r4
 3337 06e8 5649     		ldr	r1, .L397+12
 3338 06ea FFF7FEFF 		bl	_ZL8chprintfP20BaseSequentialStreamPKcz
 3339 06ee 2046     		mov	r0, r4
 3340 06f0 6149     		ldr	r1, .L397+64
 3341 06f2 FFF7FEFF 		bl	_ZL8chprintfP20BaseSequentialStreamPKcz
 3342              	.L360:
 3343 06f6 2046     		mov	r0, r4
 3344 06f8 5E49     		ldr	r1, .L397+60
 3345 06fa FFF7FEFF 		bl	_ZL8chprintfP20BaseSequentialStreamPKcz
 3346 06fe 16E0     		b	.L347
 3347              	.L388:
 3348 0700 2046     		mov	r0, r4
 3349 0702 4D49     		ldr	r1, .L397
 3350 0704 4D4A     		ldr	r2, .L397+4
 3351 0706 FFF7FEFF 		bl	_ZL8chprintfP20BaseSequentialStreamPKcz
 3352 070a 4D49     		ldr	r1, .L397+8
 3353 070c 2046     		mov	r0, r4
 3354              	.L372:
 3355 070e FFF7FEFF 		bl	_ZL8chprintfP20BaseSequentialStreamPKcz
 3356 0712 2046     		mov	r0, r4
 3357 0714 4B49     		ldr	r1, .L397+12
 3358 0716 FFF7FEFF 		bl	_ZL8chprintfP20BaseSequentialStreamPKcz
 3359 071a 2046     		mov	r0, r4
 3360 071c 5649     		ldr	r1, .L397+64
 3361 071e FFF7FEFF 		bl	_ZL8chprintfP20BaseSequentialStreamPKcz
 3362 0722 002E     		cmp	r6, #0
 3363 0724 E7D0     		beq	.L360
 3364 0726 2046     		mov	r0, r4
 3365 0728 5449     		ldr	r1, .L397+68
 3366 072a FFF7FEFF 		bl	_ZL8chprintfP20BaseSequentialStreamPKcz
 3367              	.L347:
 3368 072e 2046     		mov	r0, r4
 3369 0730 4449     		ldr	r1, .L397+12
 3370 0732 FFF7FEFF 		bl	_ZL8chprintfP20BaseSequentialStreamPKcz
 3371 0736 1BE6     		b	.L332
 3372              	.L358:
 3373 0738 514A     		ldr	r2, .L397+72
 3374 073a FFF7FEFF 		bl	_ZL8chprintfP20BaseSequentialStreamPKcz
 3375 073e 4A4A     		ldr	r2, .L397+48
 3376 0740 7DE7     		b	.L359
 3377              	.L386:
 3378 0742 4F4A     		ldr	r2, .L397+72
 3379 0744 FFF7FEFF 		bl	_ZL8chprintfP20BaseSequentialStreamPKcz
 3380 0748 474A     		ldr	r2, .L397+48
 3381 074a 96E6     		b	.L354
 3382              	.L383:
ARM GAS  /tmp/ccLpOfjJ.s 			page 61


 3383 074c 2046     		mov	r0, r4
 3384 074e 4D49     		ldr	r1, .L397+76
 3385 0750 FFF7FEFF 		bl	_ZL8chprintfP20BaseSequentialStreamPKcz
 3386 0754 AEE5     		b	.L329
 3387              	.L380:
 3388 0756 4C49     		ldr	r1, .L397+80
 3389 0758 FFF7FEFF 		bl	_ZL8chprintfP20BaseSequentialStreamPKcz
 3390 075c 2046     		mov	r0, r4
 3391 075e 4B49     		ldr	r1, .L397+84
 3392 0760 FFF7FEFF 		bl	_ZL8chprintfP20BaseSequentialStreamPKcz
 3393              	.L318:
 3394 0764 2046     		mov	r0, r4
 3395 0766 4A49     		ldr	r1, .L397+88
 3396 0768 FFF7FEFF 		bl	_ZL8chprintfP20BaseSequentialStreamPKcz
 3397 076c 2046     		mov	r0, r4
 3398 076e 4949     		ldr	r1, .L397+92
 3399 0770 FFF7FEFF 		bl	_ZL8chprintfP20BaseSequentialStreamPKcz
 3400 0774 2046     		mov	r0, r4
 3401 0776 3349     		ldr	r1, .L397+12
 3402 0778 FFF7FEFF 		bl	_ZL8chprintfP20BaseSequentialStreamPKcz
 3403 077c 2046     		mov	r0, r4
 3404 077e 4649     		ldr	r1, .L397+96
 3405 0780 FFF7FEFF 		bl	_ZL8chprintfP20BaseSequentialStreamPKcz
 3406 0784 2046     		mov	r0, r4
 3407 0786 4549     		ldr	r1, .L397+100
 3408 0788 FFF7FEFF 		bl	_ZL8chprintfP20BaseSequentialStreamPKcz
 3409 078c 41F23003 		movw	r3, #4144
 3410 0790 4348     		ldr	r0, .L397+104
 3411 0792 EB58     		ldr	r3, [r5, r3]
 3412 0794 DB69     		ldr	r3, [r3, #28]
 3413 0796 9847     		blx	r3
 3414 0798 4249     		ldr	r1, .L397+108
 3415 079a 0646     		mov	r6, r0
 3416 079c 2046     		mov	r0, r4
 3417 079e FFF7FEFF 		bl	_ZL8chprintfP20BaseSequentialStreamPKcz
 3418 07a2 2046     		mov	r0, r4
 3419 07a4 3849     		ldr	r1, .L397+80
 3420 07a6 FFF7FEFF 		bl	_ZL8chprintfP20BaseSequentialStreamPKcz
 3421 07aa 2046     		mov	r0, r4
 3422 07ac 3749     		ldr	r1, .L397+84
 3423 07ae FFF7FEFF 		bl	_ZL8chprintfP20BaseSequentialStreamPKcz
 3424 07b2 2046     		mov	r0, r4
 3425 07b4 2549     		ldr	r1, .L397+20
 3426 07b6 FFF7FEFF 		bl	_ZL8chprintfP20BaseSequentialStreamPKcz
 3427 07ba 41F2D023 		movw	r3, #4816
 3428 07be 2448     		ldr	r0, .L397+24
 3429 07c0 EB58     		ldr	r3, [r5, r3]
 3430 07c2 DB69     		ldr	r3, [r3, #28]
 3431 07c4 9847     		blx	r3
 3432 07c6 3849     		ldr	r1, .L397+112
 3433 07c8 0746     		mov	r7, r0
 3434 07ca 2046     		mov	r0, r4
 3435 07cc FFF7FEFF 		bl	_ZL8chprintfP20BaseSequentialStreamPKcz
 3436 07d0 2046     		mov	r0, r4
 3437 07d2 2D49     		ldr	r1, .L397+80
 3438 07d4 FFF7FEFF 		bl	_ZL8chprintfP20BaseSequentialStreamPKcz
 3439 07d8 5BE5     		b	.L322
ARM GAS  /tmp/ccLpOfjJ.s 			page 62


 3440              	.L379:
 3441 07da 2B49     		ldr	r1, .L397+80
 3442 07dc FFF7FEFF 		bl	_ZL8chprintfP20BaseSequentialStreamPKcz
 3443 07e0 D9E4     		b	.L315
 3444              	.L378:
 3445 07e2 2949     		ldr	r1, .L397+80
 3446 07e4 FFF7FEFF 		bl	_ZL8chprintfP20BaseSequentialStreamPKcz
 3447 07e8 B8E4     		b	.L312
 3448              	.L377:
 3449 07ea 2749     		ldr	r1, .L397+80
 3450 07ec FFF7FEFF 		bl	_ZL8chprintfP20BaseSequentialStreamPKcz
 3451 07f0 94E4     		b	.L309
 3452              	.L375:
 3453 07f2 2549     		ldr	r1, .L397+80
 3454 07f4 FFF7FEFF 		bl	_ZL8chprintfP20BaseSequentialStreamPKcz
 3455 07f8 70E4     		b	.L306
 3456              	.L382:
 3457 07fa 2046     		mov	r0, r4
 3458 07fc 2B49     		ldr	r1, .L397+116
 3459 07fe FFF7FEFF 		bl	_ZL8chprintfP20BaseSequentialStreamPKcz
 3460 0802 46E5     		b	.L322
 3461              	.L381:
 3462 0804 2046     		mov	r0, r4
 3463 0806 2949     		ldr	r1, .L397+116
 3464 0808 FFF7FEFF 		bl	_ZL8chprintfP20BaseSequentialStreamPKcz
 3465 080c 23E5     		b	.L325
 3466              	.L389:
 3467 080e 2046     		mov	r0, r4
 3468 0810 1749     		ldr	r1, .L397+56
 3469 0812 FFF7FEFF 		bl	_ZL8chprintfP20BaseSequentialStreamPKcz
 3470 0816 2046     		mov	r0, r4
 3471 0818 1849     		ldr	r1, .L397+68
 3472 081a FFF7FEFF 		bl	_ZL8chprintfP20BaseSequentialStreamPKcz
 3473 081e 2046     		mov	r0, r4
 3474 0820 0849     		ldr	r1, .L397+12
 3475 0822 74E7     		b	.L372
 3476              	.L387:
 3477 0824 2046     		mov	r0, r4
 3478 0826 1249     		ldr	r1, .L397+56
 3479 0828 FFF7FEFF 		bl	_ZL8chprintfP20BaseSequentialStreamPKcz
 3480 082c 2046     		mov	r0, r4
 3481 082e 1349     		ldr	r1, .L397+68
 3482 0830 FFF7FEFF 		bl	_ZL8chprintfP20BaseSequentialStreamPKcz
 3483 0834 72E6     		b	.L355
 3484              	.L398:
 3485 0836 00BF     		.align	2
 3486              	.L397:
 3487 0838 0C110000 		.word	.LC183
 3488 083c 20110000 		.word	.LC184
 3489 0840 24110000 		.word	.LC185
 3490 0844 40000000 		.word	.LC10
 3491 0848 00000000 		.word	.LANCHOR0
 3492 084c 580F0000 		.word	.LC161
 3493 0850 D0120000 		.word	.LANCHOR0+4816
 3494 0854 4C110000 		.word	.LC186
 3495 0858 1C100000 		.word	.LC170
 3496 085c F80D0000 		.word	.LC139
ARM GAS  /tmp/ccLpOfjJ.s 			page 63


 3497 0860 F00D0000 		.word	.LC137
 3498 0864 04100000 		.word	.LC169
 3499 0868 EC0D0000 		.word	.LC136
 3500 086c 000E0000 		.word	.LC140
 3501 0870 C00E0000 		.word	.LC150
 3502 0874 E00D0000 		.word	.LC134
 3503 0878 50110000 		.word	.LC187
 3504 087c E80D0000 		.word	.LC135
 3505 0880 F40D0000 		.word	.LC138
 3506 0884 940F0000 		.word	.LC165
 3507 0888 C40E0000 		.word	.LC151
 3508 088c CC0D0000 		.word	.LC132
 3509 0890 200F0000 		.word	.LC157
 3510 0894 78080000 		.word	.LC86
 3511 0898 3C0F0000 		.word	.LC158
 3512 089c 480F0000 		.word	.LC159
 3513 08a0 30100000 		.word	.LANCHOR0+4144
 3514 08a4 500F0000 		.word	.LC160
 3515 08a8 600F0000 		.word	.LC162
 3516 08ac 780F0000 		.word	.LC164
 3517              		.size	_Z19boardPeripheryCheckP20BaseSequentialStream, .-_Z19boardPeripheryCheckP20BaseSequentialSt
 3518              		.section	.text._Z17shellRequestCheckP20BaseSequentialStreamiPPc,"ax",%progbits
 3519              		.align	2
 3520              		.p2align 4,,15
 3521              		.global	_Z17shellRequestCheckP20BaseSequentialStreamiPPc
 3522              		.thumb
 3523              		.thumb_func
 3524              		.type	_Z17shellRequestCheckP20BaseSequentialStreamiPPc, %function
 3525              	_Z17shellRequestCheckP20BaseSequentialStreamiPPc:
 3526              		@ args = 0, pretend = 0, frame = 0
 3527              		@ frame_needed = 0, uses_anonymous_args = 0
 3528 0000 10B5     		push	{r4, lr}
 3529 0002 0449     		ldr	r1, .L400
 3530 0004 0446     		mov	r4, r0
 3531 0006 FFF7FEFF 		bl	_ZL8chprintfP20BaseSequentialStreamPKcz
 3532 000a 2046     		mov	r0, r4
 3533 000c BDE81040 		pop	{r4, lr}
 3534 0010 FFF7FEBF 		b	_Z19boardPeripheryCheckP20BaseSequentialStream
 3535              	.L401:
 3536              		.align	2
 3537              	.L400:
 3538 0014 60110000 		.word	.LC188
 3539              		.size	_Z17shellRequestCheckP20BaseSequentialStreamiPPc, .-_Z17shellRequestCheckP20BaseSequentialSt
 3540 0018 AFF30080 		.section	.text._Z13charger_logicv,"ax",%progbits
 3540      AFF30080 
 3541              		.align	2
 3542              		.p2align 4,,15
 3543              		.global	_Z13charger_logicv
 3544              		.thumb
 3545              		.thumb_func
 3546              		.type	_Z13charger_logicv, %function
 3547              	_Z13charger_logicv:
 3548              		@ args = 0, pretend = 0, frame = 0
 3549              		@ frame_needed = 0, uses_anonymous_args = 0
 3550 0000 08B5     		push	{r3, lr}
 3551 0002 0C4B     		ldr	r3, .L405
 3552 0004 1969     		ldr	r1, [r3, #16]
ARM GAS  /tmp/ccLpOfjJ.s 			page 64


 3553 0006 11F48071 		ands	r1, r1, #256
 3554 000a 4FF00300 		mov	r0, #3
 3555 000e 07D1     		bne	.L404
 3556 0010 FFF7FEFF 		bl	boardChargerSetState
 3557 0014 0848     		ldr	r0, .L405+4
 3558 0016 0949     		ldr	r1, .L405+8
 3559 0018 BDE80840 		pop	{r3, lr}
 3560 001c FFF7FEBF 		b	_ZL8chprintfP20BaseSequentialStreamPKcz
 3561              	.L404:
 3562 0020 0121     		movs	r1, #1
 3563 0022 FFF7FEFF 		bl	boardChargerSetState
 3564 0026 0448     		ldr	r0, .L405+4
 3565 0028 0549     		ldr	r1, .L405+12
 3566 002a BDE80840 		pop	{r3, lr}
 3567 002e FFF7FEBF 		b	_ZL8chprintfP20BaseSequentialStreamPKcz
 3568              	.L406:
 3569 0032 00BF     		.align	2
 3570              	.L405:
 3571 0034 00080240 		.word	1073874944
 3572 0038 00000000 		.word	SD1
 3573 003c 80110000 		.word	.LC190
 3574 0040 74110000 		.word	.LC189
 3575              		.size	_Z13charger_logicv, .-_Z13charger_logicv
 3576 0044 AFF30080 		.section	.text._Z17init_powermonitorRN5amiro6INA2196DriverEfft,"ax",%progbits
 3576      AFF30080 
 3576      AFF30080 
 3577              		.align	2
 3578              		.p2align 4,,15
 3579              		.global	_Z17init_powermonitorRN5amiro6INA2196DriverEfft
 3580              		.thumb
 3581              		.thumb_func
 3582              		.type	_Z17init_powermonitorRN5amiro6INA2196DriverEfft, %function
 3583              	_Z17init_powermonitorRN5amiro6INA2196DriverEfft:
 3584              		@ args = 0, pretend = 0, frame = 32
 3585              		@ frame_needed = 0, uses_anonymous_args = 0
 3586 0000 10B5     		push	{r4, lr}
 3587 0002 88B0     		sub	sp, sp, #32
 3588 0004 8DED020A 		fsts	s0, [sp, #8]
 3589 0008 9DF81330 		ldrb	r3, [sp, #19]	@ zero_extendqisi2
 3590 000c ADF81010 		strh	r1, [sp, #16]	@ movhi
 3591 0010 03F0DF03 		and	r3, r3, #223
 3592 0014 6FF3C403 		bfc	r3, #3, #2
 3593 0018 8DF81330 		strb	r3, [sp, #19]
 3594 001c BDF81230 		ldrh	r3, [sp, #18]
 3595 0020 0268     		ldr	r2, [r0]
 3596 0022 CDED030A 		fsts	s1, [sp, #12]
 3597 0026 43F4F063 		orr	r3, r3, #1920
 3598 002a D9B2     		uxtb	r1, r3
 3599 002c ADF81230 		strh	r3, [sp, #18]	@ movhi
 3600 0030 41F07F03 		orr	r3, r1, #127
 3601 0034 8DF81230 		strb	r3, [sp, #18]
 3602 0038 02A9     		add	r1, sp, #8
 3603 003a 9369     		ldr	r3, [r2, #24]
 3604 003c 0446     		mov	r4, r0
 3605 003e 9847     		blx	r3
 3606 0040 E8B9     		cbnz	r0, .L417
 3607              	.L408:
ARM GAS  /tmp/ccLpOfjJ.s 			page 65


 3608 0042 2368     		ldr	r3, [r4]
 3609 0044 BDF81200 		ldrh	r0, [sp, #18]
 3610 0048 BDF81E10 		ldrh	r1, [sp, #30]
 3611 004c BDF81C20 		ldrh	r2, [sp, #28]
 3612 0050 ADF80000 		strh	r0, [sp]	@ movhi
 3613 0054 ADF80210 		strh	r1, [sp, #2]	@ movhi
 3614 0058 9B68     		ldr	r3, [r3, #8]
 3615 005a ADF80420 		strh	r2, [sp, #4]	@ movhi
 3616 005e 2046     		mov	r0, r4
 3617 0060 6946     		mov	r1, sp
 3618 0062 9847     		blx	r3
 3619 0064 80B9     		cbnz	r0, .L418
 3620              	.L409:
 3621 0066 BDF81020 		ldrh	r2, [sp, #16]
 3622 006a BDF80430 		ldrh	r3, [sp, #4]
 3623 006e 9A42     		cmp	r2, r3
 3624 0070 03D0     		beq	.L407
 3625 0072 0848     		ldr	r0, .L419
 3626 0074 0849     		ldr	r1, .L419+4
 3627 0076 FFF7FEFF 		bl	_ZL8chprintfP20BaseSequentialStreamPKcz
 3628              	.L407:
 3629 007a 08B0     		add	sp, sp, #32
 3630              		@ sp needed
 3631 007c 10BD     		pop	{r4, pc}
 3632              	.L417:
 3633 007e 0548     		ldr	r0, .L419
 3634 0080 0649     		ldr	r1, .L419+8
 3635 0082 FFF7FEFF 		bl	_ZL8chprintfP20BaseSequentialStreamPKcz
 3636 0086 DCE7     		b	.L408
 3637              	.L418:
 3638 0088 0248     		ldr	r0, .L419
 3639 008a 0549     		ldr	r1, .L419+12
 3640 008c FFF7FEFF 		bl	_ZL8chprintfP20BaseSequentialStreamPKcz
 3641 0090 E9E7     		b	.L409
 3642              	.L420:
 3643 0092 00BF     		.align	2
 3644              	.L419:
 3645 0094 00000000 		.word	SD1
 3646 0098 E4110000 		.word	.LC193
 3647 009c 90110000 		.word	.LC191
 3648 00a0 B8110000 		.word	.LC192
 3649              		.size	_Z17init_powermonitorRN5amiro6INA2196DriverEfft, .-_Z17init_powermonitorRN5amiro6INA2196Driv
 3650 00a4 AFF30080 		.section	.text._ZN10chibios_rt16BaseStaticThreadILi256EE5startEm,"axG",%progbits,_ZN10chibios_rt16
 3650      AFF30080 
 3650      AFF30080 
 3651              		.align	2
 3652              		.p2align 4,,15
 3653              		.weak	_ZN10chibios_rt16BaseStaticThreadILi256EE5startEm
 3654              		.thumb
 3655              		.thumb_func
 3656              		.type	_ZN10chibios_rt16BaseStaticThreadILi256EE5startEm, %function
 3657              	_ZN10chibios_rt16BaseStaticThreadILi256EE5startEm:
 3658              		@ args = 0, pretend = 0, frame = 0
 3659              		@ frame_needed = 0, uses_anonymous_args = 0
 3660 0000 30B5     		push	{r4, r5, lr}
 3661 0002 83B0     		sub	sp, sp, #12
 3662 0004 0D46     		mov	r5, r1
ARM GAS  /tmp/ccLpOfjJ.s 			page 66


 3663 0006 0446     		mov	r4, r0
 3664 0008 0091     		str	r1, [sp]
 3665 000a 05F10800 		add	r0, r5, #8
 3666 000e 4FF41671 		mov	r1, #600
 3667 0012 054B     		ldr	r3, .L422
 3668 0014 FFF7FEFF 		bl	chThdCreateStatic
 3669 0018 044A     		ldr	r2, .L422+4
 3670 001a 6860     		str	r0, [r5, #4]
 3671 001c 0346     		mov	r3, r0
 3672 001e 2046     		mov	r0, r4
 3673 0020 84E80C00 		stmia	r4, {r2, r3}
 3674 0024 03B0     		add	sp, sp, #12
 3675              		@ sp needed
 3676 0026 30BD     		pop	{r4, r5, pc}
 3677              	.L423:
 3678              		.align	2
 3679              	.L422:
 3680 0028 00000000 		.word	_ZN10chibios_rt10_thd_startEPv
 3681 002c 08000000 		.word	_ZTVN10chibios_rt15ThreadReferenceE+8
 3682              		.size	_ZN10chibios_rt16BaseStaticThreadILi256EE5startEm, .-_ZN10chibios_rt16BaseStaticThreadILi256
 3683              		.section	.text.startup.main,"ax",%progbits
 3684              		.align	2
 3685              		.p2align 4,,15
 3686              		.global	main
 3687              		.thumb
 3688              		.thumb_func
 3689              		.type	main, %function
 3690              	main:
 3691              		@ args = 0, pretend = 0, frame = 16
 3692              		@ frame_needed = 0, uses_anonymous_args = 0
 3693 0000 2DE9F04F 		push	{r4, r5, r6, r7, r8, r9, r10, fp, lr}
 3694 0004 87B0     		sub	sp, sp, #28
 3695 0006 FFF7FEFF 		bl	halInit
 3696 000a FFF7FEFF 		bl	_ZN10chibios_rt6System4initEv
 3697 000e 8048     		ldr	r0, .L471
 3698 0010 8049     		ldr	r1, .L471+4
 3699 0012 FFF7FEFF 		bl	sdStart
 3700 0016 7E48     		ldr	r0, .L471
 3701 0018 7F49     		ldr	r1, .L471+8
 3702 001a FFF7FEFF 		bl	_ZL8chprintfP20BaseSequentialStreamPKcz
 3703 001e 7C48     		ldr	r0, .L471
 3704 0020 7E49     		ldr	r1, .L471+12
 3705 0022 FFF7FEFF 		bl	_ZL8chprintfP20BaseSequentialStreamPKcz
 3706 0026 7E4B     		ldr	r3, .L471+16
 3707 0028 7E4A     		ldr	r2, .L471+20
 3708 002a 1B68     		ldr	r3, [r3]
 3709 002c 9342     		cmp	r3, r2
 3710 002e 00F01982 		beq	.L426
 3711 0032 7D4A     		ldr	r2, .L471+24
 3712 0034 9342     		cmp	r3, r2
 3713 0036 40F01082 		bne	.L463
 3714 003a 7C4B     		ldr	r3, .L471+28
 3715 003c 7448     		ldr	r0, .L471
 3716 003e 1A68     		ldr	r2, [r3]
 3717 0040 0092     		str	r2, [sp]
 3718 0042 1346     		mov	r3, r2
 3719 0044 7A49     		ldr	r1, .L471+32
ARM GAS  /tmp/ccLpOfjJ.s 			page 67


 3720 0046 FFF7FEFF 		bl	_ZL8chprintfP20BaseSequentialStreamPKcz
 3721              	.L428:
 3722 004a 7A49     		ldr	r1, .L471+36
 3723 004c 7048     		ldr	r0, .L471
 3724 004e 714D     		ldr	r5, .L471+4
 3725 0050 FFF7FEFF 		bl	_ZL8chprintfP20BaseSequentialStreamPKcz
 3726 0054 0A20     		movs	r0, #10
 3727 0056 FFF7FEFF 		bl	_ZN10chibios_rt10BaseThread5sleepEm
 3728 005a 7E22     		movs	r2, #126
 3729 005c 02A8     		add	r0, sp, #8
 3730 005e 7649     		ldr	r1, .L471+40
 3731 0060 FFF7FEFF 		bl	_ZN5amiro15PowerManagement5startEm
 3732 0064 7548     		ldr	r0, .L471+44
 3733 0066 05F10C01 		add	r1, r5, #12
 3734 006a FFF7FEFF 		bl	pwmStart
 3735 006e 7348     		ldr	r0, .L471+44
 3736 0070 0121     		movs	r1, #1
 3737 0072 FFF7FEFF 		bl	pwmDisableChannel
 3738 0076 7248     		ldr	r0, .L471+48
 3739 0078 0021     		movs	r1, #0
 3740 007a FFF7FEFF 		bl	adcStart
 3741 007e 7148     		ldr	r0, .L471+52
 3742 0080 7149     		ldr	r1, .L471+56
 3743 0082 FFF7FEFF 		bl	extStart
 3744 0086 0A20     		movs	r0, #10
 3745 0088 0B21     		movs	r1, #11
 3746 008a FFF7FEFF 		bl	boardClearI2CBus
 3747 008e 0820     		movs	r0, #8
 3748 0090 0921     		movs	r1, #9
 3749 0092 FFF7FEFF 		bl	boardClearI2CBus
 3750 0096 05F54C70 		add	r0, r5, #816
 3751 009a A0F53C71 		sub	r1, r0, #752
 3752 009e FFF7FEFF 		bl	_ZN5amiro11HWI2CDriver5startEPK9I2CConfig
 3753 00a2 05F54E70 		add	r0, r5, #824
 3754 00a6 06AC     		add	r4, sp, #24
 3755 00a8 A0F53B71 		sub	r1, r0, #748
 3756 00ac FFF7FEFF 		bl	_ZN5amiro11HWI2CDriver5startEPK9I2CConfig
 3757 00b0 0023     		movs	r3, #0
 3758 00b2 24F8043D 		strh	r3, [r4, #-4]!	@ movhi
 3759 00b6 0CE0     		b	.L429
 3760              	.L430:
 3761 00b8 6448     		ldr	r0, .L471+60
 3762 00ba FFF7FEFF 		bl	_ZL8chprintfP20BaseSequentialStreamPKcz
 3763 00be 0120     		movs	r0, #1
 3764 00c0 FFF7FEFF 		bl	boardWriteLed
 3765 00c4 0820     		movs	r0, #8
 3766 00c6 0921     		movs	r1, #9
 3767 00c8 FFF7FEFF 		bl	boardResetBQ27500I2C
 3768 00cc 0020     		movs	r0, #0
 3769 00ce FFF7FEFF 		bl	boardWriteLed
 3770              	.L429:
 3771 00d2 0221     		movs	r1, #2
 3772 00d4 5E48     		ldr	r0, .L471+64
 3773 00d6 2246     		mov	r2, r4
 3774 00d8 FFF7FEFF 		bl	_ZN5amiro6INA2196Driver12readRegisterENS1_15RegisterAddressERt
 3775 00dc 5D49     		ldr	r1, .L471+68
 3776 00de 0028     		cmp	r0, #0
ARM GAS  /tmp/ccLpOfjJ.s 			page 68


 3777 00e0 EAD1     		bne	.L430
 3778 00e2 0BE0     		b	.L431
 3779              	.L432:
 3780 00e4 FFF7FEFF 		bl	_ZL8chprintfP20BaseSequentialStreamPKcz
 3781 00e8 0120     		movs	r0, #1
 3782 00ea FFF7FEFF 		bl	boardWriteLed
 3783 00ee 0A20     		movs	r0, #10
 3784 00f0 0B21     		movs	r1, #11
 3785 00f2 FFF7FEFF 		bl	boardResetBQ27500I2C
 3786 00f6 0020     		movs	r0, #0
 3787 00f8 FFF7FEFF 		bl	boardWriteLed
 3788              	.L431:
 3789 00fc 0221     		movs	r1, #2
 3790 00fe 5648     		ldr	r0, .L471+72
 3791 0100 2246     		mov	r2, r4
 3792 0102 FFF7FEFF 		bl	_ZN5amiro6INA2196Driver12readRegisterENS1_15RegisterAddressERt
 3793 0106 0646     		mov	r6, r0
 3794 0108 5449     		ldr	r1, .L471+76
 3795 010a 5048     		ldr	r0, .L471+60
 3796 010c 002E     		cmp	r6, #0
 3797 010e E9D1     		bne	.L432
 3798 0110 5348     		ldr	r0, .L471+80
 3799 0112 FFF7FEFF 		bl	_ZN5amiro12fileSystemIo16FileSystemIoBase4initEv
 3800 0116 06A9     		add	r1, sp, #24
 3801 0118 5148     		ldr	r0, .L471+80
 3802 011a 01F8056D 		strb	r6, [r1, #-5]!
 3803 011e FFF7FEFF 		bl	_ZN5amiro12fileSystemIo16FileSystemIoBase10getBoardIdEPh
 3804 0122 0028     		cmp	r0, #0
 3805 0124 40F09481 		bne	.L433
 3806 0128 3948     		ldr	r0, .L471
 3807 012a 4E49     		ldr	r1, .L471+84
 3808 012c 9DF81320 		ldrb	r2, [sp, #19]	@ zero_extendqisi2
 3809 0130 FFF7FEFF 		bl	_ZL8chprintfP20BaseSequentialStreamPKcz
 3810              	.L434:
 3811 0134 3648     		ldr	r0, .L471
 3812 0136 3849     		ldr	r1, .L471+8
 3813 0138 FFF7FEFF 		bl	_ZL8chprintfP20BaseSequentialStreamPKcz
 3814 013c 4022     		movs	r2, #64
 3815 013e 4FF4AB61 		mov	r1, #1368
 3816 0142 4948     		ldr	r0, .L471+88
 3817 0144 FFF7FEFF 		bl	shellCreate
 3818 0148 9FED480A 		flds	s0, .L471+92
 3819 014c DFED480A 		flds	s1, .L471+96
 3820 0150 0A21     		movs	r1, #10
 3821 0152 0446     		mov	r4, r0
 3822 0154 4048     		ldr	r0, .L471+72
 3823 0156 FFF7FEFF 		bl	_Z17init_powermonitorRN5amiro6INA2196DriverEfft
 3824 015a 3D48     		ldr	r0, .L471+64
 3825 015c 9FED450A 		flds	s0, .L471+100
 3826 0160 F7EE080A 		fconsts	s1, #120
 3827 0164 6421     		movs	r1, #100
 3828 0166 FFF7FEFF 		bl	_Z17init_powermonitorRN5amiro6INA2196DriverEfft
 3829 016a 4348     		ldr	r0, .L471+104
 3830 016c 9FED410A 		flds	s0, .L471+100
 3831 0170 F7EE080A 		fconsts	s1, #120
 3832 0174 6421     		movs	r1, #100
 3833 0176 FFF7FEFF 		bl	_Z17init_powermonitorRN5amiro6INA2196DriverEfft
ARM GAS  /tmp/ccLpOfjJ.s 			page 69


 3834 017a 4048     		ldr	r0, .L471+108
 3835 017c 9FED3D0A 		flds	s0, .L471+100
 3836 0180 F7EE080A 		fconsts	s1, #120
 3837 0184 6421     		movs	r1, #100
 3838 0186 FFF7FEFF 		bl	_Z17init_powermonitorRN5amiro6INA2196DriverEfft
 3839 018a 3D48     		ldr	r0, .L471+112
 3840 018c 9FED390A 		flds	s0, .L471+100
 3841 0190 F7EE080A 		fconsts	s1, #120
 3842 0194 6421     		movs	r1, #100
 3843 0196 FFF7FEFF 		bl	_Z17init_powermonitorRN5amiro6INA2196DriverEfft
 3844 019a 02A8     		add	r0, sp, #8
 3845 019c 3949     		ldr	r1, .L471+116
 3846 019e 4022     		movs	r2, #64
 3847 01a0 FFF7FEFF 		bl	_ZN10chibios_rt16BaseStaticThreadILi256EE5startEm
 3848 01a4 0023     		movs	r3, #0
 3849 01a6 8DF81330 		strb	r3, [sp, #19]
 3850 01aa 4FF42276 		mov	r6, #648
 3851              	.L436:
 3852 01ae 06FB0353 		mla	r3, r6, r3, r5
 3853 01b2 03F56471 		add	r1, r3, #912
 3854 01b6 D3F89033 		ldr	r3, [r3, #912]
 3855 01ba 02A8     		add	r0, sp, #8
 3856 01bc 9B68     		ldr	r3, [r3, #8]
 3857 01be 4022     		movs	r2, #64
 3858 01c0 9847     		blx	r3
 3859 01c2 9DF81330 		ldrb	r3, [sp, #19]	@ zero_extendqisi2
 3860 01c6 0133     		adds	r3, r3, #1
 3861 01c8 DBB2     		uxtb	r3, r3
 3862 01ca 042B     		cmp	r3, #4
 3863 01cc 8DF81330 		strb	r3, [sp, #19]
 3864 01d0 EDD9     		bls	.L436
 3865 01d2 0023     		movs	r3, #0
 3866 01d4 8DF81330 		strb	r3, [sp, #19]
 3867 01d8 4FF42876 		mov	r6, #672
 3868              	.L438:
 3869 01dc 06FB0353 		mla	r3, r6, r3, r5
 3870 01e0 03F58153 		add	r3, r3, #4128
 3871 01e4 03F11801 		add	r1, r3, #24
 3872 01e8 1033     		adds	r3, r3, #16
 3873 01ea 02A8     		add	r0, sp, #8
 3874 01ec 9B68     		ldr	r3, [r3, #8]
 3875 01ee 4022     		movs	r2, #64
 3876 01f0 9B68     		ldr	r3, [r3, #8]
 3877 01f2 9847     		blx	r3
 3878 01f4 9DF81330 		ldrb	r3, [sp, #19]	@ zero_extendqisi2
 3879 01f8 0133     		adds	r3, r3, #1
 3880 01fa DBB2     		uxtb	r3, r3
 3881 01fc 012B     		cmp	r3, #1
 3882 01fe 8DF81330 		strb	r3, [sp, #19]
 3883 0202 EBD9     		bls	.L438
 3884 0204 0022     		movs	r2, #0
 3885 0206 8DF81320 		strb	r2, [sp, #19]
 3886 020a 4FF42277 		mov	r7, #648
 3887 020e 3CE0     		b	.L440
 3888              	.L472:
 3889              		.align	2
 3890              	.L471:
ARM GAS  /tmp/ccLpOfjJ.s 			page 70


 3891 0210 00000000 		.word	SD1
 3892 0214 00000000 		.word	.LANCHOR0
 3893 0218 40000000 		.word	.LC10
 3894 021c 38120000 		.word	.LC194
 3895 0220 C0010008 		.word	134218176
 3896 0224 4C422D41 		.word	1093485132
 3897 0228 009966FF 		.word	-10053376
 3898 022c C4010008 		.word	134218180
 3899 0230 900B0000 		.word	.LC111
 3900 0234 54120000 		.word	.LC195
 3901 0238 28370000 		.word	.LANCHOR0+14120
 3902 023c 00000000 		.word	PWMD3
 3903 0240 00000000 		.word	ADCD1
 3904 0244 00000000 		.word	EXTD1
 3905 0248 00000000 		.word	extcfg
 3906 024c F0360000 		.word	.LANCHOR0+14064
 3907 0250 10060000 		.word	.LANCHOR0+1552
 3908 0254 64120000 		.word	.LC196
 3909 0258 88030000 		.word	.LANCHOR0+904
 3910 025c AC120000 		.word	.LC197
 3911 0260 7C030000 		.word	.LANCHOR0+892
 3912 0264 F4120000 		.word	.LC198
 3913 0268 00000000 		.word	.LANCHOR2
 3914 026c CDCCCC3D 		.word	1036831949
 3915 0270 9A99993D 		.word	1033476506
 3916 0274 0AD7233C 		.word	1008981770
 3917 0278 98080000 		.word	.LANCHOR0+2200
 3918 027c 200B0000 		.word	.LANCHOR0+2848
 3919 0280 A80D0000 		.word	.LANCHOR0+3496
 3920 0284 90000000 		.word	.LANCHOR0+144
 3921              	.L464:
 3922 0288 1A46     		mov	r2, r3
 3923              	.L440:
 3924 028a 7B4E     		ldr	r6, .L473
 3925 028c 0DF11601 		add	r1, sp, #22
 3926 0290 06F55F70 		add	r0, r6, #892
 3927 0294 FFF7FEFF 		bl	_ZN5amiro12fileSystemIo19FSIOPowerManagement17getVcnl4020OffsetEPth
 3928 0298 9DF81300 		ldrb	r0, [sp, #19]	@ zero_extendqisi2
 3929 029c BDF81610 		ldrh	r1, [sp, #22]
 3930 02a0 07FB0050 		mla	r0, r7, r0, r5
 3931 02a4 00F5FD50 		add	r0, r0, #8096
 3932 02a8 1030     		adds	r0, r0, #16
 3933 02aa FFF7FEFF 		bl	_ZN5amiro8VCNL402018setProximityOffsetEt
 3934 02ae 9DF81330 		ldrb	r3, [sp, #19]	@ zero_extendqisi2
 3935 02b2 07FB0353 		mla	r3, r7, r3, r5
 3936 02b6 03F5FD53 		add	r3, r3, #8096
 3937 02ba 1033     		adds	r3, r3, #16
 3938 02bc 1946     		mov	r1, r3
 3939 02be 1B68     		ldr	r3, [r3]
 3940 02c0 02A8     		add	r0, sp, #8
 3941 02c2 9B68     		ldr	r3, [r3, #8]
 3942 02c4 4022     		movs	r2, #64
 3943 02c6 9847     		blx	r3
 3944 02c8 9DF81330 		ldrb	r3, [sp, #19]	@ zero_extendqisi2
 3945 02cc 0133     		adds	r3, r3, #1
 3946 02ce DBB2     		uxtb	r3, r3
 3947 02d0 072B     		cmp	r3, #7
ARM GAS  /tmp/ccLpOfjJ.s 			page 71


 3948 02d2 8DF81330 		strb	r3, [sp, #19]
 3949 02d6 D7D9     		bls	.L464
 3950 02d8 6848     		ldr	r0, .L473+4
 3951 02da FFF7FEFF 		bl	_ZN5amiro9BLUETOOTH14bluetoothStartEv
 3952 02de 6848     		ldr	r0, .L473+8
 3953 02e0 A0F11801 		sub	r1, r0, #24
 3954 02e4 FFF7FEFF 		bl	_ZN5amiro6MPR1219configureEPKNS0_12MPR121ConfigE
 3955 02e8 02A8     		add	r0, sp, #8
 3956 02ea 6549     		ldr	r1, .L473+8
 3957 02ec 4022     		movs	r2, #64
 3958 02ee FFF7FEFF 		bl	_ZN10chibios_rt16BaseStaticThreadILi256EE5startEm
 3959 02f2 644B     		ldr	r3, .L473+12
 3960 02f4 0093     		str	r3, [sp]
 3961 02f6 03F10800 		add	r0, r3, #8
 3962 02fa 4022     		movs	r2, #64
 3963 02fc 624B     		ldr	r3, .L473+16
 3964 02fe 4FF4AB61 		mov	r1, #1368
 3965 0302 FFF7FEFF 		bl	chThdCreateStatic
 3966 0306 43F6AC32 		movw	r2, #15276
 3967 030a 604B     		ldr	r3, .L473+20
 3968 030c B050     		str	r0, [r6, r2]
 3969 030e 4FF48052 		mov	r2, #4096
 3970 0312 9A61     		str	r2, [r3, #24]
 3971              	.L443:
 3972 0314 1A69     		ldr	r2, [r3, #16]
 3973 0316 D204     		lsls	r2, r2, #19
 3974 0318 FCD5     		bpl	.L443
 3975 031a 5D4E     		ldr	r6, .L473+24
 3976 031c 5D4D     		ldr	r5, .L473+28
 3977 031e DFF8BCA1 		ldr	r10, .L473+100
 3978 0322 5D4F     		ldr	r7, .L473+32
 3979 0324 DFF86481 		ldr	r8, .L473+20
 3980 0328 DFF8B491 		ldr	r9, .L473+104
 3981              	.L442:
 3982 032c 002C     		cmp	r4, #0
 3983 032e 31D0     		beq	.L465
 3984              	.L444:
 3985 0330 94F82030 		ldrb	r3, [r4, #32]	@ zero_extendqisi2
 3986 0334 0E2B     		cmp	r3, #14
 3987 0336 3DD0     		beq	.L466
 3988              	.L445:
 3989 0338 0120     		movs	r0, #1
 3990 033a FFF7FEFF 		bl	boardWriteLed
 3991 033e FA20     		movs	r0, #250
 3992 0340 FFF7FEFF 		bl	_ZN10chibios_rt10BaseThread5sleepEm
 3993 0344 0020     		movs	r0, #0
 3994 0346 FFF7FEFF 		bl	boardWriteLed
 3995 034a FA20     		movs	r0, #250
 3996 034c FFF7FEFF 		bl	_ZN10chibios_rt10BaseThread5sleepEm
 3997 0350 3368     		ldr	r3, [r6]
 3998 0352 4F4A     		ldr	r2, .L473+24
 3999 0354 0BB1     		cbz	r3, .L446
 4000 0356 0023     		movs	r3, #0
 4001 0358 1360     		str	r3, [r2]
 4002              	.L446:
 4003 035a 2B68     		ldr	r3, [r5]
 4004 035c DFF834B1 		ldr	fp, .L473+28
ARM GAS  /tmp/ccLpOfjJ.s 			page 72


 4005 0360 002B     		cmp	r3, #0
 4006 0362 E3D0     		beq	.L442
 4007 0364 4D4B     		ldr	r3, .L473+36
 4008 0366 1B68     		ldr	r3, [r3]
 4009 0368 BB42     		cmp	r3, r7
 4010 036a 28D0     		beq	.L448
 4011 036c 4B45     		cmp	r3, r9
 4012 036e 19D1     		bne	.L467
 4013 0370 4B4B     		ldr	r3, .L473+40
 4014 0372 1B68     		ldr	r3, [r3]
 4015 0374 2BB9     		cbnz	r3, .L450
 4016 0376 4B4B     		ldr	r3, .L473+44
 4017 0378 1B68     		ldr	r3, [r3]
 4018 037a 022B     		cmp	r3, #2
 4019 037c 57D0     		beq	.L468
 4020 037e 032B     		cmp	r3, #3
 4021 0380 5DD0     		beq	.L469
 4022              	.L450:
 4023 0382 2A68     		ldr	r2, [r5]
 4024 0384 4848     		ldr	r0, .L473+48
 4025 0386 4949     		ldr	r1, .L473+52
 4026 0388 FFF7FEFF 		bl	_ZL8chprintfP20BaseSequentialStreamPKcz
 4027 038c 0023     		movs	r3, #0
 4028 038e 2B60     		str	r3, [r5]
 4029 0390 002C     		cmp	r4, #0
 4030 0392 CDD1     		bne	.L444
 4031              	.L465:
 4032 0394 4648     		ldr	r0, .L473+56
 4033 0396 4FF4AB61 		mov	r1, #1368
 4034 039a 4022     		movs	r2, #64
 4035 039c FFF7FEFF 		bl	shellCreate
 4036 03a0 0446     		mov	r4, r0
 4037 03a2 C9E7     		b	.L445
 4038              	.L467:
 4039 03a4 4048     		ldr	r0, .L473+48
 4040 03a6 4349     		ldr	r1, .L473+60
 4041 03a8 FFF7FEFF 		bl	_ZL8chprintfP20BaseSequentialStreamPKcz
 4042 03ac 0023     		movs	r3, #0
 4043 03ae CBF80030 		str	r3, [fp]
 4044 03b2 BBE7     		b	.L442
 4045              	.L466:
 4046 03b4 2046     		mov	r0, r4
 4047 03b6 FFF7FEFF 		bl	chThdRelease
 4048 03ba 0024     		movs	r4, #0
 4049 03bc BCE7     		b	.L445
 4050              	.L448:
 4051 03be 384B     		ldr	r3, .L473+40
 4052 03c0 5978     		ldrb	r1, [r3, #1]	@ zero_extendqisi2
 4053 03c2 0129     		cmp	r1, #1
 4054 03c4 DDD1     		bne	.L450
 4055 03c6 9B78     		ldrb	r3, [r3, #2]	@ zero_extendqisi2
 4056 03c8 012B     		cmp	r3, #1
 4057 03ca DAD8     		bhi	.L450
 4058 03cc DBF80030 		ldr	r3, [fp]
 4059 03d0 013B     		subs	r3, r3, #1
 4060 03d2 042B     		cmp	r3, #4
 4061 03d4 D5D8     		bhi	.L450
ARM GAS  /tmp/ccLpOfjJ.s 			page 73


 4062 03d6 384A     		ldr	r2, .L473+64
 4063 03d8 52F82330 		ldr	r3, [r2, r3, lsl #2]
 4064              	.L452:
 4065 03dc 2F4A     		ldr	r2, .L473+36
 4066 03de 9342     		cmp	r3, r2
 4067 03e0 CFD9     		bls	.L450
 4068 03e2 D3F800B0 		ldr	fp, [r3]
 4069 03e6 3048     		ldr	r0, .L473+48
 4070 03e8 BBF1000F 		cmp	fp, #0
 4071 03ec 19D0     		beq	.L470
 4072 03ee 3349     		ldr	r1, .L473+68
 4073 03f0 FFF7FEFF 		bl	_ZL8chprintfP20BaseSequentialStreamPKcz
 4074 03f4 4FF00052 		mov	r2, #536870912
 4075 03f8 4FF08051 		mov	r1, #268435456
 4076 03fc C8F81810 		str	r1, [r8, #24]
 4077 0400 2948     		ldr	r0, .L473+48
 4078 0402 C8F81820 		str	r2, [r8, #24]
 4079 0406 2E49     		ldr	r1, .L473+72
 4080 0408 FFF7FEFF 		bl	_ZL8chprintfP20BaseSequentialStreamPKcz
 4081 040c FFF7FEFF 		bl	_Z10systemStopv
 4082 0410 2C49     		ldr	r1, .L473+76
 4083 0412 2548     		ldr	r0, .L473+48
 4084 0414 FFF7FEFF 		bl	_ZL8chprintfP20BaseSequentialStreamPKcz
 4085 0418 0A20     		movs	r0, #10
 4086 041a FFF7FEFF 		bl	_ZN10chibios_rt10BaseThread5sleepEm
 4087 041e D847     		blx	fp
 4088 0420 84E7     		b	.L442
 4089              	.L470:
 4090 0422 2949     		ldr	r1, .L473+80
 4091 0424 FFF7FEFF 		bl	_ZL8chprintfP20BaseSequentialStreamPKcz
 4092 0428 C5F800B0 		str	fp, [r5]
 4093 042c 7EE7     		b	.L442
 4094              	.L468:
 4095 042e DBF80030 		ldr	r3, [fp]
 4096 0432 013B     		subs	r3, r3, #1
 4097 0434 042B     		cmp	r3, #4
 4098 0436 A4D8     		bhi	.L450
 4099 0438 5AF82330 		ldr	r3, [r10, r3, lsl #2]
 4100 043c CEE7     		b	.L452
 4101              	.L469:
 4102 043e DBF80030 		ldr	r3, [fp]
 4103 0442 013B     		subs	r3, r3, #1
 4104 0444 042B     		cmp	r3, #4
 4105 0446 9CD8     		bhi	.L450
 4106 0448 204A     		ldr	r2, .L473+84
 4107 044a 52F82330 		ldr	r3, [r2, r3, lsl #2]
 4108 044e C5E7     		b	.L452
 4109              	.L433:
 4110 0450 1548     		ldr	r0, .L473+48
 4111 0452 1F49     		ldr	r1, .L473+88
 4112 0454 FFF7FEFF 		bl	_ZL8chprintfP20BaseSequentialStreamPKcz
 4113 0458 6CE6     		b	.L434
 4114              	.L463:
 4115 045a 1348     		ldr	r0, .L473+48
 4116 045c 1D49     		ldr	r1, .L473+92
 4117 045e FFF7FEFF 		bl	_ZL8chprintfP20BaseSequentialStreamPKcz
 4118 0462 F2E5     		b	.L428
ARM GAS  /tmp/ccLpOfjJ.s 			page 74


 4119              	.L426:
 4120 0464 0E49     		ldr	r1, .L473+40
 4121 0466 1048     		ldr	r0, .L473+48
 4122 0468 4A78     		ldrb	r2, [r1, #1]	@ zero_extendqisi2
 4123 046a 8B78     		ldrb	r3, [r1, #2]	@ zero_extendqisi2
 4124 046c C978     		ldrb	r1, [r1, #3]	@ zero_extendqisi2
 4125 046e 0091     		str	r1, [sp]
 4126 0470 1949     		ldr	r1, .L473+96
 4127 0472 FFF7FEFF 		bl	_ZL8chprintfP20BaseSequentialStreamPKcz
 4128 0476 E8E5     		b	.L428
 4129              	.L474:
 4130              		.align	2
 4131              	.L473:
 4132 0478 00000000 		.word	.LANCHOR0
 4133 047c 90150000 		.word	.LANCHOR0+5520
 4134 0480 08340000 		.word	.LANCHOR0+13320
 4135 0484 A83B0000 		.word	.LANCHOR0+15272
 4136 0488 00000000 		.word	_ZN10chibios_rt10_thd_startEPv
 4137 048c 00080240 		.word	1073874944
 4138 0490 00000000 		.word	pathdc_change
 4139 0494 00000000 		.word	shutdown_now
 4140 0498 4C422D41 		.word	1093485132
 4141 049c C0010008 		.word	134218176
 4142 04a0 C4010008 		.word	134218180
 4143 04a4 C8010008 		.word	134218184
 4144 04a8 00000000 		.word	SD1
 4145 04ac D4130000 		.word	.LC205
 4146 04b0 00000000 		.word	.LANCHOR2
 4147 04b4 1C130000 		.word	.LC200
 4148 04b8 00000000 		.word	.LANCHOR5
 4149 04bc 80130000 		.word	.LC202
 4150 04c0 A4130000 		.word	.LC203
 4151 04c4 CC130000 		.word	.LC204
 4152 04c8 54130000 		.word	.LC201
 4153 04cc 00000000 		.word	.LANCHOR4
 4154 04d0 04130000 		.word	.LC199
 4155 04d4 A80B0000 		.word	.LC112
 4156 04d8 900B0000 		.word	.LC111
 4157 04dc 00000000 		.word	.LANCHOR3
 4158 04e0 009966FF 		.word	-10053376
 4159              		.size	main, .-main
 4160 04e4 AFF30080 		.section	.text.startup._GLOBAL__sub_I_global,"ax",%progbits
 4160      AFF30080 
 4160      AFF30080 
 4161              		.align	2
 4162              		.p2align 4,,15
 4163              		.thumb
 4164              		.thumb_func
 4165              		.type	_GLOBAL__sub_I_global, %function
 4166              	_GLOBAL__sub_I_global:
 4167              		@ args = 0, pretend = 0, frame = 0
 4168              		@ frame_needed = 0, uses_anonymous_args = 0
 4169 0000 10B5     		push	{r4, lr}
 4170 0002 074C     		ldr	r4, .L476
 4171 0004 074B     		ldr	r3, .L476+4
 4172 0006 084A     		ldr	r2, .L476+8
 4173 0008 1A60     		str	r2, [r3]
ARM GAS  /tmp/ccLpOfjJ.s 			page 75


 4174 000a 2046     		mov	r0, r4
 4175 000c 5A60     		str	r2, [r3, #4]
 4176 000e FFF7FEFF 		bl	_ZN5amiro6GlobalC1Ev
 4177 0012 2046     		mov	r0, r4
 4178 0014 0549     		ldr	r1, .L476+12
 4179 0016 064A     		ldr	r2, .L476+16
 4180 0018 BDE81040 		pop	{r4, lr}
 4181 001c FFF7FEBF 		b	__aeabi_atexit
 4182              	.L477:
 4183              		.align	2
 4184              	.L476:
 4185 0020 00000000 		.word	.LANCHOR0
 4186 0024 00000000 		.word	.LANCHOR6
 4187 0028 A0860100 		.word	100000
 4188 002c 00000000 		.word	_ZN5amiro6GlobalD1Ev
 4189 0030 00000000 		.word	__dso_handle
 4190              		.size	_GLOBAL__sub_I_global, .-_GLOBAL__sub_I_global
 4191 0034 AFF30080 		.section	.init_array,"aw",%init_array
 4191      AFF30080 
 4191      AFF30080 
 4192              		.align	2
 4193 0000 00000000 		.word	_GLOBAL__sub_I_global(target1)
 4194              		.section	.text._ZN5amiro6GlobalD2Ev,"axG",%progbits,_ZN5amiro6GlobalD5Ev,comdat
 4195              		.align	2
 4196              		.p2align 4,,15
 4197              		.weak	_ZN5amiro6GlobalD2Ev
 4198              		.thumb
 4199              		.thumb_func
 4200              		.type	_ZN5amiro6GlobalD2Ev, %function
 4201              	_ZN5amiro6GlobalD2Ev:
 4202              		@ args = 0, pretend = 0, frame = 0
 4203              		@ frame_needed = 0, uses_anonymous_args = 0
 4204 0000 F8B5     		push	{r3, r4, r5, r6, r7, lr}
 4205 0002 0646     		mov	r6, r0
 4206 0004 00F56E50 		add	r0, r0, #15232
 4207 0008 2830     		adds	r0, r0, #40
 4208 000a FFF7FEFF 		bl	_ZN5amiro10UserThreadD1Ev
 4209 000e 424B     		ldr	r3, .L498
 4210 0010 43F22871 		movw	r1, #14120
 4211 0014 06F55C54 		add	r4, r6, #14080
 4212 0018 03F12C02 		add	r2, r3, #44
 4213 001c 7350     		str	r3, [r6, r1]
 4214 001e 04F51270 		add	r0, r4, #584
 4215 0022 C4F84822 		str	r2, [r4, #584]
 4216 0026 2834     		adds	r4, r4, #40
 4217 0028 FFF7FEFF 		bl	_ZN5amiro23ControllerAreaNetworkRxD2Ev
 4218 002c 2046     		mov	r0, r4
 4219 002e FFF7FEFF 		bl	_ZN5amiro23ControllerAreaNetworkTxD2Ev
 4220 0032 06F55B50 		add	r0, r6, #14016
 4221 0036 3030     		adds	r0, r0, #48
 4222 0038 FFF7FEFF 		bl	_ZN5amiro12SerialCanMuxD1Ev
 4223 003c 06F55A50 		add	r0, r6, #13952
 4224 0040 3830     		adds	r0, r0, #56
 4225 0042 FFF7FEFF 		bl	_ZN5amiro11IwrapCanMuxD1Ev
 4226 0046 06F55050 		add	r0, r6, #13312
 4227 004a 0830     		adds	r0, r0, #8
 4228 004c 06F5FD57 		add	r7, r6, #8096
ARM GAS  /tmp/ccLpOfjJ.s 			page 76


 4229 0050 FFF7FEFF 		bl	_ZN5amiro6MPR121D1Ev
 4230 0054 1037     		adds	r7, r7, #16
 4231 0056 07F5A254 		add	r4, r7, #5184
 4232              	.L480:
 4233 005a A4F52274 		sub	r4, r4, #648
 4234 005e 2046     		mov	r0, r4
 4235 0060 2368     		ldr	r3, [r4]
 4236 0062 DB68     		ldr	r3, [r3, #12]
 4237 0064 9847     		blx	r3
 4238 0066 A742     		cmp	r7, r4
 4239 0068 F7D1     		bne	.L480
 4240 006a 06F5FA55 		add	r5, r6, #8000
 4241 006e AF42     		cmp	r7, r5
 4242 0070 18BF     		it	ne
 4243 0072 3C46     		movne	r4, r7
 4244 0074 06D0     		beq	.L484
 4245              	.L485:
 4246 0076 54F81C3D 		ldr	r3, [r4, #-28]!
 4247 007a 1B68     		ldr	r3, [r3]
 4248 007c 2046     		mov	r0, r4
 4249 007e 9847     		blx	r3
 4250 0080 A542     		cmp	r5, r4
 4251 0082 F8D1     		bne	.L485
 4252              	.L484:
 4253 0084 06F5F654 		add	r4, r6, #7872
 4254 0088 1034     		adds	r4, r4, #16
 4255 008a A542     		cmp	r5, r4
 4256 008c 06D0     		beq	.L482
 4257              	.L488:
 4258 008e 55F81C3D 		ldr	r3, [r5, #-28]!
 4259 0092 1B68     		ldr	r3, [r3]
 4260 0094 2846     		mov	r0, r5
 4261 0096 9847     		blx	r3
 4262 0098 AC42     		cmp	r4, r5
 4263 009a F8D1     		bne	.L488
 4264              	.L482:
 4265 009c 06F5F255 		add	r5, r6, #7744
 4266 00a0 1035     		adds	r5, r5, #16
 4267 00a2 AC42     		cmp	r4, r5
 4268 00a4 06D0     		beq	.L486
 4269              	.L490:
 4270 00a6 54F8403D 		ldr	r3, [r4, #-64]!
 4271 00aa 1B68     		ldr	r3, [r3]
 4272 00ac 2046     		mov	r0, r4
 4273 00ae 9847     		blx	r3
 4274 00b0 A542     		cmp	r5, r4
 4275 00b2 F8D1     		bne	.L490
 4276              	.L486:
 4277 00b4 41F27851 		movw	r1, #5496
 4278 00b8 41F27052 		movw	r2, #5488
 4279 00bc 174B     		ldr	r3, .L498+4
 4280 00be 7350     		str	r3, [r6, r1]
 4281 00c0 06F58154 		add	r4, r6, #4128
 4282 00c4 1034     		adds	r4, r4, #16
 4283 00c6 B350     		str	r3, [r6, r2]
 4284 00c8 04F5A865 		add	r5, r4, #1344
 4285              	.L489:
ARM GAS  /tmp/ccLpOfjJ.s 			page 77


 4286 00cc A5F52875 		sub	r5, r5, #672
 4287 00d0 2846     		mov	r0, r5
 4288 00d2 2B68     		ldr	r3, [r5]
 4289 00d4 1B68     		ldr	r3, [r3]
 4290 00d6 9847     		blx	r3
 4291 00d8 AC42     		cmp	r4, r5
 4292 00da F7D1     		bne	.L489
 4293 00dc 06F56275 		add	r5, r6, #904
 4294 00e0 AC42     		cmp	r4, r5
 4295 00e2 07D0     		beq	.L493
 4296              	.L494:
 4297 00e4 A4F52274 		sub	r4, r4, #648
 4298 00e8 2046     		mov	r0, r4
 4299 00ea 2368     		ldr	r3, [r4]
 4300 00ec 1B68     		ldr	r3, [r3]
 4301 00ee 9847     		blx	r3
 4302 00f0 A542     		cmp	r5, r4
 4303 00f2 F7D1     		bne	.L494
 4304              	.L493:
 4305 00f4 0A4B     		ldr	r3, .L498+8
 4306 00f6 C6F88433 		str	r3, [r6, #900]
 4307 00fa 06F55070 		add	r0, r6, #832
 4308 00fe FFF7FEFF 		bl	_ZN5amiro4AT24D1Ev
 4309 0102 084B     		ldr	r3, .L498+12
 4310 0104 C6F83833 		str	r3, [r6, #824]
 4311 0108 C6F83033 		str	r3, [r6, #816]
 4312 010c 06F19000 		add	r0, r6, #144
 4313 0110 FFF7FEFF 		bl	_ZN5amiro11ADConverterD1Ev
 4314 0114 3046     		mov	r0, r6
 4315 0116 F8BD     		pop	{r3, r4, r5, r6, r7, pc}
 4316              	.L499:
 4317              		.align	2
 4318              	.L498:
 4319 0118 08000000 		.word	_ZTVN5amiro15PowerManagementE+8
 4320 011c 08000000 		.word	_ZTVN5amiro12BaseBQ24103AE+8
 4321 0120 08000000 		.word	_ZTVN5amiro11BaseLTC4412E+8
 4322 0124 08000000 		.word	_ZTVN5amiro9I2CDriverE+8
 4323              		.size	_ZN5amiro6GlobalD2Ev, .-_ZN5amiro6GlobalD2Ev
 4324              		.weak	_ZN5amiro6GlobalD1Ev
 4325              		.thumb_set _ZN5amiro6GlobalD1Ev,_ZN5amiro6GlobalD2Ev
 4326              		.weak	_ZTVN5amiro9I2CDriverE
 4327 0128 AFF30080 		.section	.rodata._ZTVN5amiro9I2CDriverE,"aG",%progbits,_ZTVN5amiro9I2CDriverE,comdat
 4327      AFF30080 
 4328              		.align	3
 4329              		.type	_ZTVN5amiro9I2CDriverE, %object
 4330              		.size	_ZTVN5amiro9I2CDriverE, 44
 4331              	_ZTVN5amiro9I2CDriverE:
 4332 0000 00000000 		.word	0
 4333 0004 00000000 		.word	0
 4334 0008 00000000 		.word	_ZN5amiro9I2CDriverD1Ev
 4335 000c 00000000 		.word	_ZN5amiro9I2CDriverD0Ev
 4336 0010 00000000 		.word	__cxa_pure_virtual
 4337 0014 00000000 		.word	__cxa_pure_virtual
 4338 0018 00000000 		.word	__cxa_pure_virtual
 4339 001c 00000000 		.word	__cxa_pure_virtual
 4340 0020 00000000 		.word	__cxa_pure_virtual
 4341 0024 00000000 		.word	__cxa_pure_virtual
ARM GAS  /tmp/ccLpOfjJ.s 			page 78


 4342 0028 00000000 		.word	__cxa_pure_virtual
 4343              		.weak	_ZTVN5amiro7PCA9544ILb1EEE
 4344 002c 00000000 		.section	.rodata._ZTVN5amiro7PCA9544ILb1EEE,"aG",%progbits,_ZTVN5amiro7PCA9544ILb1EEE,comdat
 4345              		.align	3
 4346              		.type	_ZTVN5amiro7PCA9544ILb1EEE, %object
 4347              		.size	_ZTVN5amiro7PCA9544ILb1EEE, 44
 4348              	_ZTVN5amiro7PCA9544ILb1EEE:
 4349 0000 00000000 		.word	0
 4350 0004 00000000 		.word	0
 4351 0008 00000000 		.word	_ZN5amiro7PCA9544ILb1EED1Ev
 4352 000c 00000000 		.word	_ZN5amiro7PCA9544ILb1EED0Ev
 4353 0010 00000000 		.word	_ZN5amiro14I2CMultiplexer9getErrorsEv
 4354 0014 00000000 		.word	_ZN5amiro14I2CMultiplexer14masterTransmitEPKNS_11I2CTxParamsEm
 4355 0018 00000000 		.word	_ZN5amiro14I2CMultiplexer13masterReceiveEPKNS_11I2CRxParamsEm
 4356 001c 00000000 		.word	_ZN5amiro14I2CMultiplexer10acquireBusEv
 4357 0020 00000000 		.word	_ZN5amiro14I2CMultiplexer10releaseBusEv
 4358 0024 00000000 		.word	_ZN5amiro7PCA9544ILb1EE6selectEh
 4359 0028 00000000 		.word	_ZN5amiro7PCA9544ILb1EE8deselectEv
 4360              		.weak	_ZTVN5amiro11BaseLTC4412E
 4361 002c 00000000 		.section	.rodata._ZTVN5amiro11BaseLTC4412E,"aG",%progbits,_ZTVN5amiro11BaseLTC4412E,comdat
 4362              		.align	3
 4363              		.type	_ZTVN5amiro11BaseLTC4412E, %object
 4364              		.size	_ZTVN5amiro11BaseLTC4412E, 20
 4365              	_ZTVN5amiro11BaseLTC4412E:
 4366 0000 00000000 		.word	0
 4367 0004 00000000 		.word	0
 4368 0008 00000000 		.word	_ZN5amiro11BaseLTC4412D1Ev
 4369 000c 00000000 		.word	_ZN5amiro11BaseLTC4412D0Ev
 4370 0010 00000000 		.word	__cxa_pure_virtual
 4371              		.weak	_ZTVN5amiro12BaseBQ24103AE
 4372 0014 00000000 		.section	.rodata._ZTVN5amiro12BaseBQ24103AE,"aG",%progbits,_ZTVN5amiro12BaseBQ24103AE,comdat
 4373              		.align	3
 4374              		.type	_ZTVN5amiro12BaseBQ24103AE, %object
 4375              		.size	_ZTVN5amiro12BaseBQ24103AE, 28
 4376              	_ZTVN5amiro12BaseBQ24103AE:
 4377 0000 00000000 		.word	0
 4378 0004 00000000 		.word	0
 4379 0008 00000000 		.word	_ZN5amiro12BaseBQ24103AD1Ev
 4380 000c 00000000 		.word	_ZN5amiro12BaseBQ24103AD0Ev
 4381 0010 00000000 		.word	__cxa_pure_virtual
 4382 0014 00000000 		.word	__cxa_pure_virtual
 4383 0018 00000000 		.word	__cxa_pure_virtual
 4384              		.weak	_ZTVN5amiro7LTC4412ILj1073874944ELh8EEE
 4385 001c 00000000 		.section	.rodata._ZTVN5amiro7LTC4412ILj1073874944ELh8EEE,"aG",%progbits,_ZTVN5amiro7LTC4412ILj1073
 4386              		.align	3
 4387              		.type	_ZTVN5amiro7LTC4412ILj1073874944ELh8EEE, %object
 4388              		.size	_ZTVN5amiro7LTC4412ILj1073874944ELh8EEE, 20
 4389              	_ZTVN5amiro7LTC4412ILj1073874944ELh8EEE:
 4390 0000 00000000 		.word	0
 4391 0004 00000000 		.word	0
 4392 0008 00000000 		.word	_ZN5amiro7LTC4412ILj1073874944ELh8EED1Ev
 4393 000c 00000000 		.word	_ZN5amiro7LTC4412ILj1073874944ELh8EED0Ev
 4394 0010 00000000 		.word	_ZNK5amiro7LTC4412ILj1073874944ELh8EE11isPluggedInEv
 4395              		.weak	_ZTVN5amiro8BQ24103AILj1073874944ELm3ELj1073874944ELm0EEE
 4396 0014 00000000 		.section	.rodata._ZTVN5amiro8BQ24103AILj1073874944ELm3ELj1073874944ELm0EEE,"aG",%progbits,_ZTVN5am
 4397              		.align	3
 4398              		.type	_ZTVN5amiro8BQ24103AILj1073874944ELm3ELj1073874944ELm0EEE, %object
ARM GAS  /tmp/ccLpOfjJ.s 			page 79


 4399              		.size	_ZTVN5amiro8BQ24103AILj1073874944ELm3ELj1073874944ELm0EEE, 28
 4400              	_ZTVN5amiro8BQ24103AILj1073874944ELm3ELj1073874944ELm0EEE:
 4401 0000 00000000 		.word	0
 4402 0004 00000000 		.word	0
 4403 0008 00000000 		.word	_ZN5amiro8BQ24103AILj1073874944ELm3ELj1073874944ELm0EED1Ev
 4404 000c 00000000 		.word	_ZN5amiro8BQ24103AILj1073874944ELm3ELj1073874944ELm0EED0Ev
 4405 0010 00000000 		.word	_ZN5amiro8BQ24103AILj1073874944ELm3ELj1073874944ELm0EE6enableEb
 4406 0014 00000000 		.word	_ZNK5amiro8BQ24103AILj1073874944ELm3ELj1073874944ELm0EE9isEnabledEv
 4407 0018 00000000 		.word	_ZNK5amiro8BQ24103AILj1073874944ELm3ELj1073874944ELm0EE10isChargingEv
 4408              		.weak	_ZTVN5amiro8BQ24103AILj1073875968ELm2ELj1073873920ELm4EEE
 4409 001c 00000000 		.section	.rodata._ZTVN5amiro8BQ24103AILj1073875968ELm2ELj1073873920ELm4EEE,"aG",%progbits,_ZTVN5am
 4410              		.align	3
 4411              		.type	_ZTVN5amiro8BQ24103AILj1073875968ELm2ELj1073873920ELm4EEE, %object
 4412              		.size	_ZTVN5amiro8BQ24103AILj1073875968ELm2ELj1073873920ELm4EEE, 28
 4413              	_ZTVN5amiro8BQ24103AILj1073875968ELm2ELj1073873920ELm4EEE:
 4414 0000 00000000 		.word	0
 4415 0004 00000000 		.word	0
 4416 0008 00000000 		.word	_ZN5amiro8BQ24103AILj1073875968ELm2ELj1073873920ELm4EED1Ev
 4417 000c 00000000 		.word	_ZN5amiro8BQ24103AILj1073875968ELm2ELj1073873920ELm4EED0Ev
 4418 0010 00000000 		.word	_ZN5amiro8BQ24103AILj1073875968ELm2ELj1073873920ELm4EE6enableEb
 4419 0014 00000000 		.word	_ZNK5amiro8BQ24103AILj1073875968ELm2ELj1073873920ELm4EE9isEnabledEv
 4420 0018 00000000 		.word	_ZNK5amiro8BQ24103AILj1073875968ELm2ELj1073873920ELm4EE10isChargingEv
 4421              		.global	global
 4422 001c 00000000 		.section	.bss.global,"aw",%nobits
 4423              		.align	3
 4424              		.set	.LANCHOR0,. + 0
 4425              		.type	global, %object
 4426              		.size	global, 16656
 4427              	global:
 4428 0000 00000000 		.space	16656
 4428      00000000 
 4428      00000000 
 4428      00000000 
 4428      00000000 
 4429              		.section	.rodata
 4430              		.align	2
 4431              		.set	.LANCHOR1,. + 0
 4432              	.LC0:
 4433 0000 10270000 		.word	10000
 4434 0004 6400     		.short	100
 4435 0006 0000     		.space	2
 4436 0008 00000000 		.word	0
 4437 000c 00000000 		.word	0
 4438 0010 00000000 		.word	0
 4439 0014 01000000 		.word	1
 4440 0018 00000000 		.word	0
 4441 001c 00000000 		.word	0
 4442 0020 00000000 		.word	0
 4443 0024 00000000 		.word	0
 4444 0028 00000000 		.word	0
 4445 002c 00000000 		.word	0
 4446 0030 00000000 		.word	0
 4447              	.LC1:
 4448 0034 01       		.byte	1
 4449 0035 000000   		.space	3
 4450 0038 A0860100 		.word	100000
 4451 003c 01       		.byte	1
ARM GAS  /tmp/ccLpOfjJ.s 			page 80


 4452 003d 000000   		.space	3
 4453              	.LC2:
 4454 0040 07       		.byte	7
 4455 0041 15       		.byte	21
 4456 0042 C8       		.byte	-56
 4457 0043 06       		.byte	6
 4458              	.LC3:
 4459 0044 01       		.byte	1
 4460 0045 00       		.space	1
 4461 0046 0100     		.short	1
 4462 0048 00000000 		.word	0
 4463 004c 00000000 		.word	0
 4464 0050 00000000 		.word	0
 4465 0054 02000040 		.word	1073741826
 4466 0058 00000000 		.word	0
 4467 005c 00000038 		.word	939524096
 4468 0060 FF0F     		.short	4095
 4469 0062 0000     		.short	0
 4470 0064 00000000 		.word	0
 4471 0068 00000000 		.word	0
 4472 006c 09000000 		.word	9
 4473              	.LC4:
 4474 0070 9055     		.short	21904
 4475 0072 C4       		.byte	-60
 4476 0073 00       		.space	1
 4477 0074 9F00     		.short	159
 4478 0076 96       		.byte	-106
 4479 0077 58       		.byte	88
 4480 0078 68       		.byte	104
 4481 0079 00       		.space	1
 4482 007a 0000     		.space	2
 4483              	.LC5:
 4484 007c 8055     		.short	21888
 4485 007e C0       		.byte	-64
 4486 007f 00       		.space	1
 4487 0080 9F00     		.short	159
 4488 0082 96       		.byte	-106
 4489 0083 58       		.byte	88
 4490 0084 68       		.byte	104
 4491 0085 00       		.space	1
 4492 0086 0000     		.section	.bss._ZN5amiro9constants12DiWheelDriveL10wheelErrorE,"aw",%nobits
 4493              		.align	2
 4494              		.set	.LANCHOR6,. + 0
 4495              		.type	_ZN5amiro9constants12DiWheelDriveL10wheelErrorE, %object
 4496              		.size	_ZN5amiro9constants12DiWheelDriveL10wheelErrorE, 8
 4497              	_ZN5amiro9constants12DiWheelDriveL10wheelErrorE:
 4498 0000 00000000 		.space	8
 4498      00000000 
 4499              		.section	.rodata._ZL10shell_cfg1,"a",%progbits
 4500              		.align	2
 4501              		.set	.LANCHOR2,. + 0
 4502              		.type	_ZL10shell_cfg1, %object
 4503              		.size	_ZL10shell_cfg1, 8
 4504              	_ZL10shell_cfg1:
 4505 0000 F0360000 		.word	global+14064
 4506 0004 00000000 		.word	_ZL8commands
 4507              		.section	.rodata.str1.4,"aMS",%progbits,1
ARM GAS  /tmp/ccLpOfjJ.s 			page 81


 4508              		.align	2
 4509              	.LC6:
 4510 0000 7368656C 		.ascii	"shellRequestShutdown\012\000"
 4510      6C526571 
 4510      75657374 
 4510      53687574 
 4510      646F776E 
 4511 0016 0000     		.space	2
 4512              	.LC7:
 4513 0018 68656C70 		.ascii	"help\000"
 4513      00
 4514 001d 000000   		.space	3
 4515              	.LC8:
 4516 0020 09555341 		.ascii	"\011USAGE:\012\000"
 4516      47453A0A 
 4516      00
 4517 0029 000000   		.space	3
 4518              	.LC9:
 4519 002c 3E207368 		.ascii	"> shutdown <type>\012\000"
 4519      7574646F 
 4519      776E203C 
 4519      74797065 
 4519      3E0A00
 4520 003f 00       		.space	1
 4521              	.LC10:
 4522 0040 0A00     		.ascii	"\012\000"
 4523 0042 0000     		.space	2
 4524              	.LC11:
 4525 0044 09747970 		.ascii	"\011type\012\000"
 4525      650A00
 4526 004b 00       		.space	1
 4527              	.LC12:
 4528 004c 54686520 		.ascii	"The type of shutdown to perform.\012\000"
 4528      74797065 
 4528      206F6620 
 4528      73687574 
 4528      646F776E 
 4529 006e 0000     		.space	2
 4530              	.LC13:
 4531 0070 43686F6F 		.ascii	"Choose one of the following types:\012\000"
 4531      7365206F 
 4531      6E65206F 
 4531      66207468 
 4531      6520666F 
 4532              	.LC14:
 4533 0094 20207472 		.ascii	"  transportation - Ultra low-power mode with all wa"
 4533      616E7370 
 4533      6F727461 
 4533      74696F6E 
 4533      202D2055 
 4534 00c7 6B657570 		.ascii	"keups disabled.\012\000"
 4534      73206469 
 4534      7361626C 
 4534      65642E0A 
 4534      00
 4535              	.LC15:
 4536 00d8 20202020 		.ascii	"                   The robot can not be charged.\012"
ARM GAS  /tmp/ccLpOfjJ.s 			page 82


 4536      20202020 
 4536      20202020 
 4536      20202020 
 4536      20202054 
 4537 0109 00       		.ascii	"\000"
 4538 010a 0000     		.space	2
 4539              	.LC16:
 4540 010c 20206465 		.ascii	"  deepsleep      - Ultra low-power mode with severa"
 4540      6570736C 
 4540      65657020 
 4540      20202020 
 4540      202D2055 
 4541 013f 6C207761 		.ascii	"l wakeups enabled.\012\000"
 4541      6B657570 
 4541      7320656E 
 4541      61626C65 
 4541      642E0A00 
 4542 0153 00       		.space	1
 4543              	.LC17:
 4544 0154 20202020 		.ascii	"                   The robot can only be charged vi"
 4544      20202020 
 4544      20202020 
 4544      20202020 
 4544      20202054 
 4545 0187 61207468 		.ascii	"a the power plug.\012\000"
 4545      6520706F 
 4545      77657220 
 4545      706C7567 
 4545      2E0A00
 4546 019a 0000     		.space	2
 4547              	.LC18:
 4548 019c 20206869 		.ascii	"  hibernate      - Medium low-power mode, but with "
 4548      6265726E 
 4548      61746520 
 4548      20202020 
 4548      202D204D 
 4549 01cf 66756C6C 		.ascii	"full charging capabilities.\012\000"
 4549      20636861 
 4549      7267696E 
 4549      67206361 
 4549      70616269 
 4550              	.LC19:
 4551 01ec 20207265 		.ascii	"  restart        - Performs a system restart.\012\000"
 4551      73746172 
 4551      74202020 
 4551      20202020 
 4551      202D2050 
 4552 021b 00       		.space	1
 4553              	.LC20:
 4554 021c 416C7465 		.ascii	"Alternatively, you can use the shortcuts 't', 'd', "
 4554      726E6174 
 4554      6976656C 
 4554      792C2079 
 4554      6F752063 
 4555 024f 2768272C 		.ascii	"'h', and 'r' respectively.\000"
 4555      20616E64 
 4555      20277227 
ARM GAS  /tmp/ccLpOfjJ.s 			page 83


 4555      20726573 
 4555      70656374 
 4556 026a 0000     		.space	2
 4557              	.LC21:
 4558 026c 7472616E 		.ascii	"transportation\000"
 4558      73706F72 
 4558      74617469 
 4558      6F6E00
 4559 027b 00       		.space	1
 4560              	.LC22:
 4561 027c 7400     		.ascii	"t\000"
 4562 027e 0000     		.space	2
 4563              	.LC23:
 4564 0280 73687574 		.ascii	"shutdown to transportation mode initialized\012\000"
 4564      646F776E 
 4564      20746F20 
 4564      7472616E 
 4564      73706F72 
 4565 02ad 000000   		.space	3
 4566              	.LC24:
 4567 02b0 64656570 		.ascii	"deepsleep\000"
 4567      736C6565 
 4567      7000
 4568 02ba 0000     		.space	2
 4569              	.LC25:
 4570 02bc 6400     		.ascii	"d\000"
 4571 02be 0000     		.space	2
 4572              	.LC26:
 4573 02c0 73687574 		.ascii	"shutdown to deepsleep mode initialized\012\000"
 4573      646F776E 
 4573      20746F20 
 4573      64656570 
 4573      736C6565 
 4574              	.LC27:
 4575 02e8 68696265 		.ascii	"hibernate\000"
 4575      726E6174 
 4575      6500
 4576 02f2 0000     		.space	2
 4577              	.LC28:
 4578 02f4 6800     		.ascii	"h\000"
 4579 02f6 0000     		.space	2
 4580              	.LC29:
 4581 02f8 73687574 		.ascii	"shutdown to hibernate mode initialized\012\000"
 4581      646F776E 
 4581      20746F20 
 4581      68696265 
 4581      726E6174 
 4582              	.LC30:
 4583 0320 72657374 		.ascii	"restart\000"
 4583      61727400 
 4584              	.LC31:
 4585 0328 7200     		.ascii	"r\000"
 4586 032a 0000     		.space	2
 4587              	.LC32:
 4588 032c 72657374 		.ascii	"restart initialized\012\000"
 4588      61727420 
 4588      696E6974 
ARM GAS  /tmp/ccLpOfjJ.s 			page 84


 4588      69616C69 
 4588      7A65640A 
 4589 0341 000000   		.space	3
 4590              	.LC33:
 4591 0344 4552524F 		.ascii	"ERROR: unknown argument!\012\000"
 4591      523A2075 
 4591      6E6B6E6F 
 4591      776E2061 
 4591      7267756D 
 4592 035e 0000     		.space	2
 4593              	.LC34:
 4594 0360 7368656C 		.ascii	"shellRequestInitMemory\012\000"
 4594      6C526571 
 4594      75657374 
 4594      496E6974 
 4594      4D656D6F 
 4595              	.LC35:
 4596 0378 4D656D6F 		.ascii	"Memory Init: FAIL\012\000"
 4596      72792049 
 4596      6E69743A 
 4596      20464149 
 4596      4C0A00
 4597 038b 00       		.space	1
 4598              	.LC36:
 4599 038c 4D656D6F 		.ascii	"Memory Init: OK\012\000"
 4599      72792049 
 4599      6E69743A 
 4599      204F4B0A 
 4599      00
 4600 039d 000000   		.space	3
 4601              	.LC37:
 4602 03a0 7368656C 		.ascii	"shellRequestGetBoardId\012\000"
 4602      6C526571 
 4602      75657374 
 4602      47657442 
 4602      6F617264 
 4603              	.LC38:
 4604 03b8 47657420 		.ascii	"Get Board ID: FAIL\012\000"
 4604      426F6172 
 4604      64204944 
 4604      3A204641 
 4604      494C0A00 
 4605              	.LC39:
 4606 03cc 47657420 		.ascii	"Get Board ID: %u\012\000"
 4606      426F6172 
 4606      64204944 
 4606      3A202575 
 4606      0A00
 4607 03de 0000     		.space	2
 4608              	.LC40:
 4609 03e0 7368656C 		.ascii	"shellRequestReadData\012\000"
 4609      6C526571 
 4609      75657374 
 4609      52656164 
 4609      44617461 
 4610 03f6 0000     		.space	2
 4611              	.LC41:
ARM GAS  /tmp/ccLpOfjJ.s 			page 85


 4612 03f8 55736167 		.ascii	"Usage: %s\012\000"
 4612      653A2025 
 4612      730A00
 4613 0403 00       		.space	1
 4614              	.LC42:
 4615 0404 6765745F 		.ascii	"get_memory_data <type> <start> [<count>]\000"
 4615      6D656D6F 
 4615      72795F64 
 4615      61746120 
 4615      3C747970 
 4616 042d 000000   		.space	3
 4617              	.LC43:
 4618 0430 54686520 		.ascii	"The data type as which to interpret the data.\012\000"
 4618      64617461 
 4618      20747970 
 4618      65206173 
 4618      20776869 
 4619 045f 00       		.space	1
 4620              	.LC44:
 4621 0460 20206865 		.ascii	"  hex - one byte as hexadecimal value\012\000"
 4621      78202D20 
 4621      6F6E6520 
 4621      62797465 
 4621      20617320 
 4622 0487 00       		.space	1
 4623              	.LC45:
 4624 0488 20207538 		.ascii	"  u8  - unsigned integer (8 bit)\012\000"
 4624      20202D20 
 4624      756E7369 
 4624      676E6564 
 4624      20696E74 
 4625 04aa 0000     		.space	2
 4626              	.LC46:
 4627 04ac 20207531 		.ascii	"  u16 - unsigned integer (16 bit)\012\000"
 4627      36202D20 
 4627      756E7369 
 4627      676E6564 
 4627      20696E74 
 4628 04cf 00       		.space	1
 4629              	.LC47:
 4630 04d0 20207533 		.ascii	"  u32 - unsigned integer (32 bit)\012\000"
 4630      32202D20 
 4630      756E7369 
 4630      676E6564 
 4630      20696E74 
 4631 04f3 00       		.space	1
 4632              	.LC48:
 4633 04f4 20207338 		.ascii	"  s8  - signed integer (8 bit)\012\000"
 4633      20202D20 
 4633      7369676E 
 4633      65642069 
 4633      6E746567 
 4634              	.LC49:
 4635 0514 20207331 		.ascii	"  s16 - signed integer (16 bit)\012\000"
 4635      36202D20 
 4635      7369676E 
 4635      65642069 
ARM GAS  /tmp/ccLpOfjJ.s 			page 86


 4635      6E746567 
 4636 0535 000000   		.space	3
 4637              	.LC50:
 4638 0538 20207333 		.ascii	"  s32 - signed integer (32 bit)\012\000"
 4638      32202D20 
 4638      7369676E 
 4638      65642069 
 4638      6E746567 
 4639 0559 000000   		.space	3
 4640              	.LC51:
 4641 055c 09737461 		.ascii	"\011start\012\000"
 4641      72740A00 
 4642              	.LC52:
 4643 0564 54686520 		.ascii	"The first byte to read from the memory.\012\000"
 4643      66697273 
 4643      74206279 
 4643      74652074 
 4643      6F207265 
 4644 058d 000000   		.space	3
 4645              	.LC53:
 4646 0590 09636F75 		.ascii	"\011count [default = 1]\012\000"
 4646      6E74205B 
 4646      64656661 
 4646      756C7420 
 4646      3D20315D 
 4647 05a6 0000     		.space	2
 4648              	.LC54:
 4649 05a8 54686520 		.ascii	"The number of elements to read.\012\000"
 4649      6E756D62 
 4649      6572206F 
 4649      6620656C 
 4649      656D656E 
 4650 05c9 000000   		.space	3
 4651              	.LC55:
 4652 05cc 094E4F54 		.ascii	"\011NOTE\012\000"
 4652      450A00
 4653 05d3 00       		.space	1
 4654              	.LC56:
 4655 05d4 54797065 		.ascii	"Type conversions of this function might fail.\012\000"
 4655      20636F6E 
 4655      76657273 
 4655      696F6E73 
 4655      206F6620 
 4656 0603 00       		.space	1
 4657              	.LC57:
 4658 0604 49662073 		.ascii	"If so, use type=hex and convert by hand.\012\000"
 4658      6F2C2075 
 4658      73652074 
 4658      7970653D 
 4658      68657820 
 4659 062e 0000     		.space	2
 4660              	.LC58:
 4661 0630 68657800 		.ascii	"hex\000"
 4662              	.LC59:
 4663 0634 753800   		.ascii	"u8\000"
 4664 0637 00       		.space	1
 4665              	.LC60:
ARM GAS  /tmp/ccLpOfjJ.s 			page 87


 4666 0638 75313600 		.ascii	"u16\000"
 4667              	.LC61:
 4668 063c 75333200 		.ascii	"u32\000"
 4669              	.LC62:
 4670 0640 733800   		.ascii	"s8\000"
 4671 0643 00       		.space	1
 4672              	.LC63:
 4673 0644 73313600 		.ascii	"s16\000"
 4674              	.LC64:
 4675 0648 73333200 		.ascii	"s32\000"
 4676              	.LC65:
 4677 064c 46697273 		.ascii	"First argument invalid. Use 'get_memory_data help' "
 4677      74206172 
 4677      67756D65 
 4677      6E742069 
 4677      6E76616C 
 4678 067f 666F7220 		.ascii	"for help.\012\000"
 4678      68656C70 
 4678      2E0A00
 4679 068a 0000     		.space	2
 4680              	.LC66:
 4681 068c 5761726E 		.ascii	"Warning: request exceeds eeprom size -> limiting to"
 4681      696E673A 
 4681      20726571 
 4681      75657374 
 4681      20657863 
 4682 06bf 20257520 		.ascii	" %u values.\012\000"
 4682      76616C75 
 4682      65732E0A 
 4682      00
 4683              	.LC67:
 4684 06cc 5761726E 		.ascii	"Warning: %u of %u requested bytes were read.\012\000"
 4684      696E673A 
 4684      20257520 
 4684      6F662025 
 4684      75207265 
 4685 06fa 0000     		.space	2
 4686              	.LC68:
 4687 06fc 25303258 		.ascii	"%02X \000"
 4687      2000
 4688 0702 0000     		.space	2
 4689              	.LC69:
 4690 0704 25303375 		.ascii	"%03u \000"
 4690      2000
 4691 070a 0000     		.space	2
 4692              	.LC70:
 4693 070c 25303575 		.ascii	"%05u \000"
 4693      2000
 4694 0712 0000     		.space	2
 4695              	.LC71:
 4696 0714 25303130 		.ascii	"%010u \000"
 4696      752000
 4697 071b 00       		.space	1
 4698              	.LC72:
 4699 071c 252B3033 		.ascii	"%+03d \000"
 4699      642000
 4700 0723 00       		.space	1
ARM GAS  /tmp/ccLpOfjJ.s 			page 88


 4701              	.LC73:
 4702 0724 252B3035 		.ascii	"%+05d \000"
 4702      642000
 4703 072b 00       		.space	1
 4704              	.LC74:
 4705 072c 252B3031 		.ascii	"%+010d \000"
 4705      30642000 
 4706              	.LC75:
 4707 0734 52657365 		.ascii	"Reset Offset %u: FAIL\012\000"
 4707      74204F66 
 4707      66736574 
 4707      2025753A 
 4707      20464149 
 4708 074b 00       		.space	1
 4709              	.LC76:
 4710 074c 52657365 		.ascii	"Reset Offset: DONE\012\000"
 4710      74204F66 
 4710      66736574 
 4710      3A20444F 
 4710      4E450A00 
 4711              	.LC77:
 4712 0760 7368656C 		.ascii	"shellRequestGetVcnlOffset\012\000"
 4712      6C526571 
 4712      75657374 
 4712      47657456 
 4712      636E6C4F 
 4713 077b 00       		.space	1
 4714              	.LC78:
 4715 077c 6765745F 		.ascii	"get_vcnl_offset <idx>\000"
 4715      76636E6C 
 4715      5F6F6666 
 4715      73657420 
 4715      3C696478 
 4716 0792 0000     		.space	2
 4717              	.LC79:
 4718 0794 57726F6E 		.ascii	"Wrong VCNL index: Choose [0 .. %d]\012\000"
 4718      67205643 
 4718      4E4C2069 
 4718      6E646578 
 4718      3A204368 
 4719              	.LC80:
 4720 07b8 47657420 		.ascii	"Get Offset: FAIL\012\000"
 4720      4F666673 
 4720      65743A20 
 4720      4641494C 
 4720      0A00
 4721 07ca 0000     		.space	2
 4722              	.LC81:
 4723 07cc 47657420 		.ascii	"Get Offset: OK \011 Offset=%d\012\000"
 4723      4F666673 
 4723      65743A20 
 4723      4F4B2009 
 4723      204F6666 
 4724              	.LC82:
 4725 07e8 7368656C 		.ascii	"shellRequestPrintVCNL\012\000"
 4725      6C526571 
 4725      75657374 
ARM GAS  /tmp/ccLpOfjJ.s 			page 89


 4725      5072696E 
 4725      7456434E 
 4726 07ff 00       		.space	1
 4727              	.LC83:
 4728 0800 5761726E 		.ascii	"Warning: no arguments specified.\012\000"
 4728      696E673A 
 4728      206E6F20 
 4728      61726775 
 4728      6D656E74 
 4729 0822 0000     		.space	2
 4730              	.LC84:
 4731 0824 5573696E 		.ascii	"Using default values (prints one measurement).\012\000"
 4731      67206465 
 4731      6661756C 
 4731      74207661 
 4731      6C756573 
 4732              	.LC85:
 4733 0854 54797065 		.ascii	"Type 'print_vcnl help' for help.\012\000"
 4733      20277072 
 4733      696E745F 
 4733      76636E6C 
 4733      2068656C 
 4734 0876 0000     		.space	2
 4735              	.LC86:
 4736 0878 2D2D2D2D 		.ascii	"----------------------------------------\012\000"
 4736      2D2D2D2D 
 4736      2D2D2D2D 
 4736      2D2D2D2D 
 4736      2D2D2D2D 
 4737 08a2 0000     		.space	2
 4738              	.LC87:
 4739 08a4 7072696E 		.ascii	"print_vcnl [<seconds>] [<frequency>]\000"
 4739      745F7663 
 4739      6E6C205B 
 4739      3C736563 
 4739      6F6E6473 
 4740 08c9 000000   		.space	3
 4741              	.LC88:
 4742 08cc 09736563 		.ascii	"\011seconds\012\000"
 4742      6F6E6473 
 4742      0A00
 4743 08d6 0000     		.space	2
 4744              	.LC89:
 4745 08d8 4E756D62 		.ascii	"Number of seconds to print the VCNL values. (defaul"
 4745      6572206F 
 4745      66207365 
 4745      636F6E64 
 4745      7320746F 
 4746 090b 743A2031 		.ascii	"t: 1)\012\000"
 4746      290A00
 4747 0912 0000     		.space	2
 4748              	.LC90:
 4749 0914 09667265 		.ascii	"\011frequency\012\000"
 4749      7175656E 
 4749      63790A00 
 4750              	.LC91:
 4751 0920 4E756D62 		.ascii	"Number prints per second. (default: 1)\012\000"
ARM GAS  /tmp/ccLpOfjJ.s 			page 90


 4751      65722070 
 4751      72696E74 
 4751      73207065 
 4751      72207365 
 4752              	.LC92:
 4753 0948 2325643A 		.ascii	"#%d: ambient=0x%04X\011proximity=0x%04X\012\000"
 4753      20616D62 
 4753      69656E74 
 4753      3D307825 
 4753      30345809 
 4754 096e 0000     		.space	2
 4755              	.LC93:
 4756 0970 7368656C 		.ascii	"shellRequestCalib\012\000"
 4756      6C526571 
 4756      75657374 
 4756      43616C69 
 4756      620A00
 4757 0983 00       		.space	1
 4758              	.LC94:
 4759 0984 7368656C 		.ascii	"shellRequestGetRobotId\012\000"
 4759      6C526571 
 4759      75657374 
 4759      47657452 
 4759      6F626F74 
 4760              	.LC95:
 4761 099c 526F626F 		.ascii	"Robot ID: %u\012\000"
 4761      74204944 
 4761      3A202575 
 4761      0A00
 4762 09aa 0000     		.space	2
 4763              	.LC96:
 4764 09ac 5761726E 		.ascii	"Warning: The ID seems to be uninitialized. Is CAN c"
 4764      696E673A 
 4764      20546865 
 4764      20494420 
 4764      7365656D 
 4765 09df 6F6D6D75 		.ascii	"ommunication working correctly?\012\000"
 4765      6E696361 
 4765      74696F6E 
 4765      20776F72 
 4765      6B696E67 
 4766              	.LC97:
 4767 0a00 7365636F 		.ascii	"seconds\000"
 4767      6E647300 
 4768              	.LC98:
 4769 0a08 7365636F 		.ascii	"second\000"
 4769      6E6400
 4770 0a0f 00       		.space	1
 4771              	.LC99:
 4772 0a10 7368656C 		.ascii	"shellRequestGetSystemLoad\012\000"
 4772      6C526571 
 4772      75657374 
 4772      47657453 
 4772      79737465 
 4773 0a2b 00       		.space	1
 4774              	.LC100:
 4775 0a2c 6D656173 		.ascii	"measuring CPU load for %u %s...\012\000"
ARM GAS  /tmp/ccLpOfjJ.s 			page 91


 4775      7572696E 
 4775      67204350 
 4775      55206C6F 
 4775      61642066 
 4776 0a4d 000000   		.space	3
 4777              	.LC101:
 4778 0a50 43505520 		.ascii	"CPU load: %3.2f%%\012\000"
 4778      6C6F6164 
 4778      3A202533 
 4778      2E326625 
 4778      250A00
 4779 0a63 00       		.space	1
 4780              	.LC102:
 4781 0a64 52414D20 		.ascii	"RAM load: %3.2f%% (%u / %u Byte)\012\000"
 4781      6C6F6164 
 4781      3A202533 
 4781      2E326625 
 4781      25202825 
 4782 0a86 0000     		.space	2
 4783              	.LC103:
 4784 0a88 64656164 		.ascii	"deadzone set to %u%%\012\000"
 4784      7A6F6E65 
 4784      20736574 
 4784      20746F20 
 4784      25752525 
 4785 0a9e 0000     		.space	2
 4786              	.LC104:
 4787 0aa0 5761726E 		.ascii	"Warning: invalid arguments\012\000"
 4787      696E673A 
 4787      20696E76 
 4787      616C6964 
 4787      20617267 
 4788              	.LC105:
 4789 0abc 7769695F 		.ascii	"wii_steering <address> [<deadzone>]\000"
 4789      73746565 
 4789      72696E67 
 4789      203C6164 
 4789      64726573 
 4790              	.LC106:
 4791 0ae0 09616464 		.ascii	"\011address\012\000"
 4791      72657373 
 4791      0A00
 4792 0aea 0000     		.space	2
 4793              	.LC107:
 4794 0aec 626C7565 		.ascii	"bluetooth address of the Wiimote controller to pair"
 4794      746F6F74 
 4794      68206164 
 4794      64726573 
 4794      73206F66 
 4795 0b1f 20776974 		.ascii	" with.\012\000"
 4795      682E0A00 
 4796 0b27 00       		.space	1
 4797              	.LC108:
 4798 0b28 09646561 		.ascii	"\011deadzone\012\000"
 4798      647A6F6E 
 4798      650A00
 4799 0b33 00       		.space	1
ARM GAS  /tmp/ccLpOfjJ.s 			page 92


 4800              	.LC109:
 4801 0b34 64656164 		.ascii	"deadzone to set for the Wiimote controller [default"
 4801      7A6F6E65 
 4801      20746F20 
 4801      73657420 
 4801      666F7220 
 4802 0b67 203D2031 		.ascii	" = 10%%].\012\000"
 4802      3025255D 
 4802      2E0A00
 4803 0b72 0000     		.space	2
 4804              	.LC110:
 4805 0b74 22504341 		.ascii	"\"PCA9544 select bus_id\"()\000"
 4805      39353434 
 4805      2073656C 
 4805      65637420 
 4805      6275735F 
 4806 0b8e 0000     		.space	2
 4807              	.LC111:
 4808 0b90 426F6F74 		.ascii	"Bootloader %u.%u.%u\012\000"
 4808      6C6F6164 
 4808      65722025 
 4808      752E2575 
 4808      2E25750A 
 4809 0ba5 000000   		.space	3
 4810              	.LC112:
 4811 0ba8 426F6F74 		.ascii	"Bootloader incompatible\012\000"
 4811      6C6F6164 
 4811      65722069 
 4811      6E636F6D 
 4811      70617469 
 4812 0bc1 000000   		.space	3
 4813              	.LC113:
 4814 0bc4 7368656C 		.ascii	"shellRequestSetBoardId\012\000"
 4814      6C526571 
 4814      75657374 
 4814      53657442 
 4814      6F617264 
 4815              	.LC114:
 4816 0bdc 7365745F 		.ascii	"set_board_id <idx>\000"
 4816      626F6172 
 4816      645F6964 
 4816      203C6964 
 4816      783E00
 4817 0bef 00       		.space	1
 4818              	.LC115:
 4819 0bf0 53657420 		.ascii	"Set Board ID: FAIL\012\000"
 4819      426F6172 
 4819      64204944 
 4819      3A204641 
 4819      494C0A00 
 4820              	.LC116:
 4821 0c04 53657420 		.ascii	"Set Board ID: OK\012\000"
 4821      426F6172 
 4821      64204944 
 4821      3A204F4B 
 4821      0A00
 4822 0c16 0000     		.space	2
ARM GAS  /tmp/ccLpOfjJ.s 			page 93


 4823              	.LC117:
 4824 0c18 656E6162 		.ascii	"enabling\000"
 4824      6C696E67 
 4824      00
 4825 0c21 000000   		.space	3
 4826              	.LC118:
 4827 0c24 64697361 		.ascii	"disabling\000"
 4827      626C696E 
 4827      6700
 4828 0c2e 0000     		.space	2
 4829              	.LC119:
 4830 0c30 7368656C 		.ascii	"shellRequestSetCharging\012\000"
 4830      6C526571 
 4830      75657374 
 4830      53657443 
 4830      68617267 
 4831 0c49 000000   		.space	3
 4832              	.LC120:
 4833 0c4c 7365745F 		.ascii	"set_charging <enable>\000"
 4833      63686172 
 4833      67696E67 
 4833      203C656E 
 4833      61626C65 
 4834 0c62 0000     		.space	2
 4835              	.LC121:
 4836 0c64 09656E61 		.ascii	"\011enable\012\000"
 4836      626C650A 
 4836      00
 4837 0c6d 000000   		.space	3
 4838              	.LC122:
 4839 0c70 57686574 		.ascii	"Whether to enable (1) or to disable (0) the power p"
 4839      68657220 
 4839      746F2065 
 4839      6E61626C 
 4839      65202831 
 4840 0ca3 61746820 		.ascii	"ath controller of the DiWheelDrive board.\012\000"
 4840      636F6E74 
 4840      726F6C6C 
 4840      6572206F 
 4840      66207468 
 4841 0cce 0000     		.space	2
 4842              	.LC123:
 4843 0cd0 25732070 		.ascii	"%s power path controller\012\000"
 4843      6F776572 
 4843      20706174 
 4843      6820636F 
 4843      6E74726F 
 4844 0cea 0000     		.space	2
 4845              	.LC124:
 4846 0cec 43616C6C 		.ascii	"Call with decimal numbers: shell_board <idx>\012\000"
 4846      20776974 
 4846      68206465 
 4846      63696D61 
 4846      6C206E75 
 4847 0d1a 0000     		.space	2
 4848              	.LC125:
 4849 0d1c 7368656C 		.ascii	"shellSwitchBoardCmd\012\000"
ARM GAS  /tmp/ccLpOfjJ.s 			page 94


 4849      6C537769 
 4849      74636842 
 4849      6F617264 
 4849      436D640A 
 4850 0d31 000000   		.space	3
 4851              	.LC126:
 4852 0d34 7368656C 		.ascii	"shellRequestSetVcnlOffset\012\000"
 4852      6C526571 
 4852      75657374 
 4852      53657456 
 4852      636E6C4F 
 4853 0d4f 00       		.space	1
 4854              	.LC127:
 4855 0d50 7365745F 		.ascii	"set_vcnl <idx> <offset>\000"
 4855      76636E6C 
 4855      203C6964 
 4855      783E203C 
 4855      6F666673 
 4856              	.LC128:
 4857 0d68 53657420 		.ascii	"Set Offset: FAIL\012\000"
 4857      4F666673 
 4857      65743A20 
 4857      4641494C 
 4857      0A00
 4858 0d7a 0000     		.space	2
 4859              	.LC129:
 4860 0d7c 53657420 		.ascii	"Set Offset: OK\012\000"
 4860      4F666673 
 4860      65743A20 
 4860      4F4B0A00 
 4861              	.LC130:
 4862 0d8c 7368656C 		.ascii	"shellRequestGetVcnl\012\000"
 4862      6C526571 
 4862      75657374 
 4862      47657456 
 4862      636E6C0A 
 4863 0da1 000000   		.space	3
 4864              	.LC131:
 4865 0da4 25643A20 		.ascii	"%d: Ambi %d\011Prox raw %d\011Prox scaled %d\012\000"
 4865      416D6269 
 4865      20256409 
 4865      50726F78 
 4865      20726177 
 4866              	.LC132:
 4867 0dcc 0A0A00   		.ascii	"\012\012\000"
 4868 0dcf 00       		.space	1
 4869              	.LC133:
 4870 0dd0 6765745F 		.ascii	"get_vcnl <rep>\000"
 4870      76636E6C 
 4870      203C7265 
 4870      703E00
 4871 0ddf 00       		.space	1
 4872              	.LC134:
 4873 0de0 4641494C 		.ascii	"FAIL\000"
 4873      00
 4874 0de5 000000   		.space	3
 4875              	.LC135:
ARM GAS  /tmp/ccLpOfjJ.s 			page 95


 4876 0de8 4F4B00   		.ascii	"OK\000"
 4877 0deb 00       		.space	1
 4878              	.LC136:
 4879 0dec 64697300 		.ascii	"dis\000"
 4880              	.LC137:
 4881 0df0 656E00   		.ascii	"en\000"
 4882 0df3 00       		.space	1
 4883              	.LC138:
 4884 0df4 2000     		.ascii	" \000"
 4885 0df6 0000     		.space	2
 4886              	.LC139:
 4887 0df8 206E6F74 		.ascii	" not \000"
 4887      2000
 4888 0dfe 0000     		.space	2
 4889              	.LC140:
 4890 0e00 6E6F7420 		.ascii	"not \000"
 4890      00
 4891 0e05 000000   		.space	3
 4892              	.LC141:
 4893 0e08 0A434845 		.ascii	"\012CHECK: START\012\000"
 4893      434B3A20 
 4893      53544152 
 4893      540A00
 4894 0e17 00       		.space	1
 4895              	.LC142:
 4896 0e18 56434E4C 		.ascii	"VCNL4020: %d OK\012\000"
 4896      34303230 
 4896      3A202564 
 4896      204F4B0A 
 4896      00
 4897 0e29 000000   		.space	3
 4898              	.LC143:
 4899 0e2c 56434E4C 		.ascii	"VCNL4020: %d FAIL\012\000"
 4899      34303230 
 4899      3A202564 
 4899      20464149 
 4899      4C0A00
 4900 0e3f 00       		.space	1
 4901              	.LC144:
 4902 0e40 4C544334 		.ascii	"LTC4412: plugged in\012\000"
 4902      3431323A 
 4902      20706C75 
 4902      67676564 
 4902      20696E0A 
 4903 0e55 000000   		.space	3
 4904              	.LC145:
 4905 0e58 4C544334 		.ascii	"LTC4412: not plugged in\012\000"
 4905      3431323A 
 4905      206E6F74 
 4905      20706C75 
 4905      67676564 
 4906 0e71 000000   		.space	3
 4907              	.LC146:
 4908 0e74 4D656D6F 		.ascii	"Memory Structure: FAIL\012\000"
 4908      72792053 
 4908      74727563 
 4908      74757265 
ARM GAS  /tmp/ccLpOfjJ.s 			page 96


 4908      3A204641 
 4909              	.LC147:
 4910 0e8c 4D656D6F 		.ascii	"Memory Structure: OK\012\000"
 4910      72792053 
 4910      74727563 
 4910      74757265 
 4910      3A204F4B 
 4911 0ea2 0000     		.space	2
 4912              	.LC148:
 4913 0ea4 494E4132 		.ascii	"INA219:\012\000"
 4913      31393A0A 
 4913      00
 4914 0ead 000000   		.space	3
 4915              	.LC149:
 4916 0eb0 09564444 		.ascii	"\011VDD (3.3V):\012\000"
 4916      2028332E 
 4916      3356293A 
 4916      0A00
 4917 0ebe 0000     		.space	2
 4918              	.LC150:
 4919 0ec0 2D3E0900 		.ascii	"->\011\000"
 4920              	.LC151:
 4921 0ec4 6E6F7420 		.ascii	"not implemented\000"
 4921      696D706C 
 4921      656D656E 
 4921      74656400 
 4922              	.LC152:
 4923 0ed4 4641494C 		.ascii	"FAIL (error code 0x%02X)\000"
 4923      20286572 
 4923      726F7220 
 4923      636F6465 
 4923      20307825 
 4924 0eed 000000   		.space	3
 4925              	.LC153:
 4926 0ef0 0956494F 		.ascii	"\011VIO1.8:\012\000"
 4926      312E383A 
 4926      0A00
 4927 0efa 0000     		.space	2
 4928              	.LC154:
 4929 0efc 0956494F 		.ascii	"\011VIO3.3:\012\000"
 4929      332E333A 
 4929      0A00
 4930 0f06 0000     		.space	2
 4931              	.LC155:
 4932 0f08 0956494F 		.ascii	"\011VIO4.2:\012\000"
 4932      342E323A 
 4932      0A00
 4933 0f12 0000     		.space	2
 4934              	.LC156:
 4935 0f14 0956494F 		.ascii	"\011VIO5.0:\012\000"
 4935      352E303A 
 4935      0A00
 4936 0f1e 0000     		.space	2
 4937              	.LC157:
 4938 0f20 2D3E0949 		.ascii	"->\011INA219: not implemented\012\000"
 4938      4E413231 
 4938      393A206E 
ARM GAS  /tmp/ccLpOfjJ.s 			page 97


 4938      6F742069 
 4938      6D706C65 
 4939              	.LC158:
 4940 0f3c 42513237 		.ascii	"BQ27500:\012\000"
 4940      3530303A 
 4940      0A00
 4941 0f46 0000     		.space	2
 4942              	.LC159:
 4943 0f48 0950373A 		.ascii	"\011P7:\012\000"
 4943      0A00
 4944 0f4e 0000     		.space	2
 4945              	.LC160:
 4946 0f50 2D3E0950 		.ascii	"->\011P7: \000"
 4946      373A2000 
 4947              	.LC161:
 4948 0f58 0950383A 		.ascii	"\011P8:\012\000"
 4948      0A00
 4949 0f5e 0000     		.space	2
 4950              	.LC162:
 4951 0f60 2D3E0950 		.ascii	"->\011P8: \000"
 4951      383A2000 
 4952              	.LC163:
 4953 0f68 2D3E0949 		.ascii	"->\011INA219: %s\012\000"
 4953      4E413231 
 4953      393A2025 
 4953      730A00
 4954 0f77 00       		.space	1
 4955              	.LC164:
 4956 0f78 41424F52 		.ascii	"ABORT (no battery detected)\000"
 4956      5420286E 
 4956      6F206261 
 4956      74746572 
 4956      79206465 
 4957              	.LC165:
 4958 0f94 0A2D3E09 		.ascii	"\012->\011BQ27500: not implemented\012\000"
 4958      42513237 
 4958      3530303A 
 4958      206E6F74 
 4958      20696D70 
 4959 0fb2 0000     		.space	2
 4960              	.LC166:
 4961 0fb4 0A2D3E09 		.ascii	"\012->\011BQ27500: %s\012\000"
 4961      42513237 
 4961      3530303A 
 4961      2025730A 
 4961      00
 4962 0fc5 000000   		.space	3
 4963              	.LC167:
 4964 0fc8 42513234 		.ascii	"BQ24103A:\012\000"
 4964      31303341 
 4964      3A0A00
 4965 0fd3 00       		.space	1
 4966              	.LC168:
 4967 0fd4 54686973 		.ascii	"This test is skipped. Rerun when plugged in.\012\000"
 4967      20746573 
 4967      74206973 
 4967      20736B69 
ARM GAS  /tmp/ccLpOfjJ.s 			page 98


 4967      70706564 
 4968 1002 0000     		.space	2
 4969              	.LC169:
 4970 1004 25736162 		.ascii	"%sabling charger...\012\000"
 4970      6C696E67 
 4970      20636861 
 4970      72676572 
 4970      2E2E2E0A 
 4971 1019 000000   		.space	3
 4972              	.LC170:
 4973 101c 73746174 		.ascii	"status:%scharging\012\000"
 4973      75733A25 
 4973      73636861 
 4973      7267696E 
 4973      670A00
 4974 102f 00       		.space	1
 4975              	.LC171:
 4976 1030 57543132 		.ascii	"WT12-A-AI:\012\000"
 4976      2D412D41 
 4976      493A0A00 
 4977              	.LC172:
 4978 103c 74657374 		.ascii	"testing for MUX mode:\011\000"
 4978      696E6720 
 4978      666F7220 
 4978      4D555820 
 4978      6D6F6465 
 4979 1053 00       		.space	1
 4980              	.LC173:
 4981 1054 50415353 		.ascii	"PASSED\012\000"
 4981      45440A00 
 4982              	.LC174:
 4983 105c 4641494C 		.ascii	"FAILED -> setting MUX mode now\012\000"
 4983      4544202D 
 4983      3E207365 
 4983      7474696E 
 4983      67204D55 
 4984              	.LC175:
 4985 107c 53455420 		.ascii	"SET BT AUTH *\000"
 4985      42542041 
 4985      55544820 
 4985      2A00
 4986 108a 0000     		.space	2
 4987              	.LC176:
 4988 108c 53455420 		.ascii	"SET BT PAIR *\000"
 4988      42542050 
 4988      41495220 
 4988      2A00
 4989 109a 0000     		.space	2
 4990              	.LC177:
 4991 109c 53455420 		.ascii	"SET BT SSP 3 0\000"
 4991      42542053 
 4991      53502033 
 4991      203000
 4992 10ab 00       		.space	1
 4993              	.LC178:
 4994 10ac 54454D50 		.ascii	"TEMP\000"
 4994      00
ARM GAS  /tmp/ccLpOfjJ.s 			page 99


 4995 10b1 000000   		.space	3
 4996              	.LC179:
 4997 10b4 53455400 		.ascii	"SET\000"
 4998              	.LC180:
 4999 10b8 504B4C43 		.ascii	"PKLCS1212E4001:\012\000"
 4999      53313231 
 4999      32453430 
 4999      30313A0A 
 4999      00
 5000 10c9 000000   		.space	3
 5001              	.LC181:
 5002 10cc 796F7520 		.ascii	"you should hear the buzzer for one second...\012\000"
 5002      73686F75 
 5002      6C642068 
 5002      65617220 
 5002      74686520 
 5003 10fa 0000     		.space	2
 5004              	.LC182:
 5005 10fc 43484543 		.ascii	"CHECK: FINISH\012\000"
 5005      4B3A2046 
 5005      494E4953 
 5005      480A00
 5006 110b 00       		.space	1
 5007              	.LC183:
 5008 110c 42617474 		.ascii	"Battery good: %s\012\000"
 5008      65727920 
 5008      676F6F64 
 5008      3A202573 
 5008      0A00
 5009 111e 0000     		.space	2
 5010              	.LC184:
 5011 1120 6E6F00   		.ascii	"no\000"
 5012 1123 00       		.space	1
 5013              	.LC185:
 5014 1124 2D3E2052 		.ascii	"-> Rerun test with (another) battery!\012\000"
 5014      6572756E 
 5014      20746573 
 5014      74207769 
 5014      74682028 
 5015 114b 00       		.space	1
 5016              	.LC186:
 5017 114c 79657300 		.ascii	"yes\000"
 5018              	.LC187:
 5019 1150 2D3E0942 		.ascii	"->\011BQ24103A: \000"
 5019      51323431 
 5019      3033413A 
 5019      2000
 5020 115e 0000     		.space	2
 5021              	.LC188:
 5022 1160 7368656C 		.ascii	"shellRequestCheck\012\000"
 5022      6C526571 
 5022      75657374 
 5022      43686563 
 5022      6B0A00
 5023 1173 00       		.space	1
 5024              	.LC189:
 5025 1174 43686172 		.ascii	"Charging.\012\000"
ARM GAS  /tmp/ccLpOfjJ.s 			page 100


 5025      67696E67 
 5025      2E0A00
 5026 117f 00       		.space	1
 5027              	.LC190:
 5028 1180 4E6F7420 		.ascii	"Not charging.\012\000"
 5028      63686172 
 5028      67696E67 
 5028      2E0A00
 5029 118f 00       		.space	1
 5030              	.LC191:
 5031 1190 5741524E 		.ascii	"WARNING: calibration of INA219 failed.\012\000"
 5031      494E473A 
 5031      2063616C 
 5031      69627261 
 5031      74696F6E 
 5032              	.LC192:
 5033 11b8 5741524E 		.ascii	"WARNING: initialization of INA219 failed.\012\000"
 5033      494E473A 
 5033      20696E69 
 5033      7469616C 
 5033      697A6174 
 5034 11e3 00       		.space	1
 5035              	.LC193:
 5036 11e4 4E4F5445 		.ascii	"NOTE: LSB for current measurement was limited when "
 5036      3A204C53 
 5036      4220666F 
 5036      72206375 
 5036      7272656E 
 5037 1217 696E6974 		.ascii	"initializing INA219 (%u -> %u)\000"
 5037      69616C69 
 5037      7A696E67 
 5037      20494E41 
 5037      32313920 
 5038 1236 0000     		.space	2
 5039              	.LC194:
 5040 1238 414D6952 		.ascii	"AMiRo PowerManagement 1.1\012\000"
 5040      6F20506F 
 5040      7765724D 
 5040      616E6167 
 5040      656D656E 
 5041 1253 00       		.space	1
 5042              	.LC195:
 5043 1254 43686962 		.ascii	"ChibiOS 2.6.8\012\000"
 5043      694F5320 
 5043      322E362E 
 5043      380A00
 5044 1263 00       		.space	1
 5045              	.LC196:
 5046 1264 49324320 		.ascii	"I2C #1 stalled! trying to clear the bus... (this wi"
 5046      23312073 
 5046      74616C6C 
 5046      65642120 
 5046      74727969 
 5047 1297 6C6C2074 		.ascii	"ll take 20 seconds)\012\000"
 5047      616B6520 
 5047      32302073 
 5047      65636F6E 
ARM GAS  /tmp/ccLpOfjJ.s 			page 101


 5047      6473290A 
 5048              	.LC197:
 5049 12ac 49324320 		.ascii	"I2C #2 stalled! trying to clear the bus... (this wi"
 5049      23322073 
 5049      74616C6C 
 5049      65642120 
 5049      74727969 
 5050 12df 6C6C2074 		.ascii	"ll take 20 seconds)\012\000"
 5050      616B6520 
 5050      32302073 
 5050      65636F6E 
 5050      6473290A 
 5051              	.LC198:
 5052 12f4 426F6172 		.ascii	"Board ID: %u\012\000"
 5052      64204944 
 5052      3A202575 
 5052      0A00
 5053 1302 0000     		.space	2
 5054              	.LC199:
 5055 1304 4572726F 		.ascii	"Error reading board ID\012\000"
 5055      72207265 
 5055      6164696E 
 5055      6720626F 
 5055      61726420 
 5056              	.LC200:
 5057 131c 4552524F 		.ascii	"ERROR: unable to shut down (bootloader deprecated)."
 5057      523A2075 
 5057      6E61626C 
 5057      6520746F 
 5057      20736875 
 5058 134f 0A00     		.ascii	"\012\000"
 5059 1351 000000   		.space	3
 5060              	.LC201:
 5061 1354 4552524F 		.ascii	"ERROR: Requested shutdown not supported.\012\000"
 5061      523A2052 
 5061      65717565 
 5061      73746564 
 5061      20736875 
 5062 137e 0000     		.space	2
 5063              	.LC202:
 5064 1380 696E6974 		.ascii	"initiating shutdown sequence...\012\000"
 5064      69617469 
 5064      6E672073 
 5064      68757464 
 5064      6F776E20 
 5065 13a1 000000   		.space	3
 5066              	.LC203:
 5067 13a4 73746F70 		.ascii	"stopping all threads and periphery...\000"
 5067      70696E67 
 5067      20616C6C 
 5067      20746872 
 5067      65616473 
 5068 13ca 0000     		.space	2
 5069              	.LC204:
 5070 13cc 09646F6E 		.ascii	"\011done\012\000"
 5070      650A00
 5071 13d3 00       		.space	1
ARM GAS  /tmp/ccLpOfjJ.s 			page 102


 5072              	.LC205:
 5073 13d4 4552524F 		.ascii	"ERROR: invalid shutdown requested (%u).\012\000"
 5073      523A2069 
 5073      6E76616C 
 5073      69642073 
 5073      68757464 
 5074 13fd 000000   		.space	3
 5075              	.LC206:
 5076 1400 73687574 		.ascii	"shutdown\000"
 5076      646F776E 
 5076      00
 5077 1409 000000   		.space	3
 5078              	.LC207:
 5079 140c 63686563 		.ascii	"check\000"
 5079      6B00
 5080 1412 0000     		.space	2
 5081              	.LC208:
 5082 1414 72657365 		.ascii	"reset_memory\000"
 5082      745F6D65 
 5082      6D6F7279 
 5082      00
 5083 1421 000000   		.space	3
 5084              	.LC209:
 5085 1424 6765745F 		.ascii	"get_board_id\000"
 5085      626F6172 
 5085      645F6964 
 5085      00
 5086 1431 000000   		.space	3
 5087              	.LC210:
 5088 1434 7365745F 		.ascii	"set_board_id\000"
 5088      626F6172 
 5088      645F6964 
 5088      00
 5089 1441 000000   		.space	3
 5090              	.LC211:
 5091 1444 6765745F 		.ascii	"get_memory_data\000"
 5091      6D656D6F 
 5091      72795F64 
 5091      61746100 
 5092              	.LC212:
 5093 1454 6765745F 		.ascii	"get_vcnl\000"
 5093      76636E6C 
 5093      00
 5094 145d 000000   		.space	3
 5095              	.LC213:
 5096 1460 63616C69 		.ascii	"calib_vcnl_offset\000"
 5096      625F7663 
 5096      6E6C5F6F 
 5096      66667365 
 5096      7400
 5097 1472 0000     		.space	2
 5098              	.LC214:
 5099 1474 7365745F 		.ascii	"set_vcnl_offset\000"
 5099      76636E6C 
 5099      5F6F6666 
 5099      73657400 
 5100              	.LC215:
ARM GAS  /tmp/ccLpOfjJ.s 			page 103


 5101 1484 72657365 		.ascii	"reset_vcnl_offset\000"
 5101      745F7663 
 5101      6E6C5F6F 
 5101      66667365 
 5101      7400
 5102 1496 0000     		.space	2
 5103              	.LC216:
 5104 1498 6765745F 		.ascii	"get_vcnl_offset\000"
 5104      76636E6C 
 5104      5F6F6666 
 5104      73657400 
 5105              	.LC217:
 5106 14a8 6765745F 		.ascii	"get_robot_id\000"
 5106      726F626F 
 5106      745F6964 
 5106      00
 5107 14b5 000000   		.space	3
 5108              	.LC218:
 5109 14b8 6765745F 		.ascii	"get_system_load\000"
 5109      73797374 
 5109      656D5F6C 
 5109      6F616400 
 5110              	.LC219:
 5111 14c8 7365745F 		.ascii	"set_charging\000"
 5111      63686172 
 5111      67696E67 
 5111      00
 5112 14d5 000000   		.space	3
 5113              	.LC220:
 5114 14d8 7072696E 		.ascii	"print_vcnl\000"
 5114      745F7663 
 5114      6E6C00
 5115 14e3 00       		.space	1
 5116              	.LC221:
 5117 14e4 7368656C 		.ascii	"shell_board\000"
 5117      6C5F626F 
 5117      61726400 
 5118              	.LC222:
 5119 14f0 6765745F 		.ascii	"get_bootloader_info\000"
 5119      626F6F74 
 5119      6C6F6164 
 5119      65725F69 
 5119      6E666F00 
 5120              	.LC223:
 5121 1504 7769695F 		.ascii	"wii_steering\000"
 5121      73746565 
 5121      72696E67 
 5121      00
 5122 1511 000000   		.section	.rodata.CSWTCH.194,"a",%progbits
 5123              		.align	2
 5124              		.set	.LANCHOR3,. + 0
 5125              		.type	CSWTCH.194, %object
 5126              		.size	CSWTCH.194, 20
 5127              	CSWTCH.194:
 5128 0000 D8010008 		.word	134218200
 5129 0004 D4010008 		.word	134218196
 5130 0008 D0010008 		.word	134218192
ARM GAS  /tmp/ccLpOfjJ.s 			page 104


 5131 000c E8010008 		.word	134218216
 5132 0010 E8010008 		.word	134218216
 5133              		.section	.rodata.CSWTCH.195,"a",%progbits
 5134              		.align	2
 5135              		.set	.LANCHOR4,. + 0
 5136              		.type	CSWTCH.195, %object
 5137              		.size	CSWTCH.195, 20
 5138              	CSWTCH.195:
 5139 0000 D8010008 		.word	134218200
 5140 0004 D4010008 		.word	134218196
 5141 0008 D0010008 		.word	134218192
 5142 000c DC010008 		.word	134218204
 5143 0010 E0010008 		.word	134218208
 5144              		.section	.rodata.CSWTCH.196,"a",%progbits
 5145              		.align	2
 5146              		.set	.LANCHOR5,. + 0
 5147              		.type	CSWTCH.196, %object
 5148              		.size	CSWTCH.196, 20
 5149              	CSWTCH.196:
 5150 0000 D8010008 		.word	134218200
 5151 0004 D4010008 		.word	134218196
 5152 0008 D0010008 		.word	134218192
 5153 000c DC010008 		.word	134218204
 5154 0010 E0010008 		.word	134218208
 5155              		.section	.rodata._ZL8commands,"a",%progbits
 5156              		.align	2
 5157              		.type	_ZL8commands, %object
 5158              		.size	_ZL8commands, 152
 5159              	_ZL8commands:
 5160 0000 00140000 		.word	.LC206
 5161 0004 00000000 		.word	_Z20shellRequestShutdownP20BaseSequentialStreamiPPc
 5162 0008 0C140000 		.word	.LC207
 5163 000c 00000000 		.word	_Z17shellRequestCheckP20BaseSequentialStreamiPPc
 5164 0010 14140000 		.word	.LC208
 5165 0014 00000000 		.word	_Z23shellRequestResetMemoryP20BaseSequentialStreamiPPc
 5166 0018 24140000 		.word	.LC209
 5167 001c 00000000 		.word	_Z22shellRequestGetBoardIdP20BaseSequentialStreamiPPc
 5168 0020 34140000 		.word	.LC210
 5169 0024 00000000 		.word	_Z22shellRequestSetBoardIdP20BaseSequentialStreamiPPc
 5170 0028 44140000 		.word	.LC211
 5171 002c 00000000 		.word	_Z25shellRequestGetMemoryDataP20BaseSequentialStreamiPPc
 5172 0030 54140000 		.word	.LC212
 5173 0034 00000000 		.word	_Z19shellRequestGetVcnlP20BaseSequentialStreamiPPc
 5174 0038 60140000 		.word	.LC213
 5175 003c 00000000 		.word	_Z17shellRequestCalibP20BaseSequentialStreamiPPc
 5176 0040 74140000 		.word	.LC214
 5177 0044 00000000 		.word	_Z25shellRequestSetVcnlOffsetP20BaseSequentialStreamiPPc
 5178 0048 84140000 		.word	.LC215
 5179 004c 00000000 		.word	_Z27shellRequestResetVcnlOffsetP20BaseSequentialStreamiPPc
 5180 0050 98140000 		.word	.LC216
 5181 0054 00000000 		.word	_Z25shellRequestGetVcnlOffsetP20BaseSequentialStreamiPPc
 5182 0058 A8140000 		.word	.LC217
 5183 005c 00000000 		.word	_Z22shellRequestGetRobotIdP20BaseSequentialStreamiPPc
 5184 0060 B8140000 		.word	.LC218
 5185 0064 00000000 		.word	_Z25shellRequestGetSystemLoadP20BaseSequentialStreamiPPc
 5186 0068 C8140000 		.word	.LC219
 5187 006c 00000000 		.word	_Z23shellRequestSetChargingP20BaseSequentialStreamiPPc
ARM GAS  /tmp/ccLpOfjJ.s 			page 105


 5188 0070 D8140000 		.word	.LC220
 5189 0074 00000000 		.word	_Z21shellRequestPrintVCNLP20BaseSequentialStreamiPPc
 5190 0078 E4140000 		.word	.LC221
 5191 007c 00000000 		.word	_Z19shellSwitchBoardCmdP20BaseSequentialStreamiPPc
 5192 0080 F0140000 		.word	.LC222
 5193 0084 00000000 		.word	_Z29shellRequestGetBootloaderInfoP20BaseSequentialStreamiPPc
 5194 0088 04150000 		.word	.LC223
 5195 008c 00000000 		.word	_Z23shellRequestWiiSteeringP20BaseSequentialStreamiPPc
 5196 0090 00000000 		.word	0
 5197 0094 00000000 		.word	0
 5198              		.hidden	__dso_handle
 5199              		.ident	"GCC: (GNU Tools for ARM Embedded Processors) 4.8.3 20140228 (release) [ARM/embedded-4_8-br
ARM GAS  /tmp/ccLpOfjJ.s 			page 106

