ARM GAS  /tmp/ccWUSK9D.s 			page 1


   1              		.syntax unified
   2              		.cpu cortex-m4
   3              		.eabi_attribute 27, 3
   4              		.eabi_attribute 28, 1
   5              		.fpu fpv4-sp-d16
   6              		.eabi_attribute 20, 1
   7              		.eabi_attribute 21, 1
   8              		.eabi_attribute 23, 3
   9              		.eabi_attribute 24, 1
  10              		.eabi_attribute 25, 1
  11              		.eabi_attribute 26, 1
  12              		.eabi_attribute 30, 2
  13              		.eabi_attribute 34, 1
  14              		.eabi_attribute 18, 4
  15              		.thumb
  16              		.file	"uart.c"
  17              		.section	.text.uartInit,"ax",%progbits
  18              		.align	2
  19              		.p2align 4,,15
  20              		.global	uartInit
  21              		.thumb
  22              		.thumb_func
  23              		.type	uartInit, %function
  24              	uartInit:
  25              		@ args = 0, pretend = 0, frame = 0
  26              		@ frame_needed = 0, uses_anonymous_args = 0
  27              		@ link register save eliminated.
  28 0000 FFF7FEBF 		b	uart_lld_init
  29              		.size	uartInit, .-uartInit
  30 0004 AFF30080 		.section	.text.uartObjectInit,"ax",%progbits
  30      AFF30080 
  30      AFF30080 
  31              		.align	2
  32              		.p2align 4,,15
  33              		.global	uartObjectInit
  34              		.thumb
  35              		.thumb_func
  36              		.type	uartObjectInit, %function
  37              	uartObjectInit:
  38              		@ args = 0, pretend = 0, frame = 0
  39              		@ frame_needed = 0, uses_anonymous_args = 0
  40              		@ link register save eliminated.
  41 0000 0023     		movs	r3, #0
  42 0002 0122     		movs	r2, #1
  43 0004 0270     		strb	r2, [r0]
  44 0006 4370     		strb	r3, [r0, #1]
  45 0008 8370     		strb	r3, [r0, #2]
  46 000a 4360     		str	r3, [r0, #4]
  47 000c 7047     		bx	lr
  48              		.size	uartObjectInit, .-uartObjectInit
  49 000e 00BF     		.section	.text.uartStart,"ax",%progbits
  50              		.align	2
  51              		.p2align 4,,15
  52              		.global	uartStart
  53              		.thumb
  54              		.thumb_func
  55              		.type	uartStart, %function
ARM GAS  /tmp/ccWUSK9D.s 			page 2


  56              	uartStart:
  57              		@ args = 0, pretend = 0, frame = 0
  58              		@ frame_needed = 0, uses_anonymous_args = 0
  59 0000 38B5     		push	{r3, r4, r5, lr}
  60 0002 0446     		mov	r4, r0
  61 0004 0D46     		mov	r5, r1
  62 0006 C0B1     		cbz	r0, .L4
  63 0008 B9B1     		cbz	r1, .L4
  64              	.L5:
  65 000a 2023     		movs	r3, #32
  66              	@ 104 "../../../ChibiOS/os/hal/src/uart.c" 1
  67 000c 83F31188 		msr     BASEPRI, r3
  68              	@ 0 "" 2
  69              		.thumb
  70 0010 FFF7FEFF 		bl	dbg_check_lock
  71 0014 2378     		ldrb	r3, [r4]	@ zero_extendqisi2
  72 0016 013B     		subs	r3, r3, #1
  73 0018 012B     		cmp	r3, #1
  74 001a 02D9     		bls	.L6
  75 001c 0948     		ldr	r0, .L11
  76 001e FFF7FEFF 		bl	chDbgPanic
  77              	.L6:
  78 0022 2046     		mov	r0, r4
  79 0024 6560     		str	r5, [r4, #4]
  80 0026 FFF7FEFF 		bl	uart_lld_start
  81 002a 0223     		movs	r3, #2
  82 002c 2370     		strb	r3, [r4]
  83 002e FFF7FEFF 		bl	dbg_check_unlock
  84 0032 0023     		movs	r3, #0
  85              	@ 111 "../../../ChibiOS/os/hal/src/uart.c" 1
  86 0034 83F31188 		msr     BASEPRI, r3
  87              	@ 0 "" 2
  88              		.thumb
  89 0038 38BD     		pop	{r3, r4, r5, pc}
  90              	.L4:
  91 003a 0348     		ldr	r0, .L11+4
  92 003c FFF7FEFF 		bl	chDbgPanic
  93 0040 E3E7     		b	.L5
  94              	.L12:
  95 0042 00BF     		.align	2
  96              	.L11:
  97 0044 10000000 		.word	.LC1
  98 0048 00000000 		.word	.LC0
  99              		.size	uartStart, .-uartStart
 100 004c AFF30080 		.section	.text.uartStop,"ax",%progbits
 101              		.align	2
 102              		.p2align 4,,15
 103              		.global	uartStop
 104              		.thumb
 105              		.thumb_func
 106              		.type	uartStop, %function
 107              	uartStop:
 108              		@ args = 0, pretend = 0, frame = 0
 109              		@ frame_needed = 0, uses_anonymous_args = 0
 110 0000 38B5     		push	{r3, r4, r5, lr}
 111 0002 0446     		mov	r4, r0
 112 0004 C8B1     		cbz	r0, .L16
ARM GAS  /tmp/ccWUSK9D.s 			page 3


 113              	.L14:
 114 0006 2023     		movs	r3, #32
 115              	@ 125 "../../../ChibiOS/os/hal/src/uart.c" 1
 116 0008 83F31188 		msr     BASEPRI, r3
 117              	@ 0 "" 2
 118              		.thumb
 119 000c FFF7FEFF 		bl	dbg_check_lock
 120 0010 2378     		ldrb	r3, [r4]	@ zero_extendqisi2
 121 0012 013B     		subs	r3, r3, #1
 122 0014 012B     		cmp	r3, #1
 123 0016 02D9     		bls	.L15
 124 0018 0A48     		ldr	r0, .L17
 125 001a FFF7FEFF 		bl	chDbgPanic
 126              	.L15:
 127 001e 2046     		mov	r0, r4
 128 0020 FFF7FEFF 		bl	uart_lld_stop
 129 0024 0025     		movs	r5, #0
 130 0026 0123     		movs	r3, #1
 131 0028 2370     		strb	r3, [r4]
 132 002a 6570     		strb	r5, [r4, #1]
 133 002c A570     		strb	r5, [r4, #2]
 134 002e FFF7FEFF 		bl	dbg_check_unlock
 135 0032 2B46     		mov	r3, r5
 136              	@ 133 "../../../ChibiOS/os/hal/src/uart.c" 1
 137 0034 83F31188 		msr     BASEPRI, r3
 138              	@ 0 "" 2
 139              		.thumb
 140 0038 38BD     		pop	{r3, r4, r5, pc}
 141              	.L16:
 142 003a 0348     		ldr	r0, .L17+4
 143 003c FFF7FEFF 		bl	chDbgPanic
 144 0040 E1E7     		b	.L14
 145              	.L18:
 146 0042 00BF     		.align	2
 147              	.L17:
 148 0044 30000000 		.word	.LC3
 149 0048 20000000 		.word	.LC2
 150              		.size	uartStop, .-uartStop
 151 004c AFF30080 		.section	.text.uartStartSend,"ax",%progbits
 152              		.align	2
 153              		.p2align 4,,15
 154              		.global	uartStartSend
 155              		.thumb
 156              		.thumb_func
 157              		.type	uartStartSend, %function
 158              	uartStartSend:
 159              		@ args = 0, pretend = 0, frame = 0
 160              		@ frame_needed = 0, uses_anonymous_args = 0
 161 0000 70B5     		push	{r4, r5, r6, lr}
 162 0002 0446     		mov	r4, r0
 163 0004 0D46     		mov	r5, r1
 164 0006 1646     		mov	r6, r2
 165 0008 00B1     		cbz	r0, .L20
 166 000a E9B9     		cbnz	r1, .L33
 167              	.L20:
 168 000c 1248     		ldr	r0, .L35
 169 000e FFF7FEFF 		bl	chDbgPanic
ARM GAS  /tmp/ccWUSK9D.s 			page 4


 170              	.L21:
 171 0012 2023     		movs	r3, #32
 172              	@ 152 "../../../ChibiOS/os/hal/src/uart.c" 1
 173 0014 83F31188 		msr     BASEPRI, r3
 174              	@ 0 "" 2
 175              		.thumb
 176 0018 FFF7FEFF 		bl	dbg_check_lock
 177 001c 2378     		ldrb	r3, [r4]	@ zero_extendqisi2
 178 001e 022B     		cmp	r3, #2
 179 0020 02D0     		beq	.L22
 180 0022 0E48     		ldr	r0, .L35+4
 181 0024 FFF7FEFF 		bl	chDbgPanic
 182              	.L22:
 183 0028 6378     		ldrb	r3, [r4, #1]	@ zero_extendqisi2
 184 002a 012B     		cmp	r3, #1
 185 002c 0FD0     		beq	.L34
 186              	.L23:
 187 002e 2946     		mov	r1, r5
 188 0030 3246     		mov	r2, r6
 189 0032 2046     		mov	r0, r4
 190 0034 FFF7FEFF 		bl	uart_lld_start_send
 191 0038 0123     		movs	r3, #1
 192 003a 6370     		strb	r3, [r4, #1]
 193 003c FFF7FEFF 		bl	dbg_check_unlock
 194 0040 0023     		movs	r3, #0
 195              	@ 160 "../../../ChibiOS/os/hal/src/uart.c" 1
 196 0042 83F31188 		msr     BASEPRI, r3
 197              	@ 0 "" 2
 198              		.thumb
 199 0046 70BD     		pop	{r4, r5, r6, pc}
 200              	.L33:
 201 0048 002A     		cmp	r2, #0
 202 004a E2D1     		bne	.L21
 203 004c DEE7     		b	.L20
 204              	.L34:
 205 004e 0448     		ldr	r0, .L35+8
 206 0050 FFF7FEFF 		bl	chDbgPanic
 207 0054 EBE7     		b	.L23
 208              	.L36:
 209 0056 00BF     		.align	2
 210              	.L35:
 211 0058 40000000 		.word	.LC4
 212 005c 54000000 		.word	.LC5
 213 0060 68000000 		.word	.LC6
 214              		.size	uartStartSend, .-uartStartSend
 215 0064 AFF30080 		.section	.text.uartStartSendI,"ax",%progbits
 215      AFF30080 
 215      AFF30080 
 216              		.align	2
 217              		.p2align 4,,15
 218              		.global	uartStartSendI
 219              		.thumb
 220              		.thumb_func
 221              		.type	uartStartSendI, %function
 222              	uartStartSendI:
 223              		@ args = 0, pretend = 0, frame = 0
 224              		@ frame_needed = 0, uses_anonymous_args = 0
ARM GAS  /tmp/ccWUSK9D.s 			page 5


 225 0000 70B5     		push	{r4, r5, r6, lr}
 226 0002 0446     		mov	r4, r0
 227 0004 0D46     		mov	r5, r1
 228 0006 1646     		mov	r6, r2
 229 0008 FFF7FEFF 		bl	chDbgCheckClassI
 230 000c 04B1     		cbz	r4, .L38
 231 000e 9DB9     		cbnz	r5, .L51
 232              	.L38:
 233 0010 0D48     		ldr	r0, .L53
 234 0012 FFF7FEFF 		bl	chDbgPanic
 235              	.L39:
 236 0016 2378     		ldrb	r3, [r4]	@ zero_extendqisi2
 237 0018 022B     		cmp	r3, #2
 238 001a 02D0     		beq	.L40
 239 001c 0B48     		ldr	r0, .L53+4
 240 001e FFF7FEFF 		bl	chDbgPanic
 241              	.L40:
 242 0022 6378     		ldrb	r3, [r4, #1]	@ zero_extendqisi2
 243 0024 012B     		cmp	r3, #1
 244 0026 0AD0     		beq	.L52
 245              	.L41:
 246 0028 2946     		mov	r1, r5
 247 002a 3246     		mov	r2, r6
 248 002c 2046     		mov	r0, r4
 249 002e FFF7FEFF 		bl	uart_lld_start_send
 250 0032 0123     		movs	r3, #1
 251 0034 6370     		strb	r3, [r4, #1]
 252 0036 70BD     		pop	{r4, r5, r6, pc}
 253              	.L51:
 254 0038 002E     		cmp	r6, #0
 255 003a ECD1     		bne	.L39
 256 003c E8E7     		b	.L38
 257              	.L52:
 258 003e 0448     		ldr	r0, .L53+8
 259 0040 FFF7FEFF 		bl	chDbgPanic
 260 0044 F0E7     		b	.L41
 261              	.L54:
 262 0046 00BF     		.align	2
 263              	.L53:
 264 0048 7C000000 		.word	.LC7
 265 004c 90000000 		.word	.LC8
 266 0050 A8000000 		.word	.LC9
 267              		.size	uartStartSendI, .-uartStartSendI
 268 0054 AFF30080 		.section	.text.uartStopSend,"ax",%progbits
 268      AFF30080 
 268      AFF30080 
 269              		.align	2
 270              		.p2align 4,,15
 271              		.global	uartStopSend
 272              		.thumb
 273              		.thumb_func
 274              		.type	uartStopSend, %function
 275              	uartStopSend:
 276              		@ args = 0, pretend = 0, frame = 0
 277              		@ frame_needed = 0, uses_anonymous_args = 0
 278 0000 38B5     		push	{r3, r4, r5, lr}
 279 0002 0446     		mov	r4, r0
ARM GAS  /tmp/ccWUSK9D.s 			page 6


 280 0004 E0B1     		cbz	r0, .L63
 281              	.L56:
 282 0006 2023     		movs	r3, #32
 283              	@ 206 "../../../ChibiOS/os/hal/src/uart.c" 1
 284 0008 83F31188 		msr     BASEPRI, r3
 285              	@ 0 "" 2
 286              		.thumb
 287 000c FFF7FEFF 		bl	dbg_check_lock
 288 0010 2378     		ldrb	r3, [r4]	@ zero_extendqisi2
 289 0012 022B     		cmp	r3, #2
 290 0014 02D0     		beq	.L57
 291 0016 0C48     		ldr	r0, .L65
 292 0018 FFF7FEFF 		bl	chDbgPanic
 293              	.L57:
 294 001c 6378     		ldrb	r3, [r4, #1]	@ zero_extendqisi2
 295 001e 012B     		cmp	r3, #1
 296 0020 07D0     		beq	.L64
 297 0022 0025     		movs	r5, #0
 298              	.L58:
 299 0024 FFF7FEFF 		bl	dbg_check_unlock
 300 0028 0023     		movs	r3, #0
 301              	@ 215 "../../../ChibiOS/os/hal/src/uart.c" 1
 302 002a 83F31188 		msr     BASEPRI, r3
 303              	@ 0 "" 2
 304              		.thumb
 305 002e 2846     		mov	r0, r5
 306 0030 38BD     		pop	{r3, r4, r5, pc}
 307              	.L64:
 308 0032 2046     		mov	r0, r4
 309 0034 FFF7FEFF 		bl	uart_lld_stop_send
 310 0038 0023     		movs	r3, #0
 311 003a 0546     		mov	r5, r0
 312 003c 6370     		strb	r3, [r4, #1]
 313 003e F1E7     		b	.L58
 314              	.L63:
 315 0040 0248     		ldr	r0, .L65+4
 316 0042 FFF7FEFF 		bl	chDbgPanic
 317 0046 DEE7     		b	.L56
 318              	.L66:
 319              		.align	2
 320              	.L65:
 321 0048 D4000000 		.word	.LC11
 322 004c C0000000 		.word	.LC10
 323              		.size	uartStopSend, .-uartStopSend
 324              		.section	.text.uartStopSendI,"ax",%progbits
 325              		.align	2
 326              		.p2align 4,,15
 327              		.global	uartStopSendI
 328              		.thumb
 329              		.thumb_func
 330              		.type	uartStopSendI, %function
 331              	uartStopSendI:
 332              		@ args = 0, pretend = 0, frame = 0
 333              		@ frame_needed = 0, uses_anonymous_args = 0
 334 0000 10B5     		push	{r4, lr}
 335 0002 0446     		mov	r4, r0
 336 0004 FFF7FEFF 		bl	chDbgCheckClassI
ARM GAS  /tmp/ccWUSK9D.s 			page 7


 337 0008 84B1     		cbz	r4, .L75
 338              	.L68:
 339 000a 2378     		ldrb	r3, [r4]	@ zero_extendqisi2
 340 000c 022B     		cmp	r3, #2
 341 000e 02D0     		beq	.L69
 342 0010 0848     		ldr	r0, .L77
 343 0012 FFF7FEFF 		bl	chDbgPanic
 344              	.L69:
 345 0016 6378     		ldrb	r3, [r4, #1]	@ zero_extendqisi2
 346 0018 012B     		cmp	r3, #1
 347 001a 01D0     		beq	.L76
 348 001c 0020     		movs	r0, #0
 349 001e 10BD     		pop	{r4, pc}
 350              	.L76:
 351 0020 2046     		mov	r0, r4
 352 0022 FFF7FEFF 		bl	uart_lld_stop_send
 353 0026 0023     		movs	r3, #0
 354 0028 6370     		strb	r3, [r4, #1]
 355 002a 10BD     		pop	{r4, pc}
 356              	.L75:
 357 002c 0248     		ldr	r0, .L77+4
 358 002e FFF7FEFF 		bl	chDbgPanic
 359 0032 EAE7     		b	.L68
 360              	.L78:
 361              		.align	2
 362              	.L77:
 363 0034 FC000000 		.word	.LC13
 364 0038 E8000000 		.word	.LC12
 365              		.size	uartStopSendI, .-uartStopSendI
 366 003c AFF30080 		.section	.text.uartStartReceive,"ax",%progbits
 367              		.align	2
 368              		.p2align 4,,15
 369              		.global	uartStartReceive
 370              		.thumb
 371              		.thumb_func
 372              		.type	uartStartReceive, %function
 373              	uartStartReceive:
 374              		@ args = 0, pretend = 0, frame = 0
 375              		@ frame_needed = 0, uses_anonymous_args = 0
 376 0000 70B5     		push	{r4, r5, r6, lr}
 377 0002 0446     		mov	r4, r0
 378 0004 0D46     		mov	r5, r1
 379 0006 1646     		mov	r6, r2
 380 0008 00B1     		cbz	r0, .L80
 381 000a E9B9     		cbnz	r1, .L93
 382              	.L80:
 383 000c 1248     		ldr	r0, .L95
 384 000e FFF7FEFF 		bl	chDbgPanic
 385              	.L81:
 386 0012 2023     		movs	r3, #32
 387              	@ 262 "../../../ChibiOS/os/hal/src/uart.c" 1
 388 0014 83F31188 		msr     BASEPRI, r3
 389              	@ 0 "" 2
 390              		.thumb
 391 0018 FFF7FEFF 		bl	dbg_check_lock
 392 001c 2378     		ldrb	r3, [r4]	@ zero_extendqisi2
 393 001e 022B     		cmp	r3, #2
ARM GAS  /tmp/ccWUSK9D.s 			page 8


 394 0020 02D0     		beq	.L82
 395 0022 0E48     		ldr	r0, .L95+4
 396 0024 FFF7FEFF 		bl	chDbgPanic
 397              	.L82:
 398 0028 A378     		ldrb	r3, [r4, #2]	@ zero_extendqisi2
 399 002a 012B     		cmp	r3, #1
 400 002c 0FD0     		beq	.L94
 401              	.L83:
 402 002e 2946     		mov	r1, r5
 403 0030 3246     		mov	r2, r6
 404 0032 2046     		mov	r0, r4
 405 0034 FFF7FEFF 		bl	uart_lld_start_receive
 406 0038 0123     		movs	r3, #1
 407 003a A370     		strb	r3, [r4, #2]
 408 003c FFF7FEFF 		bl	dbg_check_unlock
 409 0040 0023     		movs	r3, #0
 410              	@ 270 "../../../ChibiOS/os/hal/src/uart.c" 1
 411 0042 83F31188 		msr     BASEPRI, r3
 412              	@ 0 "" 2
 413              		.thumb
 414 0046 70BD     		pop	{r4, r5, r6, pc}
 415              	.L93:
 416 0048 002A     		cmp	r2, #0
 417 004a E2D1     		bne	.L81
 418 004c DEE7     		b	.L80
 419              	.L94:
 420 004e 0448     		ldr	r0, .L95+8
 421 0050 FFF7FEFF 		bl	chDbgPanic
 422 0054 EBE7     		b	.L83
 423              	.L96:
 424 0056 00BF     		.align	2
 425              	.L95:
 426 0058 10010000 		.word	.LC14
 427 005c 28010000 		.word	.LC15
 428 0060 40010000 		.word	.LC16
 429              		.size	uartStartReceive, .-uartStartReceive
 430 0064 AFF30080 		.section	.text.uartStartReceiveI,"ax",%progbits
 430      AFF30080 
 430      AFF30080 
 431              		.align	2
 432              		.p2align 4,,15
 433              		.global	uartStartReceiveI
 434              		.thumb
 435              		.thumb_func
 436              		.type	uartStartReceiveI, %function
 437              	uartStartReceiveI:
 438              		@ args = 0, pretend = 0, frame = 0
 439              		@ frame_needed = 0, uses_anonymous_args = 0
 440 0000 70B5     		push	{r4, r5, r6, lr}
 441 0002 0446     		mov	r4, r0
 442 0004 0D46     		mov	r5, r1
 443 0006 1646     		mov	r6, r2
 444 0008 FFF7FEFF 		bl	chDbgCheckClassI
 445 000c 04B1     		cbz	r4, .L98
 446 000e 9DB9     		cbnz	r5, .L111
 447              	.L98:
 448 0010 0D48     		ldr	r0, .L113
ARM GAS  /tmp/ccWUSK9D.s 			page 9


 449 0012 FFF7FEFF 		bl	chDbgPanic
 450              	.L99:
 451 0016 2378     		ldrb	r3, [r4]	@ zero_extendqisi2
 452 0018 022B     		cmp	r3, #2
 453 001a 02D0     		beq	.L100
 454 001c 0B48     		ldr	r0, .L113+4
 455 001e FFF7FEFF 		bl	chDbgPanic
 456              	.L100:
 457 0022 A378     		ldrb	r3, [r4, #2]	@ zero_extendqisi2
 458 0024 012B     		cmp	r3, #1
 459 0026 0AD0     		beq	.L112
 460              	.L101:
 461 0028 2946     		mov	r1, r5
 462 002a 3246     		mov	r2, r6
 463 002c 2046     		mov	r0, r4
 464 002e FFF7FEFF 		bl	uart_lld_start_receive
 465 0032 0123     		movs	r3, #1
 466 0034 A370     		strb	r3, [r4, #2]
 467 0036 70BD     		pop	{r4, r5, r6, pc}
 468              	.L111:
 469 0038 002E     		cmp	r6, #0
 470 003a ECD1     		bne	.L99
 471 003c E8E7     		b	.L98
 472              	.L112:
 473 003e 0448     		ldr	r0, .L113+8
 474 0040 FFF7FEFF 		bl	chDbgPanic
 475 0044 F0E7     		b	.L101
 476              	.L114:
 477 0046 00BF     		.align	2
 478              	.L113:
 479 0048 58010000 		.word	.LC17
 480 004c 70010000 		.word	.LC18
 481 0050 88010000 		.word	.LC19
 482              		.size	uartStartReceiveI, .-uartStartReceiveI
 483 0054 AFF30080 		.section	.text.uartStopReceive,"ax",%progbits
 483      AFF30080 
 483      AFF30080 
 484              		.align	2
 485              		.p2align 4,,15
 486              		.global	uartStopReceive
 487              		.thumb
 488              		.thumb_func
 489              		.type	uartStopReceive, %function
 490              	uartStopReceive:
 491              		@ args = 0, pretend = 0, frame = 0
 492              		@ frame_needed = 0, uses_anonymous_args = 0
 493 0000 38B5     		push	{r3, r4, r5, lr}
 494 0002 0446     		mov	r4, r0
 495 0004 E0B1     		cbz	r0, .L123
 496              	.L116:
 497 0006 2023     		movs	r3, #32
 498              	@ 316 "../../../ChibiOS/os/hal/src/uart.c" 1
 499 0008 83F31188 		msr     BASEPRI, r3
 500              	@ 0 "" 2
 501              		.thumb
 502 000c FFF7FEFF 		bl	dbg_check_lock
 503 0010 2378     		ldrb	r3, [r4]	@ zero_extendqisi2
ARM GAS  /tmp/ccWUSK9D.s 			page 10


 504 0012 022B     		cmp	r3, #2
 505 0014 02D0     		beq	.L117
 506 0016 0C48     		ldr	r0, .L125
 507 0018 FFF7FEFF 		bl	chDbgPanic
 508              	.L117:
 509 001c A378     		ldrb	r3, [r4, #2]	@ zero_extendqisi2
 510 001e 012B     		cmp	r3, #1
 511 0020 07D0     		beq	.L124
 512 0022 0025     		movs	r5, #0
 513              	.L118:
 514 0024 FFF7FEFF 		bl	dbg_check_unlock
 515 0028 0023     		movs	r3, #0
 516              	@ 326 "../../../ChibiOS/os/hal/src/uart.c" 1
 517 002a 83F31188 		msr     BASEPRI, r3
 518              	@ 0 "" 2
 519              		.thumb
 520 002e 2846     		mov	r0, r5
 521 0030 38BD     		pop	{r3, r4, r5, pc}
 522              	.L124:
 523 0032 2046     		mov	r0, r4
 524 0034 FFF7FEFF 		bl	uart_lld_stop_receive
 525 0038 0023     		movs	r3, #0
 526 003a 0546     		mov	r5, r0
 527 003c A370     		strb	r3, [r4, #2]
 528 003e F1E7     		b	.L118
 529              	.L123:
 530 0040 0248     		ldr	r0, .L125+4
 531 0042 FFF7FEFF 		bl	chDbgPanic
 532 0046 DEE7     		b	.L116
 533              	.L126:
 534              		.align	2
 535              	.L125:
 536 0048 B4010000 		.word	.LC21
 537 004c A0010000 		.word	.LC20
 538              		.size	uartStopReceive, .-uartStopReceive
 539              		.section	.text.uartStopReceiveI,"ax",%progbits
 540              		.align	2
 541              		.p2align 4,,15
 542              		.global	uartStopReceiveI
 543              		.thumb
 544              		.thumb_func
 545              		.type	uartStopReceiveI, %function
 546              	uartStopReceiveI:
 547              		@ args = 0, pretend = 0, frame = 0
 548              		@ frame_needed = 0, uses_anonymous_args = 0
 549 0000 10B5     		push	{r4, lr}
 550 0002 0446     		mov	r4, r0
 551 0004 FFF7FEFF 		bl	chDbgCheckClassI
 552 0008 84B1     		cbz	r4, .L135
 553              	.L128:
 554 000a 2378     		ldrb	r3, [r4]	@ zero_extendqisi2
 555 000c 022B     		cmp	r3, #2
 556 000e 02D0     		beq	.L129
 557 0010 0848     		ldr	r0, .L137
 558 0012 FFF7FEFF 		bl	chDbgPanic
 559              	.L129:
 560 0016 A378     		ldrb	r3, [r4, #2]	@ zero_extendqisi2
ARM GAS  /tmp/ccWUSK9D.s 			page 11


 561 0018 012B     		cmp	r3, #1
 562 001a 01D0     		beq	.L136
 563 001c 0020     		movs	r0, #0
 564 001e 10BD     		pop	{r4, pc}
 565              	.L136:
 566 0020 2046     		mov	r0, r4
 567 0022 FFF7FEFF 		bl	uart_lld_stop_receive
 568 0026 0023     		movs	r3, #0
 569 0028 A370     		strb	r3, [r4, #2]
 570 002a 10BD     		pop	{r4, pc}
 571              	.L135:
 572 002c 0248     		ldr	r0, .L137+4
 573 002e FFF7FEFF 		bl	chDbgPanic
 574 0032 EAE7     		b	.L128
 575              	.L138:
 576              		.align	2
 577              	.L137:
 578 0034 E4010000 		.word	.LC23
 579 0038 CC010000 		.word	.LC22
 580              		.size	uartStopReceiveI, .-uartStopReceiveI
 581 003c AFF30080 		.section	.rodata.str1.4,"aMS",%progbits,1
 582              		.align	2
 583              	.LC0:
 584 0000 22756172 		.ascii	"\"uartStart\"()\000"
 584      74537461 
 584      72742228 
 584      2900
 585 000e 0000     		.space	2
 586              	.LC1:
 587 0010 75617274 		.ascii	"uartStart(), #1\000"
 587      53746172 
 587      7428292C 
 587      20233100 
 588              	.LC2:
 589 0020 22756172 		.ascii	"\"uartStop\"()\000"
 589      7453746F 
 589      70222829 
 589      00
 590 002d 000000   		.space	3
 591              	.LC3:
 592 0030 75617274 		.ascii	"uartStop(), #1\000"
 592      53746F70 
 592      28292C20 
 592      233100
 593 003f 00       		.space	1
 594              	.LC4:
 595 0040 22756172 		.ascii	"\"uartStartSend\"()\000"
 595      74537461 
 595      72745365 
 595      6E642228 
 595      2900
 596 0052 0000     		.space	2
 597              	.LC5:
 598 0054 75617274 		.ascii	"uartStartSend(), #1\000"
 598      53746172 
 598      7453656E 
 598      6428292C 
ARM GAS  /tmp/ccWUSK9D.s 			page 12


 598      20233100 
 599              	.LC6:
 600 0068 75617274 		.ascii	"uartStartSend(), #2\000"
 600      53746172 
 600      7453656E 
 600      6428292C 
 600      20233200 
 601              	.LC7:
 602 007c 22756172 		.ascii	"\"uartStartSendI\"()\000"
 602      74537461 
 602      72745365 
 602      6E644922 
 602      282900
 603 008f 00       		.space	1
 604              	.LC8:
 605 0090 75617274 		.ascii	"uartStartSendI(), #1\000"
 605      53746172 
 605      7453656E 
 605      64492829 
 605      2C202331 
 606 00a5 000000   		.space	3
 607              	.LC9:
 608 00a8 75617274 		.ascii	"uartStartSendI(), #2\000"
 608      53746172 
 608      7453656E 
 608      64492829 
 608      2C202332 
 609 00bd 000000   		.space	3
 610              	.LC10:
 611 00c0 22756172 		.ascii	"\"uartStopSend\"()\000"
 611      7453746F 
 611      7053656E 
 611      64222829 
 611      00
 612 00d1 000000   		.space	3
 613              	.LC11:
 614 00d4 75617274 		.ascii	"uartStopSend(), #1\000"
 614      53746F70 
 614      53656E64 
 614      28292C20 
 614      233100
 615 00e7 00       		.space	1
 616              	.LC12:
 617 00e8 22756172 		.ascii	"\"uartStopSendI\"()\000"
 617      7453746F 
 617      7053656E 
 617      64492228 
 617      2900
 618 00fa 0000     		.space	2
 619              	.LC13:
 620 00fc 75617274 		.ascii	"uartStopSendI(), #1\000"
 620      53746F70 
 620      53656E64 
 620      4928292C 
 620      20233100 
 621              	.LC14:
 622 0110 22756172 		.ascii	"\"uartStartReceive\"()\000"
ARM GAS  /tmp/ccWUSK9D.s 			page 13


 622      74537461 
 622      72745265 
 622      63656976 
 622      65222829 
 623 0125 000000   		.space	3
 624              	.LC15:
 625 0128 75617274 		.ascii	"uartStartReceive(), #1\000"
 625      53746172 
 625      74526563 
 625      65697665 
 625      28292C20 
 626 013f 00       		.space	1
 627              	.LC16:
 628 0140 75617274 		.ascii	"uartStartReceive(), #2\000"
 628      53746172 
 628      74526563 
 628      65697665 
 628      28292C20 
 629 0157 00       		.space	1
 630              	.LC17:
 631 0158 22756172 		.ascii	"\"uartStartReceiveI\"()\000"
 631      74537461 
 631      72745265 
 631      63656976 
 631      65492228 
 632 016e 0000     		.space	2
 633              	.LC18:
 634 0170 75617274 		.ascii	"uartStartReceiveI(), #1\000"
 634      53746172 
 634      74526563 
 634      65697665 
 634      4928292C 
 635              	.LC19:
 636 0188 75617274 		.ascii	"uartStartReceiveI(), #2\000"
 636      53746172 
 636      74526563 
 636      65697665 
 636      4928292C 
 637              	.LC20:
 638 01a0 22756172 		.ascii	"\"uartStopReceive\"()\000"
 638      7453746F 
 638      70526563 
 638      65697665 
 638      22282900 
 639              	.LC21:
 640 01b4 75617274 		.ascii	"uartStopReceive(), #1\000"
 640      53746F70 
 640      52656365 
 640      69766528 
 640      292C2023 
 641 01ca 0000     		.space	2
 642              	.LC22:
 643 01cc 22756172 		.ascii	"\"uartStopReceiveI\"()\000"
 643      7453746F 
 643      70526563 
 643      65697665 
 643      49222829 
ARM GAS  /tmp/ccWUSK9D.s 			page 14


 644 01e1 000000   		.space	3
 645              	.LC23:
 646 01e4 75617274 		.ascii	"uartStopReceiveI(), #1\000"
 646      53746F70 
 646      52656365 
 646      69766549 
 646      28292C20 
 647 01fb 00       		.ident	"GCC: (GNU Tools for ARM Embedded Processors) 4.8.3 20140228 (release) [ARM/embedded-4_8-br
ARM GAS  /tmp/ccWUSK9D.s 			page 15

