Archive member included because of file (symbol)

/homes/skollbach/Downloads/ASE/gcc-arm-embedded/gcc-arm-none-eabi-4_8-2014q1/bin/../lib/gcc/arm-none-eabi/4.8.3/../../../../arm-none-eabi/lib/armv7-m/libstdc++.a(pure.o)
                              build/obj/HWI2CDriver.o (__cxa_pure_virtual)
/homes/skollbach/Downloads/ASE/gcc-arm-embedded/gcc-arm-none-eabi-4_8-2014q1/bin/../lib/gcc/arm-none-eabi/4.8.3/../../../../arm-none-eabi/lib/armv7-m/libstdc++.a(del_op.o)
                              build/obj/HWSPIDriver.o (operator delete(void*))
/homes/skollbach/Downloads/ASE/gcc-arm-embedded/gcc-arm-none-eabi-4_8-2014q1/bin/../lib/gcc/arm-none-eabi/4.8.3/../../../../arm-none-eabi/lib/armv7-m/libstdc++.a(eh_terminate.o)
                              /homes/skollbach/Downloads/ASE/gcc-arm-embedded/gcc-arm-none-eabi-4_8-2014q1/bin/../lib/gcc/arm-none-eabi/4.8.3/../../../../arm-none-eabi/lib/armv7-m/libstdc++.a(pure.o) (std::terminate())
/homes/skollbach/Downloads/ASE/gcc-arm-embedded/gcc-arm-none-eabi-4_8-2014q1/bin/../lib/gcc/arm-none-eabi/4.8.3/../../../../arm-none-eabi/lib/armv7-m/libstdc++.a(eh_unex_handler.o)
                              /homes/skollbach/Downloads/ASE/gcc-arm-embedded/gcc-arm-none-eabi-4_8-2014q1/bin/../lib/gcc/arm-none-eabi/4.8.3/../../../../arm-none-eabi/lib/armv7-m/libstdc++.a(eh_terminate.o) (__cxxabiv1::__unexpected_handler)
/homes/skollbach/Downloads/ASE/gcc-arm-embedded/gcc-arm-none-eabi-4_8-2014q1/bin/../lib/gcc/arm-none-eabi/4.8.3/../../../../arm-none-eabi/lib/armv7-m/libstdc++.a(eh_catch.o)
                              /homes/skollbach/Downloads/ASE/gcc-arm-embedded/gcc-arm-none-eabi-4_8-2014q1/bin/../lib/gcc/arm-none-eabi/4.8.3/../../../../arm-none-eabi/lib/armv7-m/libstdc++.a(eh_terminate.o) (__cxa_begin_catch)
/homes/skollbach/Downloads/ASE/gcc-arm-embedded/gcc-arm-none-eabi-4_8-2014q1/bin/../lib/gcc/arm-none-eabi/4.8.3/../../../../arm-none-eabi/lib/armv7-m/libstdc++.a(atexit_arm.o)
                              build/obj/main.o (__aeabi_atexit)
/homes/skollbach/Downloads/ASE/gcc-arm-embedded/gcc-arm-none-eabi-4_8-2014q1/bin/../lib/gcc/arm-none-eabi/4.8.3/../../../../arm-none-eabi/lib/armv7-m/libstdc++.a(eh_term_handler.o)
                              /homes/skollbach/Downloads/ASE/gcc-arm-embedded/gcc-arm-none-eabi-4_8-2014q1/bin/../lib/gcc/arm-none-eabi/4.8.3/../../../../arm-none-eabi/lib/armv7-m/libstdc++.a(eh_terminate.o) (__cxxabiv1::__terminate_handler)
/homes/skollbach/Downloads/ASE/gcc-arm-embedded/gcc-arm-none-eabi-4_8-2014q1/bin/../lib/gcc/arm-none-eabi/4.8.3/../../../../arm-none-eabi/lib/armv7-m/libstdc++.a(eh_arm.o)
                              /homes/skollbach/Downloads/ASE/gcc-arm-embedded/gcc-arm-none-eabi-4_8-2014q1/bin/../lib/gcc/arm-none-eabi/4.8.3/../../../../arm-none-eabi/lib/armv7-m/libstdc++.a(eh_terminate.o) (__cxa_end_cleanup)
/homes/skollbach/Downloads/ASE/gcc-arm-embedded/gcc-arm-none-eabi-4_8-2014q1/bin/../lib/gcc/arm-none-eabi/4.8.3/../../../../arm-none-eabi/lib/armv7-m/libstdc++.a(eh_call.o)
                              /homes/skollbach/Downloads/ASE/gcc-arm-embedded/gcc-arm-none-eabi-4_8-2014q1/bin/../lib/gcc/arm-none-eabi/4.8.3/../../../../arm-none-eabi/lib/armv7-m/libstdc++.a(eh_terminate.o) (__cxa_call_unexpected)
/homes/skollbach/Downloads/ASE/gcc-arm-embedded/gcc-arm-none-eabi-4_8-2014q1/bin/../lib/gcc/arm-none-eabi/4.8.3/../../../../arm-none-eabi/lib/armv7-m/libstdc++.a(eh_personality.o)
                              /homes/skollbach/Downloads/ASE/gcc-arm-embedded/gcc-arm-none-eabi-4_8-2014q1/bin/../lib/gcc/arm-none-eabi/4.8.3/../../../../arm-none-eabi/lib/armv7-m/libstdc++.a(eh_terminate.o) (__gxx_personality_v0)
/homes/skollbach/Downloads/ASE/gcc-arm-embedded/gcc-arm-none-eabi-4_8-2014q1/bin/../lib/gcc/arm-none-eabi/4.8.3/../../../../arm-none-eabi/lib/armv7-m/libstdc++.a(eh_globals.o)
                              /homes/skollbach/Downloads/ASE/gcc-arm-embedded/gcc-arm-none-eabi-4_8-2014q1/bin/../lib/gcc/arm-none-eabi/4.8.3/../../../../arm-none-eabi/lib/armv7-m/libstdc++.a(eh_catch.o) (__cxa_get_globals_fast)
/homes/skollbach/Downloads/ASE/gcc-arm-embedded/gcc-arm-none-eabi-4_8-2014q1/bin/../lib/gcc/arm-none-eabi/4.8.3/../../../../arm-none-eabi/lib/armv7-m/libstdc++.a(vterminate.o)
                              /homes/skollbach/Downloads/ASE/gcc-arm-embedded/gcc-arm-none-eabi-4_8-2014q1/bin/../lib/gcc/arm-none-eabi/4.8.3/../../../../arm-none-eabi/lib/armv7-m/libstdc++.a(eh_term_handler.o) (__gnu_cxx::__verbose_terminate_handler())
/homes/skollbach/Downloads/ASE/gcc-arm-embedded/gcc-arm-none-eabi-4_8-2014q1/bin/../lib/gcc/arm-none-eabi/4.8.3/../../../../arm-none-eabi/lib/armv7-m/libstdc++.a(eh_throw.o)
                              /homes/skollbach/Downloads/ASE/gcc-arm-embedded/gcc-arm-none-eabi-4_8-2014q1/bin/../lib/gcc/arm-none-eabi/4.8.3/../../../../arm-none-eabi/lib/armv7-m/libstdc++.a(eh_call.o) (__cxa_throw)
/homes/skollbach/Downloads/ASE/gcc-arm-embedded/gcc-arm-none-eabi-4_8-2014q1/bin/../lib/gcc/arm-none-eabi/4.8.3/../../../../arm-none-eabi/lib/armv7-m/libstdc++.a(eh_exception.o)
                              /homes/skollbach/Downloads/ASE/gcc-arm-embedded/gcc-arm-none-eabi-4_8-2014q1/bin/../lib/gcc/arm-none-eabi/4.8.3/../../../../arm-none-eabi/lib/armv7-m/libstdc++.a(eh_call.o) (std::bad_exception::~bad_exception())
/homes/skollbach/Downloads/ASE/gcc-arm-embedded/gcc-arm-none-eabi-4_8-2014q1/bin/../lib/gcc/arm-none-eabi/4.8.3/../../../../arm-none-eabi/lib/armv7-m/libstdc++.a(eh_type.o)
                              /homes/skollbach/Downloads/ASE/gcc-arm-embedded/gcc-arm-none-eabi-4_8-2014q1/bin/../lib/gcc/arm-none-eabi/4.8.3/../../../../arm-none-eabi/lib/armv7-m/libstdc++.a(vterminate.o) (__cxa_current_exception_type)
/homes/skollbach/Downloads/ASE/gcc-arm-embedded/gcc-arm-none-eabi-4_8-2014q1/bin/../lib/gcc/arm-none-eabi/4.8.3/../../../../arm-none-eabi/lib/armv7-m/libstdc++.a(class_type_info.o)
                              /homes/skollbach/Downloads/ASE/gcc-arm-embedded/gcc-arm-none-eabi-4_8-2014q1/bin/../lib/gcc/arm-none-eabi/4.8.3/../../../../arm-none-eabi/lib/armv7-m/libstdc++.a(eh_exception.o) (vtable for __cxxabiv1::__class_type_info)
/homes/skollbach/Downloads/ASE/gcc-arm-embedded/gcc-arm-none-eabi-4_8-2014q1/bin/../lib/gcc/arm-none-eabi/4.8.3/../../../../arm-none-eabi/lib/armv7-m/libstdc++.a(eh_alloc.o)
                              /homes/skollbach/Downloads/ASE/gcc-arm-embedded/gcc-arm-none-eabi-4_8-2014q1/bin/../lib/gcc/arm-none-eabi/4.8.3/../../../../arm-none-eabi/lib/armv7-m/libstdc++.a(eh_call.o) (__cxa_allocate_exception)
/homes/skollbach/Downloads/ASE/gcc-arm-embedded/gcc-arm-none-eabi-4_8-2014q1/bin/../lib/gcc/arm-none-eabi/4.8.3/../../../../arm-none-eabi/lib/armv7-m/libstdc++.a(cp-demangle.o)
                              /homes/skollbach/Downloads/ASE/gcc-arm-embedded/gcc-arm-none-eabi-4_8-2014q1/bin/../lib/gcc/arm-none-eabi/4.8.3/../../../../arm-none-eabi/lib/armv7-m/libstdc++.a(vterminate.o) (__cxa_demangle)
/homes/skollbach/Downloads/ASE/gcc-arm-embedded/gcc-arm-none-eabi-4_8-2014q1/bin/../lib/gcc/arm-none-eabi/4.8.3/../../../../arm-none-eabi/lib/armv7-m/libstdc++.a(si_class_type_info.o)
                              /homes/skollbach/Downloads/ASE/gcc-arm-embedded/gcc-arm-none-eabi-4_8-2014q1/bin/../lib/gcc/arm-none-eabi/4.8.3/../../../../arm-none-eabi/lib/armv7-m/libstdc++.a(eh_exception.o) (vtable for __cxxabiv1::__si_class_type_info)
/homes/skollbach/Downloads/ASE/gcc-arm-embedded/gcc-arm-none-eabi-4_8-2014q1/bin/../lib/gcc/arm-none-eabi/4.8.3/../../../../arm-none-eabi/lib/armv7-m/libstdc++.a(tinfo.o)
                              /homes/skollbach/Downloads/ASE/gcc-arm-embedded/gcc-arm-none-eabi-4_8-2014q1/bin/../lib/gcc/arm-none-eabi/4.8.3/../../../../arm-none-eabi/lib/armv7-m/libstdc++.a(class_type_info.o) (std::type_info::~type_info())
/homes/skollbach/Downloads/ASE/gcc-arm-embedded/gcc-arm-none-eabi-4_8-2014q1/bin/../lib/gcc/arm-none-eabi/4.8.3/armv7-m/libgcc.a(_arm_addsubdf3.o)
                              build/obj/chprintf.o (__aeabi_dsub)
/homes/skollbach/Downloads/ASE/gcc-arm-embedded/gcc-arm-none-eabi-4_8-2014q1/bin/../lib/gcc/arm-none-eabi/4.8.3/armv7-m/libgcc.a(_arm_muldivdf3.o)
                              build/obj/chprintf.o (__aeabi_dmul)
/homes/skollbach/Downloads/ASE/gcc-arm-embedded/gcc-arm-none-eabi-4_8-2014q1/bin/../lib/gcc/arm-none-eabi/4.8.3/armv7-m/libgcc.a(_arm_fixdfsi.o)
                              build/obj/chprintf.o (__aeabi_d2iz)
/homes/skollbach/Downloads/ASE/gcc-arm-embedded/gcc-arm-none-eabi-4_8-2014q1/bin/../lib/gcc/arm-none-eabi/4.8.3/armv7-m/libgcc.a(_arm_truncdfsf2.o)
                              build/obj/chprintf.o (__aeabi_d2f)
/homes/skollbach/Downloads/ASE/gcc-arm-embedded/gcc-arm-none-eabi-4_8-2014q1/bin/../lib/gcc/arm-none-eabi/4.8.3/armv7-m/libgcc.a(_arm_addsubsf3.o)
                              build/obj/main.o (__aeabi_fsub)
/homes/skollbach/Downloads/ASE/gcc-arm-embedded/gcc-arm-none-eabi-4_8-2014q1/bin/../lib/gcc/arm-none-eabi/4.8.3/armv7-m/libgcc.a(_arm_muldivsf3.o)
                              build/obj/main.o (__aeabi_fmul)
/homes/skollbach/Downloads/ASE/gcc-arm-embedded/gcc-arm-none-eabi-4_8-2014q1/bin/../lib/gcc/arm-none-eabi/4.8.3/armv7-m/libgcc.a(_arm_cmpsf2.o)
                              build/obj/chprintf.o (__aeabi_fcmplt)
/homes/skollbach/Downloads/ASE/gcc-arm-embedded/gcc-arm-none-eabi-4_8-2014q1/bin/../lib/gcc/arm-none-eabi/4.8.3/armv7-m/libgcc.a(_arm_fixsfsi.o)
                              build/obj/chprintf.o (__aeabi_f2iz)
/homes/skollbach/Downloads/ASE/gcc-arm-embedded/gcc-arm-none-eabi-4_8-2014q1/bin/../lib/gcc/arm-none-eabi/4.8.3/armv7-m/libgcc.a(_arm_fixunssfsi.o)
                              build/obj/ControllerAreaNetworkTx.o (__aeabi_f2uiz)
/homes/skollbach/Downloads/ASE/gcc-arm-embedded/gcc-arm-none-eabi-4_8-2014q1/bin/../lib/gcc/arm-none-eabi/4.8.3/armv7-m/libgcc.a(unwind-arm.o)
                              /homes/skollbach/Downloads/ASE/gcc-arm-embedded/gcc-arm-none-eabi-4_8-2014q1/bin/../lib/gcc/arm-none-eabi/4.8.3/../../../../arm-none-eabi/lib/armv7-m/libstdc++.a(eh_arm.o) (__aeabi_unwind_cpp_pr0)
/homes/skollbach/Downloads/ASE/gcc-arm-embedded/gcc-arm-none-eabi-4_8-2014q1/bin/../lib/gcc/arm-none-eabi/4.8.3/armv7-m/libgcc.a(libunwind.o)
                              /homes/skollbach/Downloads/ASE/gcc-arm-embedded/gcc-arm-none-eabi-4_8-2014q1/bin/../lib/gcc/arm-none-eabi/4.8.3/armv7-m/libgcc.a(unwind-arm.o) (restore_core_regs)
/homes/skollbach/Downloads/ASE/gcc-arm-embedded/gcc-arm-none-eabi-4_8-2014q1/bin/../lib/gcc/arm-none-eabi/4.8.3/armv7-m/libgcc.a(pr-support.o)
                              /homes/skollbach/Downloads/ASE/gcc-arm-embedded/gcc-arm-none-eabi-4_8-2014q1/bin/../lib/gcc/arm-none-eabi/4.8.3/armv7-m/libgcc.a(unwind-arm.o) (__gnu_unwind_execute)
/homes/skollbach/Downloads/ASE/gcc-arm-embedded/gcc-arm-none-eabi-4_8-2014q1/bin/../lib/gcc/arm-none-eabi/4.8.3/../../../../arm-none-eabi/lib/armv7-m/libc.a(lib_a-abort.o)
                              /homes/skollbach/Downloads/ASE/gcc-arm-embedded/gcc-arm-none-eabi-4_8-2014q1/bin/../lib/gcc/arm-none-eabi/4.8.3/../../../../arm-none-eabi/lib/armv7-m/libstdc++.a(eh_terminate.o) (abort)
/homes/skollbach/Downloads/ASE/gcc-arm-embedded/gcc-arm-none-eabi-4_8-2014q1/bin/../lib/gcc/arm-none-eabi/4.8.3/../../../../arm-none-eabi/lib/armv7-m/libc.a(lib_a-atoi.o)
                              build/obj/main.o (atoi)
/homes/skollbach/Downloads/ASE/gcc-arm-embedded/gcc-arm-none-eabi-4_8-2014q1/bin/../lib/gcc/arm-none-eabi/4.8.3/../../../../arm-none-eabi/lib/armv7-m/libc.a(lib_a-cxa_atexit.o)
                              /homes/skollbach/Downloads/ASE/gcc-arm-embedded/gcc-arm-none-eabi-4_8-2014q1/bin/../lib/gcc/arm-none-eabi/4.8.3/../../../../arm-none-eabi/lib/armv7-m/libstdc++.a(atexit_arm.o) (__cxa_atexit)
/homes/skollbach/Downloads/ASE/gcc-arm-embedded/gcc-arm-none-eabi-4_8-2014q1/bin/../lib/gcc/arm-none-eabi/4.8.3/../../../../arm-none-eabi/lib/armv7-m/libc.a(lib_a-fputc.o)
                              /homes/skollbach/Downloads/ASE/gcc-arm-embedded/gcc-arm-none-eabi-4_8-2014q1/bin/../lib/gcc/arm-none-eabi/4.8.3/../../../../arm-none-eabi/lib/armv7-m/libstdc++.a(vterminate.o) (fputc)
/homes/skollbach/Downloads/ASE/gcc-arm-embedded/gcc-arm-none-eabi-4_8-2014q1/bin/../lib/gcc/arm-none-eabi/4.8.3/../../../../arm-none-eabi/lib/armv7-m/libc.a(lib_a-fputs.o)
                              /homes/skollbach/Downloads/ASE/gcc-arm-embedded/gcc-arm-none-eabi-4_8-2014q1/bin/../lib/gcc/arm-none-eabi/4.8.3/../../../../arm-none-eabi/lib/armv7-m/libstdc++.a(vterminate.o) (fputs)
/homes/skollbach/Downloads/ASE/gcc-arm-embedded/gcc-arm-none-eabi-4_8-2014q1/bin/../lib/gcc/arm-none-eabi/4.8.3/../../../../arm-none-eabi/lib/armv7-m/libc.a(lib_a-fvwrite.o)
                              /homes/skollbach/Downloads/ASE/gcc-arm-embedded/gcc-arm-none-eabi-4_8-2014q1/bin/../lib/gcc/arm-none-eabi/4.8.3/../../../../arm-none-eabi/lib/armv7-m/libc.a(lib_a-fputs.o) (__sfvwrite_r)
/homes/skollbach/Downloads/ASE/gcc-arm-embedded/gcc-arm-none-eabi-4_8-2014q1/bin/../lib/gcc/arm-none-eabi/4.8.3/../../../../arm-none-eabi/lib/armv7-m/libc.a(lib_a-fwrite.o)
                              /homes/skollbach/Downloads/ASE/gcc-arm-embedded/gcc-arm-none-eabi-4_8-2014q1/bin/../lib/gcc/arm-none-eabi/4.8.3/../../../../arm-none-eabi/lib/armv7-m/libstdc++.a(vterminate.o) (fwrite)
/homes/skollbach/Downloads/ASE/gcc-arm-embedded/gcc-arm-none-eabi-4_8-2014q1/bin/../lib/gcc/arm-none-eabi/4.8.3/../../../../arm-none-eabi/lib/armv7-m/libc.a(lib_a-impure.o)
                              /homes/skollbach/Downloads/ASE/gcc-arm-embedded/gcc-arm-none-eabi-4_8-2014q1/bin/../lib/gcc/arm-none-eabi/4.8.3/../../../../arm-none-eabi/lib/armv7-m/libstdc++.a(vterminate.o) (_impure_ptr)
/homes/skollbach/Downloads/ASE/gcc-arm-embedded/gcc-arm-none-eabi-4_8-2014q1/bin/../lib/gcc/arm-none-eabi/4.8.3/../../../../arm-none-eabi/lib/armv7-m/libc.a(lib_a-malloc.o)
                              /homes/skollbach/Downloads/ASE/gcc-arm-embedded/gcc-arm-none-eabi-4_8-2014q1/bin/../lib/gcc/arm-none-eabi/4.8.3/../../../../arm-none-eabi/lib/armv7-m/libstdc++.a(eh_alloc.o) (malloc)
/homes/skollbach/Downloads/ASE/gcc-arm-embedded/gcc-arm-none-eabi-4_8-2014q1/bin/../lib/gcc/arm-none-eabi/4.8.3/../../../../arm-none-eabi/lib/armv7-m/libc.a(lib_a-mallocr.o)
                              /homes/skollbach/Downloads/ASE/gcc-arm-embedded/gcc-arm-none-eabi-4_8-2014q1/bin/../lib/gcc/arm-none-eabi/4.8.3/../../../../arm-none-eabi/lib/armv7-m/libc.a(lib_a-fvwrite.o) (_malloc_r)
/homes/skollbach/Downloads/ASE/gcc-arm-embedded/gcc-arm-none-eabi-4_8-2014q1/bin/../lib/gcc/arm-none-eabi/4.8.3/../../../../arm-none-eabi/lib/armv7-m/libc.a(lib_a-memchr-stub.o)
                              /homes/skollbach/Downloads/ASE/gcc-arm-embedded/gcc-arm-none-eabi-4_8-2014q1/bin/../lib/gcc/arm-none-eabi/4.8.3/../../../../arm-none-eabi/lib/armv7-m/libc.a(lib_a-fvwrite.o) (memchr)
/homes/skollbach/Downloads/ASE/gcc-arm-embedded/gcc-arm-none-eabi-4_8-2014q1/bin/../lib/gcc/arm-none-eabi/4.8.3/../../../../arm-none-eabi/lib/armv7-m/libc.a(lib_a-memcmp.o)
                              /homes/skollbach/Downloads/ASE/gcc-arm-embedded/gcc-arm-none-eabi-4_8-2014q1/bin/../lib/gcc/arm-none-eabi/4.8.3/../../../../arm-none-eabi/lib/armv7-m/libstdc++.a(cp-demangle.o) (memcmp)
/homes/skollbach/Downloads/ASE/gcc-arm-embedded/gcc-arm-none-eabi-4_8-2014q1/bin/../lib/gcc/arm-none-eabi/4.8.3/../../../../arm-none-eabi/lib/armv7-m/libc.a(lib_a-memcpy.o)
                              build/obj/memstreams.o (memcpy)
/homes/skollbach/Downloads/ASE/gcc-arm-embedded/gcc-arm-none-eabi-4_8-2014q1/bin/../lib/gcc/arm-none-eabi/4.8.3/../../../../arm-none-eabi/lib/armv7-m/libc.a(lib_a-memmove.o)
                              /homes/skollbach/Downloads/ASE/gcc-arm-embedded/gcc-arm-none-eabi-4_8-2014q1/bin/../lib/gcc/arm-none-eabi/4.8.3/../../../../arm-none-eabi/lib/armv7-m/libc.a(lib_a-fvwrite.o) (memmove)
/homes/skollbach/Downloads/ASE/gcc-arm-embedded/gcc-arm-none-eabi-4_8-2014q1/bin/../lib/gcc/arm-none-eabi/4.8.3/../../../../arm-none-eabi/lib/armv7-m/libc.a(lib_a-memset.o)
                              build/obj/syscalls.o (memset)
/homes/skollbach/Downloads/ASE/gcc-arm-embedded/gcc-arm-none-eabi-4_8-2014q1/bin/../lib/gcc/arm-none-eabi/4.8.3/../../../../arm-none-eabi/lib/armv7-m/libc.a(lib_a-mlock.o)
                              /homes/skollbach/Downloads/ASE/gcc-arm-embedded/gcc-arm-none-eabi-4_8-2014q1/bin/../lib/gcc/arm-none-eabi/4.8.3/../../../../arm-none-eabi/lib/armv7-m/libc.a(lib_a-mallocr.o) (__malloc_lock)
/homes/skollbach/Downloads/ASE/gcc-arm-embedded/gcc-arm-none-eabi-4_8-2014q1/bin/../lib/gcc/arm-none-eabi/4.8.3/../../../../arm-none-eabi/lib/armv7-m/libc.a(lib_a-putc.o)
                              /homes/skollbach/Downloads/ASE/gcc-arm-embedded/gcc-arm-none-eabi-4_8-2014q1/bin/../lib/gcc/arm-none-eabi/4.8.3/../../../../arm-none-eabi/lib/armv7-m/libc.a(lib_a-fputc.o) (_putc_r)
/homes/skollbach/Downloads/ASE/gcc-arm-embedded/gcc-arm-none-eabi-4_8-2014q1/bin/../lib/gcc/arm-none-eabi/4.8.3/../../../../arm-none-eabi/lib/armv7-m/libc.a(lib_a-realloc.o)
                              /homes/skollbach/Downloads/ASE/gcc-arm-embedded/gcc-arm-none-eabi-4_8-2014q1/bin/../lib/gcc/arm-none-eabi/4.8.3/../../../../arm-none-eabi/lib/armv7-m/libstdc++.a(cp-demangle.o) (realloc)
/homes/skollbach/Downloads/ASE/gcc-arm-embedded/gcc-arm-none-eabi-4_8-2014q1/bin/../lib/gcc/arm-none-eabi/4.8.3/../../../../arm-none-eabi/lib/armv7-m/libc.a(lib_a-reallocr.o)
                              /homes/skollbach/Downloads/ASE/gcc-arm-embedded/gcc-arm-none-eabi-4_8-2014q1/bin/../lib/gcc/arm-none-eabi/4.8.3/../../../../arm-none-eabi/lib/armv7-m/libc.a(lib_a-fvwrite.o) (_realloc_r)
/homes/skollbach/Downloads/ASE/gcc-arm-embedded/gcc-arm-none-eabi-4_8-2014q1/bin/../lib/gcc/arm-none-eabi/4.8.3/../../../../arm-none-eabi/lib/armv7-m/libc.a(lib_a-reent.o)
                              build/obj/stubs.o (errno)
/homes/skollbach/Downloads/ASE/gcc-arm-embedded/gcc-arm-none-eabi-4_8-2014q1/bin/../lib/gcc/arm-none-eabi/4.8.3/../../../../arm-none-eabi/lib/armv7-m/libc.a(lib_a-signal.o)
                              /homes/skollbach/Downloads/ASE/gcc-arm-embedded/gcc-arm-none-eabi-4_8-2014q1/bin/../lib/gcc/arm-none-eabi/4.8.3/../../../../arm-none-eabi/lib/armv7-m/libc.a(lib_a-abort.o) (raise)
/homes/skollbach/Downloads/ASE/gcc-arm-embedded/gcc-arm-none-eabi-4_8-2014q1/bin/../lib/gcc/arm-none-eabi/4.8.3/../../../../arm-none-eabi/lib/armv7-m/libc.a(lib_a-signalr.o)
                              /homes/skollbach/Downloads/ASE/gcc-arm-embedded/gcc-arm-none-eabi-4_8-2014q1/bin/../lib/gcc/arm-none-eabi/4.8.3/../../../../arm-none-eabi/lib/armv7-m/libc.a(lib_a-signal.o) (_kill_r)
/homes/skollbach/Downloads/ASE/gcc-arm-embedded/gcc-arm-none-eabi-4_8-2014q1/bin/../lib/gcc/arm-none-eabi/4.8.3/../../../../arm-none-eabi/lib/armv7-m/libc.a(lib_a-sprintf.o)
                              /homes/skollbach/Downloads/ASE/gcc-arm-embedded/gcc-arm-none-eabi-4_8-2014q1/bin/../lib/gcc/arm-none-eabi/4.8.3/../../../../arm-none-eabi/lib/armv7-m/libstdc++.a(cp-demangle.o) (sprintf)
/homes/skollbach/Downloads/ASE/gcc-arm-embedded/gcc-arm-none-eabi-4_8-2014q1/bin/../lib/gcc/arm-none-eabi/4.8.3/../../../../arm-none-eabi/lib/armv7-m/libc.a(lib_a-strcasecmp.o)
                              build/obj/shell.o (strcasecmp)
/homes/skollbach/Downloads/ASE/gcc-arm-embedded/gcc-arm-none-eabi-4_8-2014q1/bin/../lib/gcc/arm-none-eabi/4.8.3/../../../../arm-none-eabi/lib/armv7-m/libc.a(lib_a-strcmp.o)
                              build/obj/main.o (strcmp)
/homes/skollbach/Downloads/ASE/gcc-arm-embedded/gcc-arm-none-eabi-4_8-2014q1/bin/../lib/gcc/arm-none-eabi/4.8.3/../../../../arm-none-eabi/lib/armv7-m/libc.a(lib_a-strlen.o)
                              /homes/skollbach/Downloads/ASE/gcc-arm-embedded/gcc-arm-none-eabi-4_8-2014q1/bin/../lib/gcc/arm-none-eabi/4.8.3/../../../../arm-none-eabi/lib/armv7-m/libstdc++.a(cp-demangle.o) (strlen)
/homes/skollbach/Downloads/ASE/gcc-arm-embedded/gcc-arm-none-eabi-4_8-2014q1/bin/../lib/gcc/arm-none-eabi/4.8.3/../../../../arm-none-eabi/lib/armv7-m/libc.a(lib_a-strncmp.o)
                              /homes/skollbach/Downloads/ASE/gcc-arm-embedded/gcc-arm-none-eabi-4_8-2014q1/bin/../lib/gcc/arm-none-eabi/4.8.3/../../../../arm-none-eabi/lib/armv7-m/libstdc++.a(cp-demangle.o) (strncmp)
/homes/skollbach/Downloads/ASE/gcc-arm-embedded/gcc-arm-none-eabi-4_8-2014q1/bin/../lib/gcc/arm-none-eabi/4.8.3/../../../../arm-none-eabi/lib/armv7-m/libc.a(lib_a-strpbrk.o)
                              build/obj/shell.o (strpbrk)
/homes/skollbach/Downloads/ASE/gcc-arm-embedded/gcc-arm-none-eabi-4_8-2014q1/bin/../lib/gcc/arm-none-eabi/4.8.3/../../../../arm-none-eabi/lib/armv7-m/libc.a(lib_a-strspn.o)
                              build/obj/shell.o (strspn)
/homes/skollbach/Downloads/ASE/gcc-arm-embedded/gcc-arm-none-eabi-4_8-2014q1/bin/../lib/gcc/arm-none-eabi/4.8.3/../../../../arm-none-eabi/lib/armv7-m/libc.a(lib_a-strtol.o)
                              /homes/skollbach/Downloads/ASE/gcc-arm-embedded/gcc-arm-none-eabi-4_8-2014q1/bin/../lib/gcc/arm-none-eabi/4.8.3/../../../../arm-none-eabi/lib/armv7-m/libc.a(lib_a-atoi.o) (_strtol_r)
/homes/skollbach/Downloads/ASE/gcc-arm-embedded/gcc-arm-none-eabi-4_8-2014q1/bin/../lib/gcc/arm-none-eabi/4.8.3/../../../../arm-none-eabi/lib/armv7-m/libc.a(lib_a-svfprintf.o)
                              /homes/skollbach/Downloads/ASE/gcc-arm-embedded/gcc-arm-none-eabi-4_8-2014q1/bin/../lib/gcc/arm-none-eabi/4.8.3/../../../../arm-none-eabi/lib/armv7-m/libc.a(lib_a-sprintf.o) (_svfprintf_r)
/homes/skollbach/Downloads/ASE/gcc-arm-embedded/gcc-arm-none-eabi-4_8-2014q1/bin/../lib/gcc/arm-none-eabi/4.8.3/../../../../arm-none-eabi/lib/armv7-m/libc.a(lib_a-syswrite.o)
                              /homes/skollbach/Downloads/ASE/gcc-arm-embedded/gcc-arm-none-eabi-4_8-2014q1/bin/../lib/gcc/arm-none-eabi/4.8.3/../../../../arm-none-eabi/lib/armv7-m/libstdc++.a(pure.o) (write)
/homes/skollbach/Downloads/ASE/gcc-arm-embedded/gcc-arm-none-eabi-4_8-2014q1/bin/../lib/gcc/arm-none-eabi/4.8.3/../../../../arm-none-eabi/lib/armv7-m/libc.a(lib_a-wbuf.o)
                              /homes/skollbach/Downloads/ASE/gcc-arm-embedded/gcc-arm-none-eabi-4_8-2014q1/bin/../lib/gcc/arm-none-eabi/4.8.3/../../../../arm-none-eabi/lib/armv7-m/libc.a(lib_a-putc.o) (__swbuf_r)
/homes/skollbach/Downloads/ASE/gcc-arm-embedded/gcc-arm-none-eabi-4_8-2014q1/bin/../lib/gcc/arm-none-eabi/4.8.3/../../../../arm-none-eabi/lib/armv7-m/libc.a(lib_a-wsetup.o)
                              /homes/skollbach/Downloads/ASE/gcc-arm-embedded/gcc-arm-none-eabi-4_8-2014q1/bin/../lib/gcc/arm-none-eabi/4.8.3/../../../../arm-none-eabi/lib/armv7-m/libc.a(lib_a-fvwrite.o) (__swsetup_r)
/homes/skollbach/Downloads/ASE/gcc-arm-embedded/gcc-arm-none-eabi-4_8-2014q1/bin/../lib/gcc/arm-none-eabi/4.8.3/../../../../arm-none-eabi/lib/armv7-m/libc.a(lib_a-__atexit.o)
                              /homes/skollbach/Downloads/ASE/gcc-arm-embedded/gcc-arm-none-eabi-4_8-2014q1/bin/../lib/gcc/arm-none-eabi/4.8.3/../../../../arm-none-eabi/lib/armv7-m/libc.a(lib_a-cxa_atexit.o) (__register_exitproc)
/homes/skollbach/Downloads/ASE/gcc-arm-embedded/gcc-arm-none-eabi-4_8-2014q1/bin/../lib/gcc/arm-none-eabi/4.8.3/../../../../arm-none-eabi/lib/armv7-m/libc.a(lib_a-ctype_.o)
                              /homes/skollbach/Downloads/ASE/gcc-arm-embedded/gcc-arm-none-eabi-4_8-2014q1/bin/../lib/gcc/arm-none-eabi/4.8.3/../../../../arm-none-eabi/lib/armv7-m/libc.a(lib_a-strcasecmp.o) (__ctype_ptr__)
/homes/skollbach/Downloads/ASE/gcc-arm-embedded/gcc-arm-none-eabi-4_8-2014q1/bin/../lib/gcc/arm-none-eabi/4.8.3/../../../../arm-none-eabi/lib/armv7-m/libc.a(lib_a-dtoa.o)
                              /homes/skollbach/Downloads/ASE/gcc-arm-embedded/gcc-arm-none-eabi-4_8-2014q1/bin/../lib/gcc/arm-none-eabi/4.8.3/../../../../arm-none-eabi/lib/armv7-m/libc.a(lib_a-svfprintf.o) (_dtoa_r)
/homes/skollbach/Downloads/ASE/gcc-arm-embedded/gcc-arm-none-eabi-4_8-2014q1/bin/../lib/gcc/arm-none-eabi/4.8.3/../../../../arm-none-eabi/lib/armv7-m/libc.a(lib_a-fflush.o)
                              /homes/skollbach/Downloads/ASE/gcc-arm-embedded/gcc-arm-none-eabi-4_8-2014q1/bin/../lib/gcc/arm-none-eabi/4.8.3/../../../../arm-none-eabi/lib/armv7-m/libc.a(lib_a-fvwrite.o) (_fflush_r)
/homes/skollbach/Downloads/ASE/gcc-arm-embedded/gcc-arm-none-eabi-4_8-2014q1/bin/../lib/gcc/arm-none-eabi/4.8.3/../../../../arm-none-eabi/lib/armv7-m/libc.a(lib_a-findfp.o)
                              /homes/skollbach/Downloads/ASE/gcc-arm-embedded/gcc-arm-none-eabi-4_8-2014q1/bin/../lib/gcc/arm-none-eabi/4.8.3/../../../../arm-none-eabi/lib/armv7-m/libc.a(lib_a-fputc.o) (__sinit)
/homes/skollbach/Downloads/ASE/gcc-arm-embedded/gcc-arm-none-eabi-4_8-2014q1/bin/../lib/gcc/arm-none-eabi/4.8.3/../../../../arm-none-eabi/lib/armv7-m/libc.a(lib_a-freer.o)
                              /homes/skollbach/Downloads/ASE/gcc-arm-embedded/gcc-arm-none-eabi-4_8-2014q1/bin/../lib/gcc/arm-none-eabi/4.8.3/../../../../arm-none-eabi/lib/armv7-m/libc.a(lib_a-fvwrite.o) (_free_r)
/homes/skollbach/Downloads/ASE/gcc-arm-embedded/gcc-arm-none-eabi-4_8-2014q1/bin/../lib/gcc/arm-none-eabi/4.8.3/../../../../arm-none-eabi/lib/armv7-m/libc.a(lib_a-fwalk.o)
                              /homes/skollbach/Downloads/ASE/gcc-arm-embedded/gcc-arm-none-eabi-4_8-2014q1/bin/../lib/gcc/arm-none-eabi/4.8.3/../../../../arm-none-eabi/lib/armv7-m/libc.a(lib_a-findfp.o) (_fwalk)
/homes/skollbach/Downloads/ASE/gcc-arm-embedded/gcc-arm-none-eabi-4_8-2014q1/bin/../lib/gcc/arm-none-eabi/4.8.3/../../../../arm-none-eabi/lib/armv7-m/libc.a(lib_a-locale.o)
                              /homes/skollbach/Downloads/ASE/gcc-arm-embedded/gcc-arm-none-eabi-4_8-2014q1/bin/../lib/gcc/arm-none-eabi/4.8.3/../../../../arm-none-eabi/lib/armv7-m/libc.a(lib_a-svfprintf.o) (_localeconv_r)
/homes/skollbach/Downloads/ASE/gcc-arm-embedded/gcc-arm-none-eabi-4_8-2014q1/bin/../lib/gcc/arm-none-eabi/4.8.3/../../../../arm-none-eabi/lib/armv7-m/libc.a(lib_a-makebuf.o)
                              /homes/skollbach/Downloads/ASE/gcc-arm-embedded/gcc-arm-none-eabi-4_8-2014q1/bin/../lib/gcc/arm-none-eabi/4.8.3/../../../../arm-none-eabi/lib/armv7-m/libc.a(lib_a-wsetup.o) (__smakebuf_r)
/homes/skollbach/Downloads/ASE/gcc-arm-embedded/gcc-arm-none-eabi-4_8-2014q1/bin/../lib/gcc/arm-none-eabi/4.8.3/../../../../arm-none-eabi/lib/armv7-m/libc.a(lib_a-mprec.o)
                              /homes/skollbach/Downloads/ASE/gcc-arm-embedded/gcc-arm-none-eabi-4_8-2014q1/bin/../lib/gcc/arm-none-eabi/4.8.3/../../../../arm-none-eabi/lib/armv7-m/libc.a(lib_a-dtoa.o) (_Balloc)
/homes/skollbach/Downloads/ASE/gcc-arm-embedded/gcc-arm-none-eabi-4_8-2014q1/bin/../lib/gcc/arm-none-eabi/4.8.3/../../../../arm-none-eabi/lib/armv7-m/libc.a(lib_a-s_fpclassify.o)
                              /homes/skollbach/Downloads/ASE/gcc-arm-embedded/gcc-arm-none-eabi-4_8-2014q1/bin/../lib/gcc/arm-none-eabi/4.8.3/../../../../arm-none-eabi/lib/armv7-m/libc.a(lib_a-svfprintf.o) (__fpclassifyd)
/homes/skollbach/Downloads/ASE/gcc-arm-embedded/gcc-arm-none-eabi-4_8-2014q1/bin/../lib/gcc/arm-none-eabi/4.8.3/../../../../arm-none-eabi/lib/armv7-m/libc.a(lib_a-stdio.o)
                              /homes/skollbach/Downloads/ASE/gcc-arm-embedded/gcc-arm-none-eabi-4_8-2014q1/bin/../lib/gcc/arm-none-eabi/4.8.3/../../../../arm-none-eabi/lib/armv7-m/libc.a(lib_a-findfp.o) (__sread)
/homes/skollbach/Downloads/ASE/gcc-arm-embedded/gcc-arm-none-eabi-4_8-2014q1/bin/../lib/gcc/arm-none-eabi/4.8.3/../../../../arm-none-eabi/lib/armv7-m/libc.a(lib_a-svfiprintf.o)
                              /homes/skollbach/Downloads/ASE/gcc-arm-embedded/gcc-arm-none-eabi-4_8-2014q1/bin/../lib/gcc/arm-none-eabi/4.8.3/../../../../arm-none-eabi/lib/armv7-m/libc.a(lib_a-svfprintf.o) (__ssprint_r)
/homes/skollbach/Downloads/ASE/gcc-arm-embedded/gcc-arm-none-eabi-4_8-2014q1/bin/../lib/gcc/arm-none-eabi/4.8.3/../../../../arm-none-eabi/lib/armv7-m/libc.a(lib_a-callocr.o)
                              /homes/skollbach/Downloads/ASE/gcc-arm-embedded/gcc-arm-none-eabi-4_8-2014q1/bin/../lib/gcc/arm-none-eabi/4.8.3/../../../../arm-none-eabi/lib/armv7-m/libc.a(lib_a-mprec.o) (_calloc_r)
/homes/skollbach/Downloads/ASE/gcc-arm-embedded/gcc-arm-none-eabi-4_8-2014q1/bin/../lib/gcc/arm-none-eabi/4.8.3/../../../../arm-none-eabi/lib/armv7-m/libc.a(lib_a-fclose.o)
                              /homes/skollbach/Downloads/ASE/gcc-arm-embedded/gcc-arm-none-eabi-4_8-2014q1/bin/../lib/gcc/arm-none-eabi/4.8.3/../../../../arm-none-eabi/lib/armv7-m/libc.a(lib_a-findfp.o) (fclose)
/homes/skollbach/Downloads/ASE/gcc-arm-embedded/gcc-arm-none-eabi-4_8-2014q1/bin/../lib/gcc/arm-none-eabi/4.8.3/armv7-m/libgcc.a(_arm_cmpdf2.o)
                              /homes/skollbach/Downloads/ASE/gcc-arm-embedded/gcc-arm-none-eabi-4_8-2014q1/bin/../lib/gcc/arm-none-eabi/4.8.3/../../../../arm-none-eabi/lib/armv7-m/libc.a(lib_a-svfprintf.o) (__aeabi_dcmpeq)
/homes/skollbach/Downloads/ASE/gcc-arm-embedded/gcc-arm-none-eabi-4_8-2014q1/bin/../lib/gcc/arm-none-eabi/4.8.3/armv7-m/libgcc.a(_aeabi_uldivmod.o)
                              /homes/skollbach/Downloads/ASE/gcc-arm-embedded/gcc-arm-none-eabi-4_8-2014q1/bin/../lib/gcc/arm-none-eabi/4.8.3/../../../../arm-none-eabi/lib/armv7-m/libc.a(lib_a-svfprintf.o) (__aeabi_uldivmod)
/homes/skollbach/Downloads/ASE/gcc-arm-embedded/gcc-arm-none-eabi-4_8-2014q1/bin/../lib/gcc/arm-none-eabi/4.8.3/armv7-m/libgcc.a(bpabi.o)
                              /homes/skollbach/Downloads/ASE/gcc-arm-embedded/gcc-arm-none-eabi-4_8-2014q1/bin/../lib/gcc/arm-none-eabi/4.8.3/armv7-m/libgcc.a(_aeabi_uldivmod.o) (__gnu_uldivmod_helper)
/homes/skollbach/Downloads/ASE/gcc-arm-embedded/gcc-arm-none-eabi-4_8-2014q1/bin/../lib/gcc/arm-none-eabi/4.8.3/armv7-m/libgcc.a(_dvmd_tls.o)
                              /homes/skollbach/Downloads/ASE/gcc-arm-embedded/gcc-arm-none-eabi-4_8-2014q1/bin/../lib/gcc/arm-none-eabi/4.8.3/armv7-m/libgcc.a(_aeabi_uldivmod.o) (__aeabi_ldiv0)
/homes/skollbach/Downloads/ASE/gcc-arm-embedded/gcc-arm-none-eabi-4_8-2014q1/bin/../lib/gcc/arm-none-eabi/4.8.3/armv7-m/libgcc.a(_divdi3.o)
                              /homes/skollbach/Downloads/ASE/gcc-arm-embedded/gcc-arm-none-eabi-4_8-2014q1/bin/../lib/gcc/arm-none-eabi/4.8.3/armv7-m/libgcc.a(bpabi.o) (__divdi3)
/homes/skollbach/Downloads/ASE/gcc-arm-embedded/gcc-arm-none-eabi-4_8-2014q1/bin/../lib/gcc/arm-none-eabi/4.8.3/armv7-m/libgcc.a(_udivdi3.o)
                              /homes/skollbach/Downloads/ASE/gcc-arm-embedded/gcc-arm-none-eabi-4_8-2014q1/bin/../lib/gcc/arm-none-eabi/4.8.3/armv7-m/libgcc.a(bpabi.o) (__udivdi3)

Allocating common symbols
Common symbol       size              file

errno               0x4               /homes/skollbach/Downloads/ASE/gcc-arm-embedded/gcc-arm-none-eabi-4_8-2014q1/bin/../lib/gcc/arm-none-eabi/4.8.3/../../../../arm-none-eabi/lib/armv7-m/libc.a(lib_a-reent.o)

Discarded input sections

 .text          0x00000000        0x0 build/obj/crt0.o
 .data          0x00000000        0x0 build/obj/crt0.o
 .bss           0x00000000        0x0 build/obj/crt0.o
 .text.__early_init
                0x00000000       0x10 build/obj/crt0.o
 .text          0x00000000        0x0 build/obj/vectors.o
 .data          0x00000000        0x0 build/obj/vectors.o
 .bss           0x00000000        0x0 build/obj/vectors.o
 .text          0x00000000        0x0 build/obj/chcore.o
 .data          0x00000000        0x0 build/obj/chcore.o
 .bss           0x00000000        0x0 build/obj/chcore.o
 .text          0x00000000        0x0 build/obj/chcore_v7m.o
 .data          0x00000000        0x0 build/obj/chcore_v7m.o
 .bss           0x00000000        0x0 build/obj/chcore_v7m.o
 .text          0x00000000        0x0 build/obj/nvic.o
 .data          0x00000000        0x0 build/obj/nvic.o
 .bss           0x00000000        0x0 build/obj/nvic.o
 .text          0x00000000        0x0 build/obj/chsys.o
 .data          0x00000000        0x0 build/obj/chsys.o
 .bss           0x00000000        0x0 build/obj/chsys.o
 .text          0x00000000        0x0 build/obj/chdebug.o
 .data          0x00000000        0x0 build/obj/chdebug.o
 .bss           0x00000000        0x0 build/obj/chdebug.o
 .text.dbg_check_disable
                0x00000000       0x40 build/obj/chdebug.o
 .text.dbg_check_suspend
                0x00000000       0x40 build/obj/chdebug.o
 .text          0x00000000        0x0 build/obj/chlists.o
 .data          0x00000000        0x0 build/obj/chlists.o
 .bss           0x00000000        0x0 build/obj/chlists.o
 .comment       0x00000000       0x71 build/obj/chlists.o
 .ARM.attributes
                0x00000000       0x33 build/obj/chlists.o
 .text          0x00000000        0x0 build/obj/chvt.o
 .data          0x00000000        0x0 build/obj/chvt.o
 .bss           0x00000000        0x0 build/obj/chvt.o
 .text          0x00000000        0x0 build/obj/chschd.o
 .data          0x00000000        0x0 build/obj/chschd.o
 .bss           0x00000000        0x0 build/obj/chschd.o
 .text          0x00000000        0x0 build/obj/chthreads.o
 .data          0x00000000        0x0 build/obj/chthreads.o
 .bss           0x00000000        0x0 build/obj/chthreads.o
 .text.chThdSetPriority
                0x00000000       0x50 build/obj/chthreads.o
 .text.chThdResume
                0x00000000       0x40 build/obj/chthreads.o
 .text.chThdSleepUntil
                0x00000000       0x30 build/obj/chthreads.o
 .text.chThdYield
                0x00000000       0x30 build/obj/chthreads.o
 .text          0x00000000        0x0 build/obj/chdynamic.o
 .data          0x00000000        0x0 build/obj/chdynamic.o
 .bss           0x00000000        0x0 build/obj/chdynamic.o
 .text.chThdAddRef
                0x00000000       0x40 build/obj/chdynamic.o
 .text.chThdCreateFromMemoryPool
                0x00000000       0x60 build/obj/chdynamic.o
 .text          0x00000000        0x0 build/obj/chregistry.o
 .data          0x00000000        0x0 build/obj/chregistry.o
 .bss           0x00000000        0x0 build/obj/chregistry.o
 .text.chRegFirstThread
                0x00000000       0x30 build/obj/chregistry.o
 .text.chRegNextThread
                0x00000000       0x50 build/obj/chregistry.o
 .rodata.str1.4
                0x00000000       0x18 build/obj/chregistry.o
 .text          0x00000000        0x0 build/obj/chsem.o
 .data          0x00000000        0x0 build/obj/chsem.o
 .bss           0x00000000        0x0 build/obj/chsem.o
 .text.chSemReset
                0x00000000       0x30 build/obj/chsem.o
 .text.chSemWaitS
                0x00000000       0x70 build/obj/chsem.o
 .text.chSemWait
                0x00000000       0x30 build/obj/chsem.o
 .text.chSemWaitTimeout
                0x00000000       0x30 build/obj/chsem.o
 .text.chSemSignal
                0x00000000       0x70 build/obj/chsem.o
 .text.chSemAddCounterI
                0x00000000       0x70 build/obj/chsem.o
 .text.chSemSignalWait
                0x00000000       0xc0 build/obj/chsem.o
 .text          0x00000000        0x0 build/obj/chmtx.o
 .data          0x00000000        0x0 build/obj/chmtx.o
 .bss           0x00000000        0x0 build/obj/chmtx.o
 .text.chMtxTryLockS
                0x00000000       0x40 build/obj/chmtx.o
 .text.chMtxTryLock
                0x00000000       0x30 build/obj/chmtx.o
 .text.chMtxUnlockS
                0x00000000       0x80 build/obj/chmtx.o
 .text.chMtxUnlockAll
                0x00000000       0x60 build/obj/chmtx.o
 .text          0x00000000        0x0 build/obj/chcond.o
 .data          0x00000000        0x0 build/obj/chcond.o
 .bss           0x00000000        0x0 build/obj/chcond.o
 .text.chCondInit
                0x00000000       0x20 build/obj/chcond.o
 .text.chCondSignal
                0x00000000       0x40 build/obj/chcond.o
 .text.chCondSignalI
                0x00000000       0x30 build/obj/chcond.o
 .text.chCondBroadcastI
                0x00000000       0x40 build/obj/chcond.o
 .text.chCondBroadcast
                0x00000000       0x30 build/obj/chcond.o
 .text.chCondWaitS
                0x00000000       0x70 build/obj/chcond.o
 .text.chCondWait
                0x00000000       0x30 build/obj/chcond.o
 .text.chCondWaitTimeoutS
                0x00000000       0x80 build/obj/chcond.o
 .text.chCondWaitTimeout
                0x00000000       0x30 build/obj/chcond.o
 .rodata.str1.4
                0x00000000       0xa8 build/obj/chcond.o
 .comment       0x00000000       0x71 build/obj/chcond.o
 .ARM.attributes
                0x00000000       0x33 build/obj/chcond.o
 .text          0x00000000        0x0 build/obj/chevents.o
 .data          0x00000000        0x0 build/obj/chevents.o
 .bss           0x00000000        0x0 build/obj/chevents.o
 .text.chEvtGetAndClearEvents
                0x00000000       0x30 build/obj/chevents.o
 .text.chEvtAddEvents
                0x00000000       0x30 build/obj/chevents.o
 .text.chEvtGetAndClearFlags
                0x00000000       0x30 build/obj/chevents.o
 .text.chEvtGetAndClearFlagsI
                0x00000000       0x10 build/obj/chevents.o
 .text.chEvtDispatch
                0x00000000       0x60 build/obj/chevents.o
 .text.chEvtWaitAll
                0x00000000       0x40 build/obj/chevents.o
 .text.chEvtWaitAllTimeout
                0x00000000       0x70 build/obj/chevents.o
 .text          0x00000000        0x0 build/obj/chmsg.o
 .data          0x00000000        0x0 build/obj/chmsg.o
 .bss           0x00000000        0x0 build/obj/chmsg.o
 .text.chMsgSend
                0x00000000       0x60 build/obj/chmsg.o
 .text.chMsgWait
                0x00000000       0x50 build/obj/chmsg.o
 .text.chMsgRelease
                0x00000000       0x40 build/obj/chmsg.o
 .rodata.str1.4
                0x00000000       0x24 build/obj/chmsg.o
 .comment       0x00000000       0x71 build/obj/chmsg.o
 .ARM.attributes
                0x00000000       0x33 build/obj/chmsg.o
 .text          0x00000000        0x0 build/obj/chmboxes.o
 .data          0x00000000        0x0 build/obj/chmboxes.o
 .bss           0x00000000        0x0 build/obj/chmboxes.o
 .text.chMBInit
                0x00000000       0x40 build/obj/chmboxes.o
 .text.chMBReset
                0x00000000       0x50 build/obj/chmboxes.o
 .text.chMBPostS
                0x00000000       0x50 build/obj/chmboxes.o
 .text.chMBPost
                0x00000000       0x30 build/obj/chmboxes.o
 .text.chMBPostI
                0x00000000       0x50 build/obj/chmboxes.o
 .text.chMBPostAheadS
                0x00000000       0x50 build/obj/chmboxes.o
 .text.chMBPostAhead
                0x00000000       0x30 build/obj/chmboxes.o
 .text.chMBPostAheadI
                0x00000000       0x50 build/obj/chmboxes.o
 .text.chMBFetchS
                0x00000000       0x50 build/obj/chmboxes.o
 .text.chMBFetch
                0x00000000       0x30 build/obj/chmboxes.o
 .text.chMBFetchI
                0x00000000       0x50 build/obj/chmboxes.o
 .rodata.str1.4
                0x00000000       0x88 build/obj/chmboxes.o
 .comment       0x00000000       0x71 build/obj/chmboxes.o
 .ARM.attributes
                0x00000000       0x33 build/obj/chmboxes.o
 .text          0x00000000        0x0 build/obj/chqueues.o
 .data          0x00000000        0x0 build/obj/chqueues.o
 .bss           0x00000000        0x0 build/obj/chqueues.o
 .text          0x00000000        0x0 build/obj/chmemcore.o
 .data          0x00000000        0x0 build/obj/chmemcore.o
 .bss           0x00000000        0x0 build/obj/chmemcore.o
 .text          0x00000000        0x0 build/obj/chheap.o
 .data          0x00000000        0x0 build/obj/chheap.o
 .bss           0x00000000        0x0 build/obj/chheap.o
 .text.chHeapInit
                0x00000000       0x40 build/obj/chheap.o
 .text.chHeapStatus
                0x00000000       0x40 build/obj/chheap.o
 .text          0x00000000        0x0 build/obj/chmempools.o
 .data          0x00000000        0x0 build/obj/chmempools.o
 .bss           0x00000000        0x0 build/obj/chmempools.o
 .text.chPoolInit
                0x00000000       0x20 build/obj/chmempools.o
 .text.chPoolAllocI
                0x00000000       0x30 build/obj/chmempools.o
 .text.chPoolAlloc
                0x00000000       0x30 build/obj/chmempools.o
 .text.chPoolLoadArray
                0x00000000       0x40 build/obj/chmempools.o
 .text          0x00000000        0x0 build/obj/hal.o
 .data          0x00000000        0x0 build/obj/hal.o
 .bss           0x00000000        0x0 build/obj/hal.o
 .text.halIsCounterWithin
                0x00000000       0x30 build/obj/hal.o
 .text.halPolledDelay
                0x00000000       0x40 build/obj/hal.o
 .text          0x00000000        0x0 build/obj/adc.o
 .data          0x00000000        0x0 build/obj/adc.o
 .bss           0x00000000        0x0 build/obj/adc.o
 .comment       0x00000000       0x71 build/obj/adc.o
 .ARM.attributes
                0x00000000       0x33 build/obj/adc.o
 .text          0x00000000        0x0 build/obj/can.o
 .data          0x00000000        0x0 build/obj/can.o
 .bss           0x00000000        0x0 build/obj/can.o
 .text.canSleep
                0x00000000       0x70 build/obj/can.o
 .text.canWakeup
                0x00000000       0x70 build/obj/can.o
 .text          0x00000000        0x0 build/obj/ext.o
 .data          0x00000000        0x0 build/obj/ext.o
 .bss           0x00000000        0x0 build/obj/ext.o
 .text.extStop  0x00000000       0x50 build/obj/ext.o
 .text.extChannelEnable
                0x00000000       0x60 build/obj/ext.o
 .text.extChannelDisable
                0x00000000       0x60 build/obj/ext.o
 .text.extSetChannelModeI
                0x00000000       0x50 build/obj/ext.o
 .text          0x00000000        0x0 build/obj/gpt.o
 .data          0x00000000        0x0 build/obj/gpt.o
 .bss           0x00000000        0x0 build/obj/gpt.o
 .comment       0x00000000       0x71 build/obj/gpt.o
 .ARM.attributes
                0x00000000       0x33 build/obj/gpt.o
 .text          0x00000000        0x0 build/obj/i2c.o
 .data          0x00000000        0x0 build/obj/i2c.o
 .bss           0x00000000        0x0 build/obj/i2c.o
 .text          0x00000000        0x0 build/obj/icu.o
 .data          0x00000000        0x0 build/obj/icu.o
 .bss           0x00000000        0x0 build/obj/icu.o
 .comment       0x00000000       0x71 build/obj/icu.o
 .ARM.attributes
                0x00000000       0x33 build/obj/icu.o
 .text          0x00000000        0x0 build/obj/mac.o
 .data          0x00000000        0x0 build/obj/mac.o
 .bss           0x00000000        0x0 build/obj/mac.o
 .comment       0x00000000       0x71 build/obj/mac.o
 .ARM.attributes
                0x00000000       0x33 build/obj/mac.o
 .text          0x00000000        0x0 build/obj/mmc_spi.o
 .data          0x00000000        0x0 build/obj/mmc_spi.o
 .bss           0x00000000        0x0 build/obj/mmc_spi.o
 .comment       0x00000000       0x71 build/obj/mmc_spi.o
 .ARM.attributes
                0x00000000       0x33 build/obj/mmc_spi.o
 .text          0x00000000        0x0 build/obj/mmcsd.o
 .data          0x00000000        0x0 build/obj/mmcsd.o
 .bss           0x00000000        0x0 build/obj/mmcsd.o
 .comment       0x00000000       0x71 build/obj/mmcsd.o
 .ARM.attributes
                0x00000000       0x33 build/obj/mmcsd.o
 .text          0x00000000        0x0 build/obj/pal.o
 .data          0x00000000        0x0 build/obj/pal.o
 .bss           0x00000000        0x0 build/obj/pal.o
 .text.palReadBus
                0x00000000       0x30 build/obj/pal.o
 .text.palWriteBus
                0x00000000       0x40 build/obj/pal.o
 .text.palSetBusMode
                0x00000000       0x30 build/obj/pal.o
 .rodata.str1.4
                0x00000000       0x34 build/obj/pal.o
 .comment       0x00000000       0x71 build/obj/pal.o
 .ARM.attributes
                0x00000000       0x33 build/obj/pal.o
 .text          0x00000000        0x0 build/obj/pwm.o
 .data          0x00000000        0x0 build/obj/pwm.o
 .bss           0x00000000        0x0 build/obj/pwm.o
 .comment       0x00000000       0x71 build/obj/pwm.o
 .ARM.attributes
                0x00000000       0x33 build/obj/pwm.o
 .text          0x00000000        0x0 build/obj/rtc.o
 .data          0x00000000        0x0 build/obj/rtc.o
 .bss           0x00000000        0x0 build/obj/rtc.o
 .comment       0x00000000       0x71 build/obj/rtc.o
 .ARM.attributes
                0x00000000       0x33 build/obj/rtc.o
 .text          0x00000000        0x0 build/obj/sdc.o
 .data          0x00000000        0x0 build/obj/sdc.o
 .bss           0x00000000        0x0 build/obj/sdc.o
 .comment       0x00000000       0x71 build/obj/sdc.o
 .ARM.attributes
                0x00000000       0x33 build/obj/sdc.o
 .text          0x00000000        0x0 build/obj/serial.o
 .data          0x00000000        0x0 build/obj/serial.o
 .bss           0x00000000        0x0 build/obj/serial.o
 .text.sdRequestDataI
                0x00000000       0x40 build/obj/serial.o
 .text          0x00000000        0x0 build/obj/serial_usb.o
 .data          0x00000000        0x0 build/obj/serial_usb.o
 .bss           0x00000000        0x0 build/obj/serial_usb.o
 .comment       0x00000000       0x71 build/obj/serial_usb.o
 .ARM.attributes
                0x00000000       0x33 build/obj/serial_usb.o
 .text          0x00000000        0x0 build/obj/spi.o
 .data          0x00000000        0x0 build/obj/spi.o
 .bss           0x00000000        0x0 build/obj/spi.o
 .text.spiStop  0x00000000       0x50 build/obj/spi.o
 .text.spiStartIgnore
                0x00000000       0x50 build/obj/spi.o
 .text.spiStartExchange
                0x00000000       0x60 build/obj/spi.o
 .text.spiStartSend
                0x00000000       0x50 build/obj/spi.o
 .text.spiStartReceive
                0x00000000       0x50 build/obj/spi.o
 .text.spiIgnore
                0x00000000       0x80 build/obj/spi.o
 .text.spiReceive
                0x00000000       0x80 build/obj/spi.o
 .text          0x00000000        0x0 build/obj/tm.o
 .data          0x00000000        0x0 build/obj/tm.o
 .bss           0x00000000        0x0 build/obj/tm.o
 .text.tmObjectInit
                0x00000000       0x30 build/obj/tm.o
 .text          0x00000000        0x0 build/obj/uart.o
 .data          0x00000000        0x0 build/obj/uart.o
 .bss           0x00000000        0x0 build/obj/uart.o
 .comment       0x00000000       0x71 build/obj/uart.o
 .ARM.attributes
                0x00000000       0x33 build/obj/uart.o
 .text          0x00000000        0x0 build/obj/usb.o
 .data          0x00000000        0x0 build/obj/usb.o
 .bss           0x00000000        0x0 build/obj/usb.o
 .comment       0x00000000       0x71 build/obj/usb.o
 .ARM.attributes
                0x00000000       0x33 build/obj/usb.o
 .text          0x00000000        0x0 build/obj/stm32_dma.o
 .data          0x00000000        0x0 build/obj/stm32_dma.o
 .bss           0x00000000        0x0 build/obj/stm32_dma.o
 .text.dmaStreamRelease
                0x00000000       0x80 build/obj/stm32_dma.o
 .text          0x00000000        0x0 build/obj/hal_lld.o
 .data          0x00000000        0x0 build/obj/hal_lld.o
 .bss           0x00000000        0x0 build/obj/hal_lld.o
 .text          0x00000000        0x0 build/obj/adc_lld.o
 .data          0x00000000        0x0 build/obj/adc_lld.o
 .bss           0x00000000        0x0 build/obj/adc_lld.o
 .comment       0x00000000       0x71 build/obj/adc_lld.o
 .ARM.attributes
                0x00000000       0x33 build/obj/adc_lld.o
 .text          0x00000000        0x0 build/obj/ext_lld_isr.o
 .data          0x00000000        0x0 build/obj/ext_lld_isr.o
 .bss           0x00000000        0x0 build/obj/ext_lld_isr.o
 .text.ext_lld_exti_irq_disable
                0x00000000       0x50 build/obj/ext_lld_isr.o
 .text          0x00000000        0x0 build/obj/can_lld.o
 .data          0x00000000        0x0 build/obj/can_lld.o
 .bss           0x00000000        0x0 build/obj/can_lld.o
 .text.can_lld_sleep
                0x00000000       0x10 build/obj/can_lld.o
 .text.can_lld_wakeup
                0x00000000       0x10 build/obj/can_lld.o
 .text.canSTM32SetFilters
                0x00000000       0x50 build/obj/can_lld.o
 .rodata.str1.4
                0x00000000       0x34 build/obj/can_lld.o
 .text          0x00000000        0x0 build/obj/ext_lld.o
 .data          0x00000000        0x0 build/obj/ext_lld.o
 .bss           0x00000000        0x0 build/obj/ext_lld.o
 .text.ext_lld_stop
                0x00000000       0x30 build/obj/ext_lld.o
 .text          0x00000000        0x0 build/obj/mac_lld.o
 .data          0x00000000        0x0 build/obj/mac_lld.o
 .bss           0x00000000        0x0 build/obj/mac_lld.o
 .comment       0x00000000       0x71 build/obj/mac_lld.o
 .ARM.attributes
                0x00000000       0x33 build/obj/mac_lld.o
 .text          0x00000000        0x0 build/obj/sdc_lld.o
 .data          0x00000000        0x0 build/obj/sdc_lld.o
 .bss           0x00000000        0x0 build/obj/sdc_lld.o
 .comment       0x00000000       0x71 build/obj/sdc_lld.o
 .ARM.attributes
                0x00000000       0x33 build/obj/sdc_lld.o
 .text          0x00000000        0x0 build/obj/pal_lld.o
 .data          0x00000000        0x0 build/obj/pal_lld.o
 .bss           0x00000000        0x0 build/obj/pal_lld.o
 .text          0x00000000        0x0 build/obj/i2c_lld.o
 .data          0x00000000        0x0 build/obj/i2c_lld.o
 .bss           0x00000000        0x0 build/obj/i2c_lld.o
 .text          0x00000000        0x0 build/obj/rtc_lld.o
 .data          0x00000000        0x0 build/obj/rtc_lld.o
 .bss           0x00000000        0x0 build/obj/rtc_lld.o
 .comment       0x00000000       0x71 build/obj/rtc_lld.o
 .ARM.attributes
                0x00000000       0x33 build/obj/rtc_lld.o
 .text          0x00000000        0x0 build/obj/spi_lld.o
 .data          0x00000000        0x0 build/obj/spi_lld.o
 .bss           0x00000000        0x0 build/obj/spi_lld.o
 .text.spi_lld_stop
                0x00000000       0x50 build/obj/spi_lld.o
 .text.spi_lld_ignore
                0x00000000       0x40 build/obj/spi_lld.o
 .text.spi_lld_receive
                0x00000000       0x40 build/obj/spi_lld.o
 .text.spi_lld_polled_exchange
                0x00000000       0x10 build/obj/spi_lld.o
 .text          0x00000000        0x0 build/obj/gpt_lld.o
 .data          0x00000000        0x0 build/obj/gpt_lld.o
 .bss           0x00000000        0x0 build/obj/gpt_lld.o
 .comment       0x00000000       0x71 build/obj/gpt_lld.o
 .ARM.attributes
                0x00000000       0x33 build/obj/gpt_lld.o
 .text          0x00000000        0x0 build/obj/icu_lld.o
 .data          0x00000000        0x0 build/obj/icu_lld.o
 .bss           0x00000000        0x0 build/obj/icu_lld.o
 .comment       0x00000000       0x71 build/obj/icu_lld.o
 .ARM.attributes
                0x00000000       0x33 build/obj/icu_lld.o
 .text          0x00000000        0x0 build/obj/pwm_lld.o
 .data          0x00000000        0x0 build/obj/pwm_lld.o
 .bss           0x00000000        0x0 build/obj/pwm_lld.o
 .comment       0x00000000       0x71 build/obj/pwm_lld.o
 .ARM.attributes
                0x00000000       0x33 build/obj/pwm_lld.o
 .text          0x00000000        0x0 build/obj/serial_lld.o
 .data          0x00000000        0x0 build/obj/serial_lld.o
 .bss           0x00000000        0x0 build/obj/serial_lld.o
 .text          0x00000000        0x0 build/obj/uart_lld.o
 .data          0x00000000        0x0 build/obj/uart_lld.o
 .bss           0x00000000        0x0 build/obj/uart_lld.o
 .comment       0x00000000       0x71 build/obj/uart_lld.o
 .ARM.attributes
                0x00000000       0x33 build/obj/uart_lld.o
 .text          0x00000000        0x0 build/obj/usb_lld.o
 .data          0x00000000        0x0 build/obj/usb_lld.o
 .bss           0x00000000        0x0 build/obj/usb_lld.o
 .comment       0x00000000       0x71 build/obj/usb_lld.o
 .ARM.attributes
                0x00000000       0x33 build/obj/usb_lld.o
 .text          0x00000000        0x0 build/obj/board.o
 .data          0x00000000        0x0 build/obj/board.o
 .bss           0x00000000        0x0 build/obj/board.o
 .text.boardRequestShutdown
                0x00000000       0x10 build/obj/board.o
 .text.boardStandby
                0x00000000       0x50 build/obj/board.o
 .text          0x00000000        0x0 build/obj/evtimer.o
 .data          0x00000000        0x0 build/obj/evtimer.o
 .bss           0x00000000        0x0 build/obj/evtimer.o
 .text          0x00000000        0x0 build/obj/syscalls.o
 .data          0x00000000        0x0 build/obj/syscalls.o
 .bss           0x00000000        0x0 build/obj/syscalls.o
 .text          0x00000000        0x0 build/obj/chprintf.o
 .data          0x00000000        0x0 build/obj/chprintf.o
 .bss           0x00000000        0x0 build/obj/chprintf.o
 .text.chsnprintf
                0x00000000       0x40 build/obj/chprintf.o
 .text          0x00000000        0x0 build/obj/shell.o
 .data          0x00000000        0x0 build/obj/shell.o
 .bss           0x00000000        0x0 build/obj/shell.o
 .text.shellInit
                0x00000000       0x10 build/obj/shell.o
 .text.shellCreateStatic
                0x00000000       0x20 build/obj/shell.o
 .text          0x00000000        0x0 build/obj/memstreams.o
 .data          0x00000000        0x0 build/obj/memstreams.o
 .bss           0x00000000        0x0 build/obj/memstreams.o
 .text.put      0x00000000       0x30 build/obj/memstreams.o
 .text.get      0x00000000       0x20 build/obj/memstreams.o
 .text.reads    0x00000000       0x30 build/obj/memstreams.o
 .text.writes   0x00000000       0x30 build/obj/memstreams.o
 .text.msObjectInit
                0x00000000       0x20 build/obj/memstreams.o
 .rodata.vmt    0x00000000       0x10 build/obj/memstreams.o
 .comment       0x00000000       0x71 build/obj/memstreams.o
 .ARM.attributes
                0x00000000       0x33 build/obj/memstreams.o
 .text          0x00000000        0x0 build/obj/stubs.o
 .data          0x00000000        0x0 build/obj/stubs.o
 .bss           0x00000000        0x0 build/obj/stubs.o
 .text          0x00000000        0x0 build/obj/Debug.o
 .data          0x00000000        0x0 build/obj/Debug.o
 .bss           0x00000000        0x0 build/obj/Debug.o
 .text          0x00000000        0x0 build/obj/ch.o
 .data          0x00000000        0x0 build/obj/ch.o
 .bss           0x00000000        0x0 build/obj/ch.o
 .text._ZN10chibios_rt6System4lockEv
                0x00000000       0x10 build/obj/ch.o
 .text._ZN10chibios_rt6System6unlockEv
                0x00000000       0x10 build/obj/ch.o
 .text._ZN10chibios_rt6System11lockFromIsrEv
                0x00000000       0x10 build/obj/ch.o
 .text._ZN10chibios_rt6System13unlockFromIsrEv
                0x00000000       0x10 build/obj/ch.o
 .text._ZN10chibios_rt6System7getTimeEv
                0x00000000       0x10 build/obj/ch.o
 .text._ZN10chibios_rt6System12isTimeWithinEmm
                0x00000000       0x20 build/obj/ch.o
 .text._ZN10chibios_rt4Core5allocEj
                0x00000000       0x10 build/obj/ch.o
 .text._ZN10chibios_rt4Core6allocIEj
                0x00000000       0x10 build/obj/ch.o
 .text._ZN10chibios_rt4Core9getStatusEv
                0x00000000       0x10 build/obj/ch.o
 .text._ZN10chibios_rt5Timer4setIEmPFvPvES1_
                0x00000000       0x10 build/obj/ch.o
 .text._ZN10chibios_rt5Timer6resetIEv
                0x00000000       0x10 build/obj/ch.o
 .text._ZN10chibios_rt5Timer8isArmedIEv
                0x00000000       0x10 build/obj/ch.o
 .text._ZN10chibios_rt15ThreadReference7suspendEv
                0x00000000       0x40 build/obj/ch.o
 .text._ZN10chibios_rt15ThreadReference8suspendSEv
                0x00000000       0x30 build/obj/ch.o
 .text._ZN10chibios_rt15ThreadReference6resumeEl
                0x00000000       0x40 build/obj/ch.o
 .text._ZN10chibios_rt15ThreadReference7resumeIEl
                0x00000000       0x40 build/obj/ch.o
 .text._ZN10chibios_rt15ThreadReference11sendMessageEl
                0x00000000       0x30 build/obj/ch.o
 .text._ZN10chibios_rt15ThreadReference16isPendingMessageEv
                0x00000000       0x30 build/obj/ch.o
 .text._ZN10chibios_rt15ThreadReference10getMessageEv
                0x00000000       0x20 build/obj/ch.o
 .text._ZN10chibios_rt15ThreadReference14releaseMessageEl
                0x00000000       0x30 build/obj/ch.o
 .text._ZN10chibios_rt15ThreadReference13signalEventsIEm
                0x00000000       0x30 build/obj/ch.o
 .text._ZN10chibios_rt10BaseThread11setPriorityEm
                0x00000000       0x10 build/obj/ch.o
 .text._ZN10chibios_rt10BaseThread4exitEl
                0x00000000       0x10 build/obj/ch.o
 .text._ZN10chibios_rt10BaseThread5exitSEl
                0x00000000       0x10 build/obj/ch.o
 .text._ZN10chibios_rt10BaseThread10sleepUntilEm
                0x00000000       0x10 build/obj/ch.o
 .text._ZN10chibios_rt10BaseThread5yieldEv
                0x00000000       0x10 build/obj/ch.o
 .text._ZN10chibios_rt10BaseThread11waitMessageEv
                0x00000000       0x20 build/obj/ch.o
 .text._ZN10chibios_rt10BaseThread17getAndClearEventsEm
                0x00000000       0x10 build/obj/ch.o
 .text._ZN10chibios_rt10BaseThread9addEventsEm
                0x00000000       0x10 build/obj/ch.o
 .text._ZN10chibios_rt10BaseThread13waitAllEventsEm
                0x00000000       0x10 build/obj/ch.o
 .text._ZN10chibios_rt10BaseThread20waitAllEventsTimeoutEmm
                0x00000000       0x10 build/obj/ch.o
 .text._ZN10chibios_rt10BaseThread14dispatchEventsEPKPFvlEm
                0x00000000       0x10 build/obj/ch.o
 .text._ZN10chibios_rt10BaseThread11unlockMutexEv
                0x00000000       0x10 build/obj/ch.o
 .text._ZN10chibios_rt10BaseThread12unlockMutexSEv
                0x00000000       0x10 build/obj/ch.o
 .text._ZN10chibios_rt10BaseThread16unlockAllMutexesEv
                0x00000000       0x10 build/obj/ch.o
 .text._ZN10chibios_rt16CounterSemaphoreC2El
                0x00000000       0x10 build/obj/ch.o
 .text._ZN10chibios_rt16CounterSemaphore5resetEl
                0x00000000       0x10 build/obj/ch.o
 .text._ZN10chibios_rt16CounterSemaphore6resetIEl
                0x00000000       0x10 build/obj/ch.o
 .text._ZN10chibios_rt16CounterSemaphore4waitEv
                0x00000000       0x10 build/obj/ch.o
 .text._ZN10chibios_rt16CounterSemaphore5waitSEv
                0x00000000       0x10 build/obj/ch.o
 .text._ZN10chibios_rt16CounterSemaphore11waitTimeoutEm
                0x00000000       0x10 build/obj/ch.o
 .text._ZN10chibios_rt16CounterSemaphore12waitTimeoutSEm
                0x00000000       0x10 build/obj/ch.o
 .text._ZN10chibios_rt16CounterSemaphore6signalEv
                0x00000000       0x10 build/obj/ch.o
 .text._ZN10chibios_rt16CounterSemaphore7signalIEv
                0x00000000       0x10 build/obj/ch.o
 .text._ZN10chibios_rt16CounterSemaphore11addCounterIEl
                0x00000000       0x10 build/obj/ch.o
 .text._ZN10chibios_rt16CounterSemaphore11getCounterIEv
                0x00000000       0x10 build/obj/ch.o
 .text._ZN10chibios_rt16CounterSemaphore10signalWaitEPS0_S1_
                0x00000000       0x10 build/obj/ch.o
 .text._ZN10chibios_rt15BinarySemaphoreC2Eb
                0x00000000       0x10 build/obj/ch.o
 .text._ZN10chibios_rt15BinarySemaphore4waitEv
                0x00000000       0x10 build/obj/ch.o
 .text._ZN10chibios_rt15BinarySemaphore5waitSEv
                0x00000000       0x10 build/obj/ch.o
 .text._ZN10chibios_rt15BinarySemaphore11waitTimeoutEm
                0x00000000       0x10 build/obj/ch.o
 .text._ZN10chibios_rt15BinarySemaphore12waitTimeoutSEm
                0x00000000       0x10 build/obj/ch.o
 .text._ZN10chibios_rt15BinarySemaphore5resetEb
                0x00000000       0x10 build/obj/ch.o
 .text._ZN10chibios_rt15BinarySemaphore6resetIEb
                0x00000000       0x10 build/obj/ch.o
 .text._ZN10chibios_rt15BinarySemaphore6signalEv
                0x00000000       0x30 build/obj/ch.o
 .text._ZN10chibios_rt15BinarySemaphore7signalIEv
                0x00000000       0x10 build/obj/ch.o
 .text._ZN10chibios_rt15BinarySemaphore9getStateIEv
                0x00000000       0x10 build/obj/ch.o
 .text._ZN10chibios_rt5MutexC2Ev
                0x00000000       0x10 build/obj/ch.o
 .text._ZN10chibios_rt5Mutex7tryLockEv
                0x00000000       0x10 build/obj/ch.o
 .text._ZN10chibios_rt5Mutex8tryLockSEv
                0x00000000       0x10 build/obj/ch.o
 .text._ZN10chibios_rt5Mutex4lockEv
                0x00000000       0x10 build/obj/ch.o
 .text._ZN10chibios_rt5Mutex5lockSEv
                0x00000000       0x10 build/obj/ch.o
 .text._ZN10chibios_rt7CondVarC2Ev
                0x00000000       0x10 build/obj/ch.o
 .text._ZN10chibios_rt7CondVar6signalEv
                0x00000000       0x10 build/obj/ch.o
 .text._ZN10chibios_rt7CondVar7signalIEv
                0x00000000       0x10 build/obj/ch.o
 .text._ZN10chibios_rt7CondVar9broadcastEv
                0x00000000       0x10 build/obj/ch.o
 .text._ZN10chibios_rt7CondVar10broadcastIEv
                0x00000000       0x10 build/obj/ch.o
 .text._ZN10chibios_rt7CondVar4waitEv
                0x00000000       0x10 build/obj/ch.o
 .text._ZN10chibios_rt7CondVar5waitSEv
                0x00000000       0x10 build/obj/ch.o
 .text._ZN10chibios_rt7CondVar11waitTimeoutEm
                0x00000000       0x10 build/obj/ch.o
 .text._ZN10chibios_rt11EvtListener16getAndClearFlagsEv
                0x00000000       0x10 build/obj/ch.o
 .text._ZN10chibios_rt11EvtListener17getAndClearFlagsIEv
                0x00000000       0x10 build/obj/ch.o
 .text._ZN10chibios_rt9EvtSource12registerMaskEPNS_11EvtListenerEm
                0x00000000       0x10 build/obj/ch.o
 .text._ZN10chibios_rt9EvtSource15broadcastFlagsIEm
                0x00000000       0x10 build/obj/ch.o
 .text._ZN10chibios_rt7InQueueC2EPhjPFvP12GenericQueueEPv
                0x00000000       0x20 build/obj/ch.o
 .text._ZN10chibios_rt7InQueue8getFullIEv
                0x00000000       0x10 build/obj/ch.o
 .text._ZN10chibios_rt7InQueue9getEmptyIEv
                0x00000000       0x10 build/obj/ch.o
 .text._ZN10chibios_rt7InQueue8isEmptyIEv
                0x00000000       0x10 build/obj/ch.o
 .text._ZN10chibios_rt7InQueue7isFullIEv
                0x00000000       0x20 build/obj/ch.o
 .text._ZN10chibios_rt7InQueue6resetIEv
                0x00000000       0x10 build/obj/ch.o
 .text._ZN10chibios_rt7InQueue4putIEh
                0x00000000       0x10 build/obj/ch.o
 .text._ZN10chibios_rt7InQueue3getEv
                0x00000000       0x10 build/obj/ch.o
 .text._ZN10chibios_rt7InQueue10getTimeoutEm
                0x00000000       0x10 build/obj/ch.o
 .text._ZN10chibios_rt7InQueue11readTimeoutEPhjm
                0x00000000       0x10 build/obj/ch.o
 .text._ZN10chibios_rt8OutQueueC2EPhjPFvP12GenericQueueEPv
                0x00000000       0x20 build/obj/ch.o
 .text._ZN10chibios_rt8OutQueue8getFullIEv
                0x00000000       0x10 build/obj/ch.o
 .text._ZN10chibios_rt8OutQueue9getEmptyIEv
                0x00000000       0x10 build/obj/ch.o
 .text._ZN10chibios_rt8OutQueue8isEmptyIEv
                0x00000000       0x20 build/obj/ch.o
 .text._ZN10chibios_rt8OutQueue7isFullIEv
                0x00000000       0x10 build/obj/ch.o
 .text._ZN10chibios_rt8OutQueue6resetIEv
                0x00000000       0x10 build/obj/ch.o
 .text._ZN10chibios_rt8OutQueue3putEh
                0x00000000       0x10 build/obj/ch.o
 .text._ZN10chibios_rt8OutQueue10putTimeoutEhm
                0x00000000       0x10 build/obj/ch.o
 .text._ZN10chibios_rt8OutQueue4getIEv
                0x00000000       0x10 build/obj/ch.o
 .text._ZN10chibios_rt8OutQueue12writeTimeoutEPKhjm
                0x00000000       0x10 build/obj/ch.o
 .text._ZN10chibios_rt7MailboxC2EPll
                0x00000000       0x10 build/obj/ch.o
 .text._ZN10chibios_rt7Mailbox5resetEv
                0x00000000       0x10 build/obj/ch.o
 .text._ZN10chibios_rt7Mailbox4postElm
                0x00000000       0x10 build/obj/ch.o
 .text._ZN10chibios_rt7Mailbox5postSElm
                0x00000000       0x10 build/obj/ch.o
 .text._ZN10chibios_rt7Mailbox5postIEl
                0x00000000       0x10 build/obj/ch.o
 .text._ZN10chibios_rt7Mailbox9postAheadElm
                0x00000000       0x10 build/obj/ch.o
 .text._ZN10chibios_rt7Mailbox10postAheadSElm
                0x00000000       0x10 build/obj/ch.o
 .text._ZN10chibios_rt7Mailbox10postAheadIEl
                0x00000000       0x10 build/obj/ch.o
 .text._ZN10chibios_rt7Mailbox5fetchEPlm
                0x00000000       0x10 build/obj/ch.o
 .text._ZN10chibios_rt7Mailbox6fetchSEPlm
                0x00000000       0x10 build/obj/ch.o
 .text._ZN10chibios_rt7Mailbox6fetchIEPl
                0x00000000       0x10 build/obj/ch.o
 .text._ZN10chibios_rt7Mailbox13getFreeCountIEv
                0x00000000       0x10 build/obj/ch.o
 .text._ZN10chibios_rt7Mailbox13getUsedCountIEv
                0x00000000       0x10 build/obj/ch.o
 .text._ZN10chibios_rt10MemoryPoolC2EjPFPvjE
                0x00000000       0x10 build/obj/ch.o
 .text._ZN10chibios_rt10MemoryPoolC2EjPFPvjES1_j
                0x00000000       0x20 build/obj/ch.o
 .text._ZN10chibios_rt10MemoryPool9loadArrayEPvj
                0x00000000       0x10 build/obj/ch.o
 .text._ZN10chibios_rt10MemoryPool6allocIEv
                0x00000000       0x10 build/obj/ch.o
 .text._ZN10chibios_rt10MemoryPool5allocEv
                0x00000000       0x10 build/obj/ch.o
 .text._ZN10chibios_rt10MemoryPool4freeEPv
                0x00000000       0x10 build/obj/ch.o
 .text._ZN10chibios_rt10MemoryPool5freeIEPv
                0x00000000       0x10 build/obj/ch.o
 .text          0x00000000        0x0 build/obj/Color.o
 .data          0x00000000        0x0 build/obj/Color.o
 .bss           0x00000000        0x0 build/obj/Color.o
 .text._ZN5amiro5Color15getRedGreenBlueEPiS1_S1_
                0x00000000       0x20 build/obj/Color.o
 .text._ZN5amiro5Color7lighterEi
                0x00000000       0x80 build/obj/Color.o
 .text._ZN5amiro5Color6darkerEi
                0x00000000       0x60 build/obj/Color.o
 .text._ZN5amiro5Color15setRedGreenBlueEiii
                0x00000000       0x10 build/obj/Color.o
 .text          0x00000000        0x0 build/obj/HWSPIDriver.o
 .data          0x00000000        0x0 build/obj/HWSPIDriver.o
 .bss           0x00000000        0x0 build/obj/HWSPIDriver.o
 .text._ZN5amiro11HWSPIDriver4readEPhj
                0x00000000       0x40 build/obj/HWSPIDriver.o
 .group         0x00000000        0x8 build/obj/HWI2CDriver.o
 .group         0x00000000        0x8 build/obj/HWI2CDriver.o
 .group         0x00000000        0x8 build/obj/HWI2CDriver.o
 .group         0x00000000        0x8 build/obj/HWI2CDriver.o
 .group         0x00000000        0x8 build/obj/HWI2CDriver.o
 .text          0x00000000        0x0 build/obj/HWI2CDriver.o
 .data          0x00000000        0x0 build/obj/HWI2CDriver.o
 .bss           0x00000000        0x0 build/obj/HWI2CDriver.o
 .group         0x00000000        0x8 build/obj/tlc5947.o
 .group         0x00000000        0x8 build/obj/tlc5947.o
 .text          0x00000000        0x0 build/obj/tlc5947.o
 .data          0x00000000        0x0 build/obj/tlc5947.o
 .bss           0x00000000        0x0 build/obj/tlc5947.o
 .text._ZN5amiro7TLC59477disableEv
                0x00000000       0x20 build/obj/tlc5947.o
 .text._ZNK5amiro7TLC594721caluclateRedGrayscaleENS_5ColorEi
                0x00000000       0x30 build/obj/tlc5947.o
 .text._ZNK5amiro7TLC594723caluclateGreenGrayscaleENS_5ColorEi
                0x00000000       0x30 build/obj/tlc5947.o
 .text._ZNK5amiro7TLC594722caluclateBlueGrayscaleENS_5ColorEi
                0x00000000       0x30 build/obj/tlc5947.o
 .rodata._ZTVN10chibios_rt16BaseStaticThreadILi192EEE
                0x00000000       0x18 build/obj/tlc5947.o
 .group         0x00000000        0x8 build/obj/a2500r24a.o
 .group         0x00000000        0x8 build/obj/a2500r24a.o
 .text          0x00000000        0x0 build/obj/a2500r24a.o
 .data          0x00000000        0x0 build/obj/a2500r24a.o
 .bss           0x00000000        0x0 build/obj/a2500r24a.o
 .text._ZN5amiro9A2500R24A14getEventSourceEv
                0x00000000       0x10 build/obj/a2500r24a.o
 .text._ZN5amiro9A2500R24A9configureEPNS0_15A2500R24AConfigE
                0x00000000       0x10 build/obj/a2500r24a.o
 .rodata._ZTVN10chibios_rt16BaseStaticThreadILi256EEE
                0x00000000       0x18 build/obj/a2500r24a.o
 .text          0x00000000        0x0 build/obj/eeprom.o
 .data          0x00000000        0x0 build/obj/eeprom.o
 .bss           0x00000000        0x0 build/obj/eeprom.o
 .text._ZN5amiro6EEPROMC2EPK17BaseFileStreamVMTjhtPNS_11HWSPIDriverE
                0x00000000       0x30 build/obj/eeprom.o
 .text._ZN5amiro6EEPROM7acquireEv
                0x00000000       0x10 build/obj/eeprom.o
 .text._ZN5amiro6EEPROM7releaseEv
                0x00000000       0x10 build/obj/eeprom.o
 .text          0x00000000        0x0 build/obj/at24.o
 .data          0x00000000        0x0 build/obj/at24.o
 .bss           0x00000000        0x0 build/obj/at24.o
 .text          0x00000000        0x0 build/obj/FileSystemInputOutputBase.o
 .data          0x00000000        0x0 build/obj/FileSystemInputOutputBase.o
 .bss           0x00000000        0x0 build/obj/FileSystemInputOutputBase.o
 .text          0x00000000        0x0 build/obj/FSIOLightRing.o
 .data          0x00000000        0x0 build/obj/FSIOLightRing.o
 .bss           0x00000000        0x0 build/obj/FSIOLightRing.o
 .comment       0x00000000       0x71 build/obj/FSIOLightRing.o
 .ARM.attributes
                0x00000000       0x33 build/obj/FSIOLightRing.o
 .group         0x00000000        0x8 build/obj/ControllerAreaNetworkRx.o
 .group         0x00000000        0x8 build/obj/ControllerAreaNetworkRx.o
 .text          0x00000000        0x0 build/obj/ControllerAreaNetworkRx.o
 .data          0x00000000        0x0 build/obj/ControllerAreaNetworkRx.o
 .bss           0x00000000        0x0 build/obj/ControllerAreaNetworkRx.o
 .text._ZN5amiro23ControllerAreaNetworkRxD0Ev
                0x00000000       0x20 build/obj/ControllerAreaNetworkRx.o
 .text._ZN5amiro23ControllerAreaNetworkRx21getProximityRingValueEi
                0x00000000       0x10 build/obj/ControllerAreaNetworkRx.o
 .text._ZN5amiro23ControllerAreaNetworkRx14getActualSpeedERN5types9kinematicE
                0x00000000       0x10 build/obj/ControllerAreaNetworkRx.o
 .text._ZN5amiro23ControllerAreaNetworkRx11getOdometryEv
                0x00000000       0x20 build/obj/ControllerAreaNetworkRx.o
 .text._ZN5amiro23ControllerAreaNetworkRx14getPowerStatusEv
                0x00000000       0x10 build/obj/ControllerAreaNetworkRx.o
 .text._ZN5amiro23ControllerAreaNetworkRx20getMagnetometerValueEi
                0x00000000       0x10 build/obj/ControllerAreaNetworkRx.o
 .text._ZN5amiro23ControllerAreaNetworkRx17getGyroscopeValueEi
                0x00000000       0x10 build/obj/ControllerAreaNetworkRx.o
 .text._ZN5amiro23ControllerAreaNetworkRx22getProximityFloorValueEi
                0x00000000       0x10 build/obj/ControllerAreaNetworkRx.o
 .text._ZN5amiro23ControllerAreaNetworkRx13decodeIndexIdEP10CANRxFrame
                0x00000000       0x10 build/obj/ControllerAreaNetworkRx.o
 .text._ZN5amiro23ControllerAreaNetworkRx10rxCmdShellEP10CANRxFrame
                0x00000000       0x10 build/obj/ControllerAreaNetworkRx.o
 .rodata._ZTVN10chibios_rt16BaseStaticThreadILi128EEE
                0x00000000       0x18 build/obj/ControllerAreaNetworkRx.o
 .group         0x00000000        0x8 build/obj/ControllerAreaNetworkTx.o
 .group         0x00000000        0x8 build/obj/ControllerAreaNetworkTx.o
 .text          0x00000000        0x0 build/obj/ControllerAreaNetworkTx.o
 .data          0x00000000        0x0 build/obj/ControllerAreaNetworkTx.o
 .bss           0x00000000        0x0 build/obj/ControllerAreaNetworkTx.o
 .text._ZN10chibios_rt16BaseStaticThreadILi128EE5startEm
                0x00000000       0x30 build/obj/ControllerAreaNetworkTx.o
 .text._ZN5amiro23ControllerAreaNetworkTxD0Ev
                0x00000000       0x20 build/obj/ControllerAreaNetworkTx.o
 .text._ZN5amiro23ControllerAreaNetworkTx13encodeBoardIdEP10CANTxFramei
                0x00000000       0x20 build/obj/ControllerAreaNetworkTx.o
 .text._ZN5amiro23ControllerAreaNetworkTx14encodeDeviceIdEP10CANTxFramei
                0x00000000       0x20 build/obj/ControllerAreaNetworkTx.o
 .text._ZN5amiro23ControllerAreaNetworkTx13encodeIndexIdEP10CANTxFramei
                0x00000000       0x20 build/obj/ControllerAreaNetworkTx.o
 .text._ZN5amiro23ControllerAreaNetworkTx15transmitMessageEP10CANTxFrame
                0x00000000       0x40 build/obj/ControllerAreaNetworkTx.o
 .text._ZN5amiro23ControllerAreaNetworkTx18setLightBrightnessEi
                0x00000000       0x40 build/obj/ControllerAreaNetworkTx.o
 .text._ZN5amiro23ControllerAreaNetworkTx13setLightColorEiNS_5ColorE
                0x00000000       0x60 build/obj/ControllerAreaNetworkTx.o
 .text._ZN5amiro23ControllerAreaNetworkTx11setOdometryEN5types8positionE
                0x00000000       0x70 build/obj/ControllerAreaNetworkTx.o
 .text._ZN5amiro23ControllerAreaNetworkTx14setTargetSpeedEll
                0x00000000       0x30 build/obj/ControllerAreaNetworkTx.o
 .text._ZN5amiro23ControllerAreaNetworkTx14setTargetSpeedERN5types9kinematicE
                0x00000000       0x40 build/obj/ControllerAreaNetworkTx.o
 .text._ZN5amiro23ControllerAreaNetworkTx17setTargetPositionERN5types8positionEm
                0x00000000       0x40 build/obj/ControllerAreaNetworkTx.o
 .text._ZN5amiro23ControllerAreaNetworkTx21setKinematicConstantsEff
                0x00000000       0x50 build/obj/ControllerAreaNetworkTx.o
 .text._ZN5amiro23ControllerAreaNetworkTx17broadcastShutdownEv
                0x00000000       0x40 build/obj/ControllerAreaNetworkTx.o
 .text._ZN5amiro23ControllerAreaNetworkTx12txQueryShellEhPct
                0x00000000       0xa0 build/obj/ControllerAreaNetworkTx.o
 .text._ZN5amiro23ControllerAreaNetworkTx12txReplyShellEhPct
                0x00000000       0xa0 build/obj/ControllerAreaNetworkTx.o
 .rodata._ZTVN10chibios_rt16BaseStaticThreadILi128EEE
                0x00000000       0x18 build/obj/ControllerAreaNetworkTx.o
 .group         0x00000000        0x8 build/obj/Lidar.o
 .group         0x00000000        0x8 build/obj/Lidar.o
 .text          0x00000000        0x0 build/obj/Lidar.o
 .data          0x00000000        0x0 build/obj/Lidar.o
 .bss           0x00000000        0x0 build/obj/Lidar.o
 .text._ZN10chibios_rt16BaseStaticThreadILi256EE5startEm
                0x00000000       0x30 build/obj/Lidar.o
 .text._ZN5amiro5Lidar7getScanERA682_t
                0x00000000       0x50 build/obj/Lidar.o
 .text._ZN5amiro5Lidar17getNumberOfValuesEv
                0x00000000       0x10 build/obj/Lidar.o
 .text._ZN5amiro5Lidar9printDataEv
                0x00000000       0x60 build/obj/Lidar.o
 .text._ZN5amiro5Lidar12printDetailsEv
                0x00000000       0x30 build/obj/Lidar.o
 .text._ZN5amiro5Lidar18printSpecificationEv
                0x00000000       0x30 build/obj/Lidar.o
 .text._ZN5amiro5Lidar16printInformationEv
                0x00000000       0x30 build/obj/Lidar.o
 .rodata._ZTVN10chibios_rt16BaseStaticThreadILi256EEE
                0x00000000       0x18 build/obj/Lidar.o
 .group         0x00000000        0x8 build/obj/serial_can_mux.o
 .text          0x00000000        0x0 build/obj/serial_can_mux.o
 .data          0x00000000        0x0 build/obj/serial_can_mux.o
 .bss           0x00000000        0x0 build/obj/serial_can_mux.o
 .text._ZN5amiro12SerialCanMux13restartSystemEv
                0x00000000       0x10 build/obj/serial_can_mux.o
 .rodata._ZTVN10chibios_rt29BaseSequentialStreamInterfaceE
                0x00000000       0x18 build/obj/serial_can_mux.o
 .group         0x00000000        0xc build/obj/LightRing.o
 .group         0x00000000        0x8 build/obj/LightRing.o
 .text          0x00000000        0x0 build/obj/LightRing.o
 .data          0x00000000        0x0 build/obj/LightRing.o
 .bss           0x00000000        0x0 build/obj/LightRing.o
 .group         0x00000000        0x8 build/obj/userthread.o
 .group         0x00000000        0x8 build/obj/userthread.o
 .text          0x00000000        0x0 build/obj/userthread.o
 .data          0x00000000        0x0 build/obj/userthread.o
 .bss           0x00000000        0x0 build/obj/userthread.o
 .rodata._ZTVN10chibios_rt16BaseStaticThreadILi1024EEE
                0x00000000       0x18 build/obj/userthread.o
 .group         0x00000000        0x8 build/obj/main.o
 .group         0x00000000        0x8 build/obj/main.o
 .group         0x00000000        0x8 build/obj/main.o
 .group         0x00000000        0x8 build/obj/main.o
 .group         0x00000000        0x8 build/obj/main.o
 .text          0x00000000        0x0 build/obj/main.o
 .data          0x00000000        0x0 build/obj/main.o
 .bss           0x00000000        0x0 build/obj/main.o
 .text._ZN5amiro9I2CDriverD2Ev
                0x00000000       0x10 build/obj/main.o
 .text._ZN5amiro9I2CDriverD0Ev
                0x00000000       0x20 build/obj/main.o
 .text._Z10testLightsv
                0x00000000       0xb0 build/obj/main.o
 .text._Z8testFadev
                0x00000000       0x50 build/obj/main.o
 .text._Z14testBrightnessv
                0x00000000       0x50 build/obj/main.o
 .rodata._ZTVN5amiro9I2CDriverE
                0x00000000       0x30 build/obj/main.o
 .text          0x00000000        0x0 build/obj/exti.o
 .data          0x00000000        0x0 build/obj/exti.o
 .bss           0x00000000        0x0 build/obj/exti.o
 .text          0x00000000        0x0 /homes/skollbach/Downloads/ASE/gcc-arm-embedded/gcc-arm-none-eabi-4_8-2014q1/bin/../lib/gcc/arm-none-eabi/4.8.3/../../../../arm-none-eabi/lib/armv7-m/libstdc++.a(pure.o)
 .data          0x00000000        0x0 /homes/skollbach/Downloads/ASE/gcc-arm-embedded/gcc-arm-none-eabi-4_8-2014q1/bin/../lib/gcc/arm-none-eabi/4.8.3/../../../../arm-none-eabi/lib/armv7-m/libstdc++.a(pure.o)
 .bss           0x00000000        0x0 /homes/skollbach/Downloads/ASE/gcc-arm-embedded/gcc-arm-none-eabi-4_8-2014q1/bin/../lib/gcc/arm-none-eabi/4.8.3/../../../../arm-none-eabi/lib/armv7-m/libstdc++.a(pure.o)
 .text.__cxa_deleted_virtual
                0x00000000       0x14 /homes/skollbach/Downloads/ASE/gcc-arm-embedded/gcc-arm-none-eabi-4_8-2014q1/bin/../lib/gcc/arm-none-eabi/4.8.3/../../../../arm-none-eabi/lib/armv7-m/libstdc++.a(pure.o)
 .ARM.extab.text.__cxa_deleted_virtual
                0x00000000        0xc /homes/skollbach/Downloads/ASE/gcc-arm-embedded/gcc-arm-none-eabi-4_8-2014q1/bin/../lib/gcc/arm-none-eabi/4.8.3/../../../../arm-none-eabi/lib/armv7-m/libstdc++.a(pure.o)
 .ARM.exidx.text.__cxa_deleted_virtual
                0x00000000        0x8 /homes/skollbach/Downloads/ASE/gcc-arm-embedded/gcc-arm-none-eabi-4_8-2014q1/bin/../lib/gcc/arm-none-eabi/4.8.3/../../../../arm-none-eabi/lib/armv7-m/libstdc++.a(pure.o)
 .text          0x00000000        0x0 /homes/skollbach/Downloads/ASE/gcc-arm-embedded/gcc-arm-none-eabi-4_8-2014q1/bin/../lib/gcc/arm-none-eabi/4.8.3/../../../../arm-none-eabi/lib/armv7-m/libstdc++.a(del_op.o)
 .data          0x00000000        0x0 /homes/skollbach/Downloads/ASE/gcc-arm-embedded/gcc-arm-none-eabi-4_8-2014q1/bin/../lib/gcc/arm-none-eabi/4.8.3/../../../../arm-none-eabi/lib/armv7-m/libstdc++.a(del_op.o)
 .bss           0x00000000        0x0 /homes/skollbach/Downloads/ASE/gcc-arm-embedded/gcc-arm-none-eabi-4_8-2014q1/bin/../lib/gcc/arm-none-eabi/4.8.3/../../../../arm-none-eabi/lib/armv7-m/libstdc++.a(del_op.o)
 .ARM.extab.text._ZdlPv
                0x00000000        0x0 /homes/skollbach/Downloads/ASE/gcc-arm-embedded/gcc-arm-none-eabi-4_8-2014q1/bin/../lib/gcc/arm-none-eabi/4.8.3/../../../../arm-none-eabi/lib/armv7-m/libstdc++.a(del_op.o)
 .text          0x00000000        0x0 /homes/skollbach/Downloads/ASE/gcc-arm-embedded/gcc-arm-none-eabi-4_8-2014q1/bin/../lib/gcc/arm-none-eabi/4.8.3/../../../../arm-none-eabi/lib/armv7-m/libstdc++.a(eh_terminate.o)
 .data          0x00000000        0x0 /homes/skollbach/Downloads/ASE/gcc-arm-embedded/gcc-arm-none-eabi-4_8-2014q1/bin/../lib/gcc/arm-none-eabi/4.8.3/../../../../arm-none-eabi/lib/armv7-m/libstdc++.a(eh_terminate.o)
 .bss           0x00000000        0x0 /homes/skollbach/Downloads/ASE/gcc-arm-embedded/gcc-arm-none-eabi-4_8-2014q1/bin/../lib/gcc/arm-none-eabi/4.8.3/../../../../arm-none-eabi/lib/armv7-m/libstdc++.a(eh_terminate.o)
 .ARM.extab.text._ZSt9terminatev
                0x00000000        0x0 /homes/skollbach/Downloads/ASE/gcc-arm-embedded/gcc-arm-none-eabi-4_8-2014q1/bin/../lib/gcc/arm-none-eabi/4.8.3/../../../../arm-none-eabi/lib/armv7-m/libstdc++.a(eh_terminate.o)
 .text._ZSt13set_terminatePFvvE
                0x00000000       0x10 /homes/skollbach/Downloads/ASE/gcc-arm-embedded/gcc-arm-none-eabi-4_8-2014q1/bin/../lib/gcc/arm-none-eabi/4.8.3/../../../../arm-none-eabi/lib/armv7-m/libstdc++.a(eh_terminate.o)
 .ARM.extab.text._ZSt13set_terminatePFvvE
                0x00000000        0x0 /homes/skollbach/Downloads/ASE/gcc-arm-embedded/gcc-arm-none-eabi-4_8-2014q1/bin/../lib/gcc/arm-none-eabi/4.8.3/../../../../arm-none-eabi/lib/armv7-m/libstdc++.a(eh_terminate.o)
 .ARM.exidx.text._ZSt13set_terminatePFvvE
                0x00000000        0x8 /homes/skollbach/Downloads/ASE/gcc-arm-embedded/gcc-arm-none-eabi-4_8-2014q1/bin/../lib/gcc/arm-none-eabi/4.8.3/../../../../arm-none-eabi/lib/armv7-m/libstdc++.a(eh_terminate.o)
 .text._ZSt14set_unexpectedPFvvE
                0x00000000       0x10 /homes/skollbach/Downloads/ASE/gcc-arm-embedded/gcc-arm-none-eabi-4_8-2014q1/bin/../lib/gcc/arm-none-eabi/4.8.3/../../../../arm-none-eabi/lib/armv7-m/libstdc++.a(eh_terminate.o)
 .ARM.extab.text._ZSt14set_unexpectedPFvvE
                0x00000000        0x0 /homes/skollbach/Downloads/ASE/gcc-arm-embedded/gcc-arm-none-eabi-4_8-2014q1/bin/../lib/gcc/arm-none-eabi/4.8.3/../../../../arm-none-eabi/lib/armv7-m/libstdc++.a(eh_terminate.o)
 .ARM.exidx.text._ZSt14set_unexpectedPFvvE
                0x00000000        0x8 /homes/skollbach/Downloads/ASE/gcc-arm-embedded/gcc-arm-none-eabi-4_8-2014q1/bin/../lib/gcc/arm-none-eabi/4.8.3/../../../../arm-none-eabi/lib/armv7-m/libstdc++.a(eh_terminate.o)
 .text          0x00000000        0x0 /homes/skollbach/Downloads/ASE/gcc-arm-embedded/gcc-arm-none-eabi-4_8-2014q1/bin/../lib/gcc/arm-none-eabi/4.8.3/../../../../arm-none-eabi/lib/armv7-m/libstdc++.a(eh_unex_handler.o)
 .data          0x00000000        0x0 /homes/skollbach/Downloads/ASE/gcc-arm-embedded/gcc-arm-none-eabi-4_8-2014q1/bin/../lib/gcc/arm-none-eabi/4.8.3/../../../../arm-none-eabi/lib/armv7-m/libstdc++.a(eh_unex_handler.o)
 .bss           0x00000000        0x0 /homes/skollbach/Downloads/ASE/gcc-arm-embedded/gcc-arm-none-eabi-4_8-2014q1/bin/../lib/gcc/arm-none-eabi/4.8.3/../../../../arm-none-eabi/lib/armv7-m/libstdc++.a(eh_unex_handler.o)
 .text          0x00000000        0x0 /homes/skollbach/Downloads/ASE/gcc-arm-embedded/gcc-arm-none-eabi-4_8-2014q1/bin/../lib/gcc/arm-none-eabi/4.8.3/../../../../arm-none-eabi/lib/armv7-m/libstdc++.a(eh_catch.o)
 .data          0x00000000        0x0 /homes/skollbach/Downloads/ASE/gcc-arm-embedded/gcc-arm-none-eabi-4_8-2014q1/bin/../lib/gcc/arm-none-eabi/4.8.3/../../../../arm-none-eabi/lib/armv7-m/libstdc++.a(eh_catch.o)
 .bss           0x00000000        0x0 /homes/skollbach/Downloads/ASE/gcc-arm-embedded/gcc-arm-none-eabi-4_8-2014q1/bin/../lib/gcc/arm-none-eabi/4.8.3/../../../../arm-none-eabi/lib/armv7-m/libstdc++.a(eh_catch.o)
 .text.__cxa_get_exception_ptr
                0x00000000        0x4 /homes/skollbach/Downloads/ASE/gcc-arm-embedded/gcc-arm-none-eabi-4_8-2014q1/bin/../lib/gcc/arm-none-eabi/4.8.3/../../../../arm-none-eabi/lib/armv7-m/libstdc++.a(eh_catch.o)
 .ARM.extab.text.__cxa_get_exception_ptr
                0x00000000        0x0 /homes/skollbach/Downloads/ASE/gcc-arm-embedded/gcc-arm-none-eabi-4_8-2014q1/bin/../lib/gcc/arm-none-eabi/4.8.3/../../../../arm-none-eabi/lib/armv7-m/libstdc++.a(eh_catch.o)
 .ARM.exidx.text.__cxa_get_exception_ptr
                0x00000000        0x8 /homes/skollbach/Downloads/ASE/gcc-arm-embedded/gcc-arm-none-eabi-4_8-2014q1/bin/../lib/gcc/arm-none-eabi/4.8.3/../../../../arm-none-eabi/lib/armv7-m/libstdc++.a(eh_catch.o)
 .ARM.extab.text.__cxa_end_catch
                0x00000000        0x0 /homes/skollbach/Downloads/ASE/gcc-arm-embedded/gcc-arm-none-eabi-4_8-2014q1/bin/../lib/gcc/arm-none-eabi/4.8.3/../../../../arm-none-eabi/lib/armv7-m/libstdc++.a(eh_catch.o)
 .text._ZSt18uncaught_exceptionv
                0x00000000       0x10 /homes/skollbach/Downloads/ASE/gcc-arm-embedded/gcc-arm-none-eabi-4_8-2014q1/bin/../lib/gcc/arm-none-eabi/4.8.3/../../../../arm-none-eabi/lib/armv7-m/libstdc++.a(eh_catch.o)
 .ARM.extab.text._ZSt18uncaught_exceptionv
                0x00000000        0x0 /homes/skollbach/Downloads/ASE/gcc-arm-embedded/gcc-arm-none-eabi-4_8-2014q1/bin/../lib/gcc/arm-none-eabi/4.8.3/../../../../arm-none-eabi/lib/armv7-m/libstdc++.a(eh_catch.o)
 .ARM.exidx.text._ZSt18uncaught_exceptionv
                0x00000000        0x8 /homes/skollbach/Downloads/ASE/gcc-arm-embedded/gcc-arm-none-eabi-4_8-2014q1/bin/../lib/gcc/arm-none-eabi/4.8.3/../../../../arm-none-eabi/lib/armv7-m/libstdc++.a(eh_catch.o)
 .text          0x00000000        0x0 /homes/skollbach/Downloads/ASE/gcc-arm-embedded/gcc-arm-none-eabi-4_8-2014q1/bin/../lib/gcc/arm-none-eabi/4.8.3/../../../../arm-none-eabi/lib/armv7-m/libstdc++.a(atexit_arm.o)
 .data          0x00000000        0x0 /homes/skollbach/Downloads/ASE/gcc-arm-embedded/gcc-arm-none-eabi-4_8-2014q1/bin/../lib/gcc/arm-none-eabi/4.8.3/../../../../arm-none-eabi/lib/armv7-m/libstdc++.a(atexit_arm.o)
 .bss           0x00000000        0x0 /homes/skollbach/Downloads/ASE/gcc-arm-embedded/gcc-arm-none-eabi-4_8-2014q1/bin/../lib/gcc/arm-none-eabi/4.8.3/../../../../arm-none-eabi/lib/armv7-m/libstdc++.a(atexit_arm.o)
 .ARM.extab.text.__aeabi_atexit
                0x00000000        0x0 /homes/skollbach/Downloads/ASE/gcc-arm-embedded/gcc-arm-none-eabi-4_8-2014q1/bin/../lib/gcc/arm-none-eabi/4.8.3/../../../../arm-none-eabi/lib/armv7-m/libstdc++.a(atexit_arm.o)
 .text          0x00000000        0x0 /homes/skollbach/Downloads/ASE/gcc-arm-embedded/gcc-arm-none-eabi-4_8-2014q1/bin/../lib/gcc/arm-none-eabi/4.8.3/../../../../arm-none-eabi/lib/armv7-m/libstdc++.a(eh_term_handler.o)
 .data          0x00000000        0x0 /homes/skollbach/Downloads/ASE/gcc-arm-embedded/gcc-arm-none-eabi-4_8-2014q1/bin/../lib/gcc/arm-none-eabi/4.8.3/../../../../arm-none-eabi/lib/armv7-m/libstdc++.a(eh_term_handler.o)
 .bss           0x00000000        0x0 /homes/skollbach/Downloads/ASE/gcc-arm-embedded/gcc-arm-none-eabi-4_8-2014q1/bin/../lib/gcc/arm-none-eabi/4.8.3/../../../../arm-none-eabi/lib/armv7-m/libstdc++.a(eh_term_handler.o)
 .text          0x00000000        0x0 /homes/skollbach/Downloads/ASE/gcc-arm-embedded/gcc-arm-none-eabi-4_8-2014q1/bin/../lib/gcc/arm-none-eabi/4.8.3/../../../../arm-none-eabi/lib/armv7-m/libstdc++.a(eh_arm.o)
 .data          0x00000000        0x0 /homes/skollbach/Downloads/ASE/gcc-arm-embedded/gcc-arm-none-eabi-4_8-2014q1/bin/../lib/gcc/arm-none-eabi/4.8.3/../../../../arm-none-eabi/lib/armv7-m/libstdc++.a(eh_arm.o)
 .bss           0x00000000        0x0 /homes/skollbach/Downloads/ASE/gcc-arm-embedded/gcc-arm-none-eabi-4_8-2014q1/bin/../lib/gcc/arm-none-eabi/4.8.3/../../../../arm-none-eabi/lib/armv7-m/libstdc++.a(eh_arm.o)
 .ARM.extab.text.__cxa_type_match
                0x00000000        0x0 /homes/skollbach/Downloads/ASE/gcc-arm-embedded/gcc-arm-none-eabi-4_8-2014q1/bin/../lib/gcc/arm-none-eabi/4.8.3/../../../../arm-none-eabi/lib/armv7-m/libstdc++.a(eh_arm.o)
 .ARM.extab.text.__cxa_begin_cleanup
                0x00000000        0x0 /homes/skollbach/Downloads/ASE/gcc-arm-embedded/gcc-arm-none-eabi-4_8-2014q1/bin/../lib/gcc/arm-none-eabi/4.8.3/../../../../arm-none-eabi/lib/armv7-m/libstdc++.a(eh_arm.o)
 .ARM.extab.text.__gnu_end_cleanup
                0x00000000        0x0 /homes/skollbach/Downloads/ASE/gcc-arm-embedded/gcc-arm-none-eabi-4_8-2014q1/bin/../lib/gcc/arm-none-eabi/4.8.3/../../../../arm-none-eabi/lib/armv7-m/libstdc++.a(eh_arm.o)
 .text          0x00000000        0x0 /homes/skollbach/Downloads/ASE/gcc-arm-embedded/gcc-arm-none-eabi-4_8-2014q1/bin/../lib/gcc/arm-none-eabi/4.8.3/../../../../arm-none-eabi/lib/armv7-m/libstdc++.a(eh_call.o)
 .data          0x00000000        0x0 /homes/skollbach/Downloads/ASE/gcc-arm-embedded/gcc-arm-none-eabi-4_8-2014q1/bin/../lib/gcc/arm-none-eabi/4.8.3/../../../../arm-none-eabi/lib/armv7-m/libstdc++.a(eh_call.o)
 .bss           0x00000000        0x0 /homes/skollbach/Downloads/ASE/gcc-arm-embedded/gcc-arm-none-eabi-4_8-2014q1/bin/../lib/gcc/arm-none-eabi/4.8.3/../../../../arm-none-eabi/lib/armv7-m/libstdc++.a(eh_call.o)
 .ARM.extab.text._ZN10__cxxabiv1L24__is_gxx_exception_classEPc
                0x00000000        0x0 /homes/skollbach/Downloads/ASE/gcc-arm-embedded/gcc-arm-none-eabi-4_8-2014q1/bin/../lib/gcc/arm-none-eabi/4.8.3/../../../../arm-none-eabi/lib/armv7-m/libstdc++.a(eh_call.o)
 .ARM.extab.text.__cxa_call_terminate
                0x00000000        0x0 /homes/skollbach/Downloads/ASE/gcc-arm-embedded/gcc-arm-none-eabi-4_8-2014q1/bin/../lib/gcc/arm-none-eabi/4.8.3/../../../../arm-none-eabi/lib/armv7-m/libstdc++.a(eh_call.o)
 .text          0x00000000        0x0 /homes/skollbach/Downloads/ASE/gcc-arm-embedded/gcc-arm-none-eabi-4_8-2014q1/bin/../lib/gcc/arm-none-eabi/4.8.3/../../../../arm-none-eabi/lib/armv7-m/libstdc++.a(eh_personality.o)
 .data          0x00000000        0x0 /homes/skollbach/Downloads/ASE/gcc-arm-embedded/gcc-arm-none-eabi-4_8-2014q1/bin/../lib/gcc/arm-none-eabi/4.8.3/../../../../arm-none-eabi/lib/armv7-m/libstdc++.a(eh_personality.o)
 .bss           0x00000000        0x0 /homes/skollbach/Downloads/ASE/gcc-arm-embedded/gcc-arm-none-eabi-4_8-2014q1/bin/../lib/gcc/arm-none-eabi/4.8.3/../../../../arm-none-eabi/lib/armv7-m/libstdc++.a(eh_personality.o)
 .ARM.extab.text._ZL12read_sleb128PKhPl
                0x00000000        0x0 /homes/skollbach/Downloads/ASE/gcc-arm-embedded/gcc-arm-none-eabi-4_8-2014q1/bin/../lib/gcc/arm-none-eabi/4.8.3/../../../../arm-none-eabi/lib/armv7-m/libstdc++.a(eh_personality.o)
 .ARM.extab.text._ZL28read_encoded_value_with_basehjPKhPj
                0x00000000        0x0 /homes/skollbach/Downloads/ASE/gcc-arm-embedded/gcc-arm-none-eabi-4_8-2014q1/bin/../lib/gcc/arm-none-eabi/4.8.3/../../../../arm-none-eabi/lib/armv7-m/libstdc++.a(eh_personality.o)
 .ARM.extab.text._ZL17parse_lsda_headerP15_Unwind_ContextPKhP16lsda_header_info
                0x00000000        0x0 /homes/skollbach/Downloads/ASE/gcc-arm-embedded/gcc-arm-none-eabi-4_8-2014q1/bin/../lib/gcc/arm-none-eabi/4.8.3/../../../../arm-none-eabi/lib/armv7-m/libstdc++.a(eh_personality.o)
 .ARM.attributes
                0x00000000       0x2d /homes/skollbach/Downloads/ASE/gcc-arm-embedded/gcc-arm-none-eabi-4_8-2014q1/bin/../lib/gcc/arm-none-eabi/4.8.3/../../../../arm-none-eabi/lib/armv7-m/libstdc++.a(eh_personality.o)
 .debug_frame   0x00000000       0xac /homes/skollbach/Downloads/ASE/gcc-arm-embedded/gcc-arm-none-eabi-4_8-2014q1/bin/../lib/gcc/arm-none-eabi/4.8.3/../../../../arm-none-eabi/lib/armv7-m/libstdc++.a(eh_personality.o)
 .text          0x00000000        0x0 /homes/skollbach/Downloads/ASE/gcc-arm-embedded/gcc-arm-none-eabi-4_8-2014q1/bin/../lib/gcc/arm-none-eabi/4.8.3/../../../../arm-none-eabi/lib/armv7-m/libstdc++.a(eh_globals.o)
 .data          0x00000000        0x0 /homes/skollbach/Downloads/ASE/gcc-arm-embedded/gcc-arm-none-eabi-4_8-2014q1/bin/../lib/gcc/arm-none-eabi/4.8.3/../../../../arm-none-eabi/lib/armv7-m/libstdc++.a(eh_globals.o)
 .bss           0x00000000        0x0 /homes/skollbach/Downloads/ASE/gcc-arm-embedded/gcc-arm-none-eabi-4_8-2014q1/bin/../lib/gcc/arm-none-eabi/4.8.3/../../../../arm-none-eabi/lib/armv7-m/libstdc++.a(eh_globals.o)
 .ARM.extab.text.__cxa_get_globals_fast
                0x00000000        0x0 /homes/skollbach/Downloads/ASE/gcc-arm-embedded/gcc-arm-none-eabi-4_8-2014q1/bin/../lib/gcc/arm-none-eabi/4.8.3/../../../../arm-none-eabi/lib/armv7-m/libstdc++.a(eh_globals.o)
 .ARM.extab.text.__cxa_get_globals
                0x00000000        0x0 /homes/skollbach/Downloads/ASE/gcc-arm-embedded/gcc-arm-none-eabi-4_8-2014q1/bin/../lib/gcc/arm-none-eabi/4.8.3/../../../../arm-none-eabi/lib/armv7-m/libstdc++.a(eh_globals.o)
 .text          0x00000000        0x0 /homes/skollbach/Downloads/ASE/gcc-arm-embedded/gcc-arm-none-eabi-4_8-2014q1/bin/../lib/gcc/arm-none-eabi/4.8.3/../../../../arm-none-eabi/lib/armv7-m/libstdc++.a(vterminate.o)
 .data          0x00000000        0x0 /homes/skollbach/Downloads/ASE/gcc-arm-embedded/gcc-arm-none-eabi-4_8-2014q1/bin/../lib/gcc/arm-none-eabi/4.8.3/../../../../arm-none-eabi/lib/armv7-m/libstdc++.a(vterminate.o)
 .bss           0x00000000        0x0 /homes/skollbach/Downloads/ASE/gcc-arm-embedded/gcc-arm-none-eabi-4_8-2014q1/bin/../lib/gcc/arm-none-eabi/4.8.3/../../../../arm-none-eabi/lib/armv7-m/libstdc++.a(vterminate.o)
 .text          0x00000000        0x0 /homes/skollbach/Downloads/ASE/gcc-arm-embedded/gcc-arm-none-eabi-4_8-2014q1/bin/../lib/gcc/arm-none-eabi/4.8.3/../../../../arm-none-eabi/lib/armv7-m/libstdc++.a(eh_throw.o)
 .data          0x00000000        0x0 /homes/skollbach/Downloads/ASE/gcc-arm-embedded/gcc-arm-none-eabi-4_8-2014q1/bin/../lib/gcc/arm-none-eabi/4.8.3/../../../../arm-none-eabi/lib/armv7-m/libstdc++.a(eh_throw.o)
 .bss           0x00000000        0x0 /homes/skollbach/Downloads/ASE/gcc-arm-embedded/gcc-arm-none-eabi-4_8-2014q1/bin/../lib/gcc/arm-none-eabi/4.8.3/../../../../arm-none-eabi/lib/armv7-m/libstdc++.a(eh_throw.o)
 .ARM.extab.text._ZL23__gxx_exception_cleanup19_Unwind_Reason_CodeP21_Unwind_Control_Block
                0x00000000        0x0 /homes/skollbach/Downloads/ASE/gcc-arm-embedded/gcc-arm-none-eabi-4_8-2014q1/bin/../lib/gcc/arm-none-eabi/4.8.3/../../../../arm-none-eabi/lib/armv7-m/libstdc++.a(eh_throw.o)
 .ARM.extab.text.__cxa_throw
                0x00000000        0x0 /homes/skollbach/Downloads/ASE/gcc-arm-embedded/gcc-arm-none-eabi-4_8-2014q1/bin/../lib/gcc/arm-none-eabi/4.8.3/../../../../arm-none-eabi/lib/armv7-m/libstdc++.a(eh_throw.o)
 .ARM.extab.text.__cxa_rethrow
                0x00000000        0x0 /homes/skollbach/Downloads/ASE/gcc-arm-embedded/gcc-arm-none-eabi-4_8-2014q1/bin/../lib/gcc/arm-none-eabi/4.8.3/../../../../arm-none-eabi/lib/armv7-m/libstdc++.a(eh_throw.o)
 .text          0x00000000        0x0 /homes/skollbach/Downloads/ASE/gcc-arm-embedded/gcc-arm-none-eabi-4_8-2014q1/bin/../lib/gcc/arm-none-eabi/4.8.3/../../../../arm-none-eabi/lib/armv7-m/libstdc++.a(eh_exception.o)
 .data          0x00000000        0x0 /homes/skollbach/Downloads/ASE/gcc-arm-embedded/gcc-arm-none-eabi-4_8-2014q1/bin/../lib/gcc/arm-none-eabi/4.8.3/../../../../arm-none-eabi/lib/armv7-m/libstdc++.a(eh_exception.o)
 .bss           0x00000000        0x0 /homes/skollbach/Downloads/ASE/gcc-arm-embedded/gcc-arm-none-eabi-4_8-2014q1/bin/../lib/gcc/arm-none-eabi/4.8.3/../../../../arm-none-eabi/lib/armv7-m/libstdc++.a(eh_exception.o)
 .ARM.extab.text._ZNSt9exceptionD2Ev
                0x00000000        0x0 /homes/skollbach/Downloads/ASE/gcc-arm-embedded/gcc-arm-none-eabi-4_8-2014q1/bin/../lib/gcc/arm-none-eabi/4.8.3/../../../../arm-none-eabi/lib/armv7-m/libstdc++.a(eh_exception.o)
 .ARM.extab.text._ZNSt13bad_exceptionD2Ev
                0x00000000        0x0 /homes/skollbach/Downloads/ASE/gcc-arm-embedded/gcc-arm-none-eabi-4_8-2014q1/bin/../lib/gcc/arm-none-eabi/4.8.3/../../../../arm-none-eabi/lib/armv7-m/libstdc++.a(eh_exception.o)
 .text._ZN10__cxxabiv115__forced_unwindD2Ev
                0x00000000        0xc /homes/skollbach/Downloads/ASE/gcc-arm-embedded/gcc-arm-none-eabi-4_8-2014q1/bin/../lib/gcc/arm-none-eabi/4.8.3/../../../../arm-none-eabi/lib/armv7-m/libstdc++.a(eh_exception.o)
 .ARM.extab.text._ZN10__cxxabiv115__forced_unwindD2Ev
                0x00000000        0x0 /homes/skollbach/Downloads/ASE/gcc-arm-embedded/gcc-arm-none-eabi-4_8-2014q1/bin/../lib/gcc/arm-none-eabi/4.8.3/../../../../arm-none-eabi/lib/armv7-m/libstdc++.a(eh_exception.o)
 .ARM.exidx.text._ZN10__cxxabiv115__forced_unwindD2Ev
                0x00000000        0x8 /homes/skollbach/Downloads/ASE/gcc-arm-embedded/gcc-arm-none-eabi-4_8-2014q1/bin/../lib/gcc/arm-none-eabi/4.8.3/../../../../arm-none-eabi/lib/armv7-m/libstdc++.a(eh_exception.o)
 .text._ZN10__cxxabiv119__foreign_exceptionD2Ev
                0x00000000        0xc /homes/skollbach/Downloads/ASE/gcc-arm-embedded/gcc-arm-none-eabi-4_8-2014q1/bin/../lib/gcc/arm-none-eabi/4.8.3/../../../../arm-none-eabi/lib/armv7-m/libstdc++.a(eh_exception.o)
 .ARM.extab.text._ZN10__cxxabiv119__foreign_exceptionD2Ev
                0x00000000        0x0 /homes/skollbach/Downloads/ASE/gcc-arm-embedded/gcc-arm-none-eabi-4_8-2014q1/bin/../lib/gcc/arm-none-eabi/4.8.3/../../../../arm-none-eabi/lib/armv7-m/libstdc++.a(eh_exception.o)
 .ARM.exidx.text._ZN10__cxxabiv119__foreign_exceptionD2Ev
                0x00000000        0x8 /homes/skollbach/Downloads/ASE/gcc-arm-embedded/gcc-arm-none-eabi-4_8-2014q1/bin/../lib/gcc/arm-none-eabi/4.8.3/../../../../arm-none-eabi/lib/armv7-m/libstdc++.a(eh_exception.o)
 .ARM.extab.text._ZNKSt9exception4whatEv
                0x00000000        0x0 /homes/skollbach/Downloads/ASE/gcc-arm-embedded/gcc-arm-none-eabi-4_8-2014q1/bin/../lib/gcc/arm-none-eabi/4.8.3/../../../../arm-none-eabi/lib/armv7-m/libstdc++.a(eh_exception.o)
 .ARM.extab.text._ZNKSt13bad_exception4whatEv
                0x00000000        0x0 /homes/skollbach/Downloads/ASE/gcc-arm-embedded/gcc-arm-none-eabi-4_8-2014q1/bin/../lib/gcc/arm-none-eabi/4.8.3/../../../../arm-none-eabi/lib/armv7-m/libstdc++.a(eh_exception.o)
 .ARM.extab.text._ZNSt9exceptionD0Ev
                0x00000000        0x0 /homes/skollbach/Downloads/ASE/gcc-arm-embedded/gcc-arm-none-eabi-4_8-2014q1/bin/../lib/gcc/arm-none-eabi/4.8.3/../../../../arm-none-eabi/lib/armv7-m/libstdc++.a(eh_exception.o)
 .ARM.extab.text._ZNSt13bad_exceptionD0Ev
                0x00000000        0x0 /homes/skollbach/Downloads/ASE/gcc-arm-embedded/gcc-arm-none-eabi-4_8-2014q1/bin/../lib/gcc/arm-none-eabi/4.8.3/../../../../arm-none-eabi/lib/armv7-m/libstdc++.a(eh_exception.o)
 .text._ZN10__cxxabiv115__forced_unwindD0Ev
                0x00000000       0x14 /homes/skollbach/Downloads/ASE/gcc-arm-embedded/gcc-arm-none-eabi-4_8-2014q1/bin/../lib/gcc/arm-none-eabi/4.8.3/../../../../arm-none-eabi/lib/armv7-m/libstdc++.a(eh_exception.o)
 .ARM.extab.text._ZN10__cxxabiv115__forced_unwindD0Ev
                0x00000000        0x0 /homes/skollbach/Downloads/ASE/gcc-arm-embedded/gcc-arm-none-eabi-4_8-2014q1/bin/../lib/gcc/arm-none-eabi/4.8.3/../../../../arm-none-eabi/lib/armv7-m/libstdc++.a(eh_exception.o)
 .ARM.exidx.text._ZN10__cxxabiv115__forced_unwindD0Ev
                0x00000000        0x8 /homes/skollbach/Downloads/ASE/gcc-arm-embedded/gcc-arm-none-eabi-4_8-2014q1/bin/../lib/gcc/arm-none-eabi/4.8.3/../../../../arm-none-eabi/lib/armv7-m/libstdc++.a(eh_exception.o)
 .text._ZN10__cxxabiv119__foreign_exceptionD0Ev
                0x00000000       0x14 /homes/skollbach/Downloads/ASE/gcc-arm-embedded/gcc-arm-none-eabi-4_8-2014q1/bin/../lib/gcc/arm-none-eabi/4.8.3/../../../../arm-none-eabi/lib/armv7-m/libstdc++.a(eh_exception.o)
 .ARM.extab.text._ZN10__cxxabiv119__foreign_exceptionD0Ev
                0x00000000        0x0 /homes/skollbach/Downloads/ASE/gcc-arm-embedded/gcc-arm-none-eabi-4_8-2014q1/bin/../lib/gcc/arm-none-eabi/4.8.3/../../../../arm-none-eabi/lib/armv7-m/libstdc++.a(eh_exception.o)
 .ARM.exidx.text._ZN10__cxxabiv119__foreign_exceptionD0Ev
                0x00000000        0x8 /homes/skollbach/Downloads/ASE/gcc-arm-embedded/gcc-arm-none-eabi-4_8-2014q1/bin/../lib/gcc/arm-none-eabi/4.8.3/../../../../arm-none-eabi/lib/armv7-m/libstdc++.a(eh_exception.o)
 .rodata._ZTVN10__cxxabiv115__forced_unwindE
                0x00000000       0x18 /homes/skollbach/Downloads/ASE/gcc-arm-embedded/gcc-arm-none-eabi-4_8-2014q1/bin/../lib/gcc/arm-none-eabi/4.8.3/../../../../arm-none-eabi/lib/armv7-m/libstdc++.a(eh_exception.o)
 .rodata._ZTVN10__cxxabiv119__foreign_exceptionE
                0x00000000       0x18 /homes/skollbach/Downloads/ASE/gcc-arm-embedded/gcc-arm-none-eabi-4_8-2014q1/bin/../lib/gcc/arm-none-eabi/4.8.3/../../../../arm-none-eabi/lib/armv7-m/libstdc++.a(eh_exception.o)
 .text          0x00000000        0x0 /homes/skollbach/Downloads/ASE/gcc-arm-embedded/gcc-arm-none-eabi-4_8-2014q1/bin/../lib/gcc/arm-none-eabi/4.8.3/../../../../arm-none-eabi/lib/armv7-m/libstdc++.a(eh_type.o)
 .data          0x00000000        0x0 /homes/skollbach/Downloads/ASE/gcc-arm-embedded/gcc-arm-none-eabi-4_8-2014q1/bin/../lib/gcc/arm-none-eabi/4.8.3/../../../../arm-none-eabi/lib/armv7-m/libstdc++.a(eh_type.o)
 .bss           0x00000000        0x0 /homes/skollbach/Downloads/ASE/gcc-arm-embedded/gcc-arm-none-eabi-4_8-2014q1/bin/../lib/gcc/arm-none-eabi/4.8.3/../../../../arm-none-eabi/lib/armv7-m/libstdc++.a(eh_type.o)
 .ARM.extab.text.__cxa_current_exception_type
                0x00000000        0x0 /homes/skollbach/Downloads/ASE/gcc-arm-embedded/gcc-arm-none-eabi-4_8-2014q1/bin/../lib/gcc/arm-none-eabi/4.8.3/../../../../arm-none-eabi/lib/armv7-m/libstdc++.a(eh_type.o)
 .text          0x00000000        0x0 /homes/skollbach/Downloads/ASE/gcc-arm-embedded/gcc-arm-none-eabi-4_8-2014q1/bin/../lib/gcc/arm-none-eabi/4.8.3/../../../../arm-none-eabi/lib/armv7-m/libstdc++.a(class_type_info.o)
 .data          0x00000000        0x0 /homes/skollbach/Downloads/ASE/gcc-arm-embedded/gcc-arm-none-eabi-4_8-2014q1/bin/../lib/gcc/arm-none-eabi/4.8.3/../../../../arm-none-eabi/lib/armv7-m/libstdc++.a(class_type_info.o)
 .bss           0x00000000        0x0 /homes/skollbach/Downloads/ASE/gcc-arm-embedded/gcc-arm-none-eabi-4_8-2014q1/bin/../lib/gcc/arm-none-eabi/4.8.3/../../../../arm-none-eabi/lib/armv7-m/libstdc++.a(class_type_info.o)
 .ARM.extab.text._ZNK10__cxxabiv117__class_type_info11__do_upcastEPKS0_PPv
                0x00000000        0x0 /homes/skollbach/Downloads/ASE/gcc-arm-embedded/gcc-arm-none-eabi-4_8-2014q1/bin/../lib/gcc/arm-none-eabi/4.8.3/../../../../arm-none-eabi/lib/armv7-m/libstdc++.a(class_type_info.o)
 .ARM.extab.text._ZNK10__cxxabiv117__class_type_info20__do_find_public_srcEiPKvPKS0_S2_
                0x00000000        0x0 /homes/skollbach/Downloads/ASE/gcc-arm-embedded/gcc-arm-none-eabi-4_8-2014q1/bin/../lib/gcc/arm-none-eabi/4.8.3/../../../../arm-none-eabi/lib/armv7-m/libstdc++.a(class_type_info.o)
 .ARM.extab.text._ZN10__cxxabiv117__class_type_infoD2Ev
                0x00000000        0x0 /homes/skollbach/Downloads/ASE/gcc-arm-embedded/gcc-arm-none-eabi-4_8-2014q1/bin/../lib/gcc/arm-none-eabi/4.8.3/../../../../arm-none-eabi/lib/armv7-m/libstdc++.a(class_type_info.o)
 .ARM.extab.text._ZN10__cxxabiv117__class_type_infoD0Ev
                0x00000000        0x0 /homes/skollbach/Downloads/ASE/gcc-arm-embedded/gcc-arm-none-eabi-4_8-2014q1/bin/../lib/gcc/arm-none-eabi/4.8.3/../../../../arm-none-eabi/lib/armv7-m/libstdc++.a(class_type_info.o)
 .ARM.extab.text._ZNK10__cxxabiv117__class_type_info11__do_upcastEPKS0_PKvRNS0_15__upcast_resultE
                0x00000000        0x0 /homes/skollbach/Downloads/ASE/gcc-arm-embedded/gcc-arm-none-eabi-4_8-2014q1/bin/../lib/gcc/arm-none-eabi/4.8.3/../../../../arm-none-eabi/lib/armv7-m/libstdc++.a(class_type_info.o)
 .ARM.extab.text._ZNK10__cxxabiv117__class_type_info10__do_catchEPKSt9type_infoPPvj
                0x00000000        0x0 /homes/skollbach/Downloads/ASE/gcc-arm-embedded/gcc-arm-none-eabi-4_8-2014q1/bin/../lib/gcc/arm-none-eabi/4.8.3/../../../../arm-none-eabi/lib/armv7-m/libstdc++.a(class_type_info.o)
 .ARM.extab.text._ZNK10__cxxabiv117__class_type_info12__do_dyncastEiNS0_10__sub_kindEPKS0_PKvS3_S5_RNS0_16__dyncast_resultE
                0x00000000        0x0 /homes/skollbach/Downloads/ASE/gcc-arm-embedded/gcc-arm-none-eabi-4_8-2014q1/bin/../lib/gcc/arm-none-eabi/4.8.3/../../../../arm-none-eabi/lib/armv7-m/libstdc++.a(class_type_info.o)
 .text          0x00000000        0x0 /homes/skollbach/Downloads/ASE/gcc-arm-embedded/gcc-arm-none-eabi-4_8-2014q1/bin/../lib/gcc/arm-none-eabi/4.8.3/../../../../arm-none-eabi/lib/armv7-m/libstdc++.a(eh_alloc.o)
 .data          0x00000000        0x0 /homes/skollbach/Downloads/ASE/gcc-arm-embedded/gcc-arm-none-eabi-4_8-2014q1/bin/../lib/gcc/arm-none-eabi/4.8.3/../../../../arm-none-eabi/lib/armv7-m/libstdc++.a(eh_alloc.o)
 .bss           0x00000000        0x0 /homes/skollbach/Downloads/ASE/gcc-arm-embedded/gcc-arm-none-eabi-4_8-2014q1/bin/../lib/gcc/arm-none-eabi/4.8.3/../../../../arm-none-eabi/lib/armv7-m/libstdc++.a(eh_alloc.o)
 .ARM.extab.text.__cxa_allocate_exception
                0x00000000        0x0 /homes/skollbach/Downloads/ASE/gcc-arm-embedded/gcc-arm-none-eabi-4_8-2014q1/bin/../lib/gcc/arm-none-eabi/4.8.3/../../../../arm-none-eabi/lib/armv7-m/libstdc++.a(eh_alloc.o)
 .ARM.extab.text.__cxa_free_exception
                0x00000000        0x0 /homes/skollbach/Downloads/ASE/gcc-arm-embedded/gcc-arm-none-eabi-4_8-2014q1/bin/../lib/gcc/arm-none-eabi/4.8.3/../../../../arm-none-eabi/lib/armv7-m/libstdc++.a(eh_alloc.o)
 .text.__cxa_allocate_dependent_exception
                0x00000000       0x50 /homes/skollbach/Downloads/ASE/gcc-arm-embedded/gcc-arm-none-eabi-4_8-2014q1/bin/../lib/gcc/arm-none-eabi/4.8.3/../../../../arm-none-eabi/lib/armv7-m/libstdc++.a(eh_alloc.o)
 .ARM.extab.text.__cxa_allocate_dependent_exception
                0x00000000        0x0 /homes/skollbach/Downloads/ASE/gcc-arm-embedded/gcc-arm-none-eabi-4_8-2014q1/bin/../lib/gcc/arm-none-eabi/4.8.3/../../../../arm-none-eabi/lib/armv7-m/libstdc++.a(eh_alloc.o)
 .ARM.exidx.text.__cxa_allocate_dependent_exception
                0x00000000        0x8 /homes/skollbach/Downloads/ASE/gcc-arm-embedded/gcc-arm-none-eabi-4_8-2014q1/bin/../lib/gcc/arm-none-eabi/4.8.3/../../../../arm-none-eabi/lib/armv7-m/libstdc++.a(eh_alloc.o)
 .text.__cxa_free_dependent_exception
                0x00000000       0x3c /homes/skollbach/Downloads/ASE/gcc-arm-embedded/gcc-arm-none-eabi-4_8-2014q1/bin/../lib/gcc/arm-none-eabi/4.8.3/../../../../arm-none-eabi/lib/armv7-m/libstdc++.a(eh_alloc.o)
 .ARM.extab.text.__cxa_free_dependent_exception
                0x00000000        0x0 /homes/skollbach/Downloads/ASE/gcc-arm-embedded/gcc-arm-none-eabi-4_8-2014q1/bin/../lib/gcc/arm-none-eabi/4.8.3/../../../../arm-none-eabi/lib/armv7-m/libstdc++.a(eh_alloc.o)
 .ARM.exidx.text.__cxa_free_dependent_exception
                0x00000000        0x8 /homes/skollbach/Downloads/ASE/gcc-arm-embedded/gcc-arm-none-eabi-4_8-2014q1/bin/../lib/gcc/arm-none-eabi/4.8.3/../../../../arm-none-eabi/lib/armv7-m/libstdc++.a(eh_alloc.o)
 .bss._ZL15dependents_used
                0x00000000        0x4 /homes/skollbach/Downloads/ASE/gcc-arm-embedded/gcc-arm-none-eabi-4_8-2014q1/bin/../lib/gcc/arm-none-eabi/4.8.3/../../../../arm-none-eabi/lib/armv7-m/libstdc++.a(eh_alloc.o)
 .bss._ZL17dependents_buffer
                0x00000000      0x1e0 /homes/skollbach/Downloads/ASE/gcc-arm-embedded/gcc-arm-none-eabi-4_8-2014q1/bin/../lib/gcc/arm-none-eabi/4.8.3/../../../../arm-none-eabi/lib/armv7-m/libstdc++.a(eh_alloc.o)
 .data          0x00000000        0x0 /homes/skollbach/Downloads/ASE/gcc-arm-embedded/gcc-arm-none-eabi-4_8-2014q1/bin/../lib/gcc/arm-none-eabi/4.8.3/../../../../arm-none-eabi/lib/armv7-m/libstdc++.a(cp-demangle.o)
 .bss           0x00000000        0x0 /homes/skollbach/Downloads/ASE/gcc-arm-embedded/gcc-arm-none-eabi-4_8-2014q1/bin/../lib/gcc/arm-none-eabi/4.8.3/../../../../arm-none-eabi/lib/armv7-m/libstdc++.a(cp-demangle.o)
 .text          0x00000000        0x0 /homes/skollbach/Downloads/ASE/gcc-arm-embedded/gcc-arm-none-eabi-4_8-2014q1/bin/../lib/gcc/arm-none-eabi/4.8.3/../../../../arm-none-eabi/lib/armv7-m/libstdc++.a(si_class_type_info.o)
 .data          0x00000000        0x0 /homes/skollbach/Downloads/ASE/gcc-arm-embedded/gcc-arm-none-eabi-4_8-2014q1/bin/../lib/gcc/arm-none-eabi/4.8.3/../../../../arm-none-eabi/lib/armv7-m/libstdc++.a(si_class_type_info.o)
 .bss           0x00000000        0x0 /homes/skollbach/Downloads/ASE/gcc-arm-embedded/gcc-arm-none-eabi-4_8-2014q1/bin/../lib/gcc/arm-none-eabi/4.8.3/../../../../arm-none-eabi/lib/armv7-m/libstdc++.a(si_class_type_info.o)
 .ARM.extab.text._ZN10__cxxabiv120__si_class_type_infoD2Ev
                0x00000000        0x0 /homes/skollbach/Downloads/ASE/gcc-arm-embedded/gcc-arm-none-eabi-4_8-2014q1/bin/../lib/gcc/arm-none-eabi/4.8.3/../../../../arm-none-eabi/lib/armv7-m/libstdc++.a(si_class_type_info.o)
 .ARM.extab.text._ZN10__cxxabiv120__si_class_type_infoD0Ev
                0x00000000        0x0 /homes/skollbach/Downloads/ASE/gcc-arm-embedded/gcc-arm-none-eabi-4_8-2014q1/bin/../lib/gcc/arm-none-eabi/4.8.3/../../../../arm-none-eabi/lib/armv7-m/libstdc++.a(si_class_type_info.o)
 .ARM.extab.text._ZNK10__cxxabiv120__si_class_type_info20__do_find_public_srcEiPKvPKNS_17__class_type_infoES2_
                0x00000000        0x0 /homes/skollbach/Downloads/ASE/gcc-arm-embedded/gcc-arm-none-eabi-4_8-2014q1/bin/../lib/gcc/arm-none-eabi/4.8.3/../../../../arm-none-eabi/lib/armv7-m/libstdc++.a(si_class_type_info.o)
 .ARM.extab.text._ZNK10__cxxabiv120__si_class_type_info12__do_dyncastEiNS_17__class_type_info10__sub_kindEPKS1_PKvS4_S6_RNS1_16__dyncast_resultE
                0x00000000        0x0 /homes/skollbach/Downloads/ASE/gcc-arm-embedded/gcc-arm-none-eabi-4_8-2014q1/bin/../lib/gcc/arm-none-eabi/4.8.3/../../../../arm-none-eabi/lib/armv7-m/libstdc++.a(si_class_type_info.o)
 .ARM.extab.text._ZNK10__cxxabiv120__si_class_type_info11__do_upcastEPKNS_17__class_type_infoEPKvRNS1_15__upcast_resultE
                0x00000000        0x0 /homes/skollbach/Downloads/ASE/gcc-arm-embedded/gcc-arm-none-eabi-4_8-2014q1/bin/../lib/gcc/arm-none-eabi/4.8.3/../../../../arm-none-eabi/lib/armv7-m/libstdc++.a(si_class_type_info.o)
 .text          0x00000000        0x0 /homes/skollbach/Downloads/ASE/gcc-arm-embedded/gcc-arm-none-eabi-4_8-2014q1/bin/../lib/gcc/arm-none-eabi/4.8.3/../../../../arm-none-eabi/lib/armv7-m/libstdc++.a(tinfo.o)
 .data          0x00000000        0x0 /homes/skollbach/Downloads/ASE/gcc-arm-embedded/gcc-arm-none-eabi-4_8-2014q1/bin/../lib/gcc/arm-none-eabi/4.8.3/../../../../arm-none-eabi/lib/armv7-m/libstdc++.a(tinfo.o)
 .bss           0x00000000        0x0 /homes/skollbach/Downloads/ASE/gcc-arm-embedded/gcc-arm-none-eabi-4_8-2014q1/bin/../lib/gcc/arm-none-eabi/4.8.3/../../../../arm-none-eabi/lib/armv7-m/libstdc++.a(tinfo.o)
 .ARM.extab.text._ZNSt9type_infoD2Ev
                0x00000000        0x0 /homes/skollbach/Downloads/ASE/gcc-arm-embedded/gcc-arm-none-eabi-4_8-2014q1/bin/../lib/gcc/arm-none-eabi/4.8.3/../../../../arm-none-eabi/lib/armv7-m/libstdc++.a(tinfo.o)
 .ARM.extab.text._ZNKSt9type_info14__is_pointer_pEv
                0x00000000        0x0 /homes/skollbach/Downloads/ASE/gcc-arm-embedded/gcc-arm-none-eabi-4_8-2014q1/bin/../lib/gcc/arm-none-eabi/4.8.3/../../../../arm-none-eabi/lib/armv7-m/libstdc++.a(tinfo.o)
 .ARM.extab.text._ZNKSt9type_info15__is_function_pEv
                0x00000000        0x0 /homes/skollbach/Downloads/ASE/gcc-arm-embedded/gcc-arm-none-eabi-4_8-2014q1/bin/../lib/gcc/arm-none-eabi/4.8.3/../../../../arm-none-eabi/lib/armv7-m/libstdc++.a(tinfo.o)
 .ARM.extab.text._ZNKSt9type_info11__do_upcastEPKN10__cxxabiv117__class_type_infoEPPv
                0x00000000        0x0 /homes/skollbach/Downloads/ASE/gcc-arm-embedded/gcc-arm-none-eabi-4_8-2014q1/bin/../lib/gcc/arm-none-eabi/4.8.3/../../../../arm-none-eabi/lib/armv7-m/libstdc++.a(tinfo.o)
 .ARM.extab.text._ZNSt9type_infoD0Ev
                0x00000000        0x0 /homes/skollbach/Downloads/ASE/gcc-arm-embedded/gcc-arm-none-eabi-4_8-2014q1/bin/../lib/gcc/arm-none-eabi/4.8.3/../../../../arm-none-eabi/lib/armv7-m/libstdc++.a(tinfo.o)
 .ARM.extab.text._ZNKSt9type_infoeqERKS_
                0x00000000        0x0 /homes/skollbach/Downloads/ASE/gcc-arm-embedded/gcc-arm-none-eabi-4_8-2014q1/bin/../lib/gcc/arm-none-eabi/4.8.3/../../../../arm-none-eabi/lib/armv7-m/libstdc++.a(tinfo.o)
 .ARM.extab.text._ZNKSt9type_info10__do_catchEPKS_PPvj
                0x00000000        0x0 /homes/skollbach/Downloads/ASE/gcc-arm-embedded/gcc-arm-none-eabi-4_8-2014q1/bin/../lib/gcc/arm-none-eabi/4.8.3/../../../../arm-none-eabi/lib/armv7-m/libstdc++.a(tinfo.o)
 .data          0x00000000        0x0 /homes/skollbach/Downloads/ASE/gcc-arm-embedded/gcc-arm-none-eabi-4_8-2014q1/bin/../lib/gcc/arm-none-eabi/4.8.3/armv7-m/libgcc.a(_arm_addsubdf3.o)
 .bss           0x00000000        0x0 /homes/skollbach/Downloads/ASE/gcc-arm-embedded/gcc-arm-none-eabi-4_8-2014q1/bin/../lib/gcc/arm-none-eabi/4.8.3/armv7-m/libgcc.a(_arm_addsubdf3.o)
 .data          0x00000000        0x0 /homes/skollbach/Downloads/ASE/gcc-arm-embedded/gcc-arm-none-eabi-4_8-2014q1/bin/../lib/gcc/arm-none-eabi/4.8.3/armv7-m/libgcc.a(_arm_muldivdf3.o)
 .bss           0x00000000        0x0 /homes/skollbach/Downloads/ASE/gcc-arm-embedded/gcc-arm-none-eabi-4_8-2014q1/bin/../lib/gcc/arm-none-eabi/4.8.3/armv7-m/libgcc.a(_arm_muldivdf3.o)
 .data          0x00000000        0x0 /homes/skollbach/Downloads/ASE/gcc-arm-embedded/gcc-arm-none-eabi-4_8-2014q1/bin/../lib/gcc/arm-none-eabi/4.8.3/armv7-m/libgcc.a(_arm_fixdfsi.o)
 .bss           0x00000000        0x0 /homes/skollbach/Downloads/ASE/gcc-arm-embedded/gcc-arm-none-eabi-4_8-2014q1/bin/../lib/gcc/arm-none-eabi/4.8.3/armv7-m/libgcc.a(_arm_fixdfsi.o)
 .data          0x00000000        0x0 /homes/skollbach/Downloads/ASE/gcc-arm-embedded/gcc-arm-none-eabi-4_8-2014q1/bin/../lib/gcc/arm-none-eabi/4.8.3/armv7-m/libgcc.a(_arm_truncdfsf2.o)
 .bss           0x00000000        0x0 /homes/skollbach/Downloads/ASE/gcc-arm-embedded/gcc-arm-none-eabi-4_8-2014q1/bin/../lib/gcc/arm-none-eabi/4.8.3/armv7-m/libgcc.a(_arm_truncdfsf2.o)
 .data          0x00000000        0x0 /homes/skollbach/Downloads/ASE/gcc-arm-embedded/gcc-arm-none-eabi-4_8-2014q1/bin/../lib/gcc/arm-none-eabi/4.8.3/armv7-m/libgcc.a(_arm_addsubsf3.o)
 .bss           0x00000000        0x0 /homes/skollbach/Downloads/ASE/gcc-arm-embedded/gcc-arm-none-eabi-4_8-2014q1/bin/../lib/gcc/arm-none-eabi/4.8.3/armv7-m/libgcc.a(_arm_addsubsf3.o)
 .data          0x00000000        0x0 /homes/skollbach/Downloads/ASE/gcc-arm-embedded/gcc-arm-none-eabi-4_8-2014q1/bin/../lib/gcc/arm-none-eabi/4.8.3/armv7-m/libgcc.a(_arm_muldivsf3.o)
 .bss           0x00000000        0x0 /homes/skollbach/Downloads/ASE/gcc-arm-embedded/gcc-arm-none-eabi-4_8-2014q1/bin/../lib/gcc/arm-none-eabi/4.8.3/armv7-m/libgcc.a(_arm_muldivsf3.o)
 .data          0x00000000        0x0 /homes/skollbach/Downloads/ASE/gcc-arm-embedded/gcc-arm-none-eabi-4_8-2014q1/bin/../lib/gcc/arm-none-eabi/4.8.3/armv7-m/libgcc.a(_arm_cmpsf2.o)
 .bss           0x00000000        0x0 /homes/skollbach/Downloads/ASE/gcc-arm-embedded/gcc-arm-none-eabi-4_8-2014q1/bin/../lib/gcc/arm-none-eabi/4.8.3/armv7-m/libgcc.a(_arm_cmpsf2.o)
 .data          0x00000000        0x0 /homes/skollbach/Downloads/ASE/gcc-arm-embedded/gcc-arm-none-eabi-4_8-2014q1/bin/../lib/gcc/arm-none-eabi/4.8.3/armv7-m/libgcc.a(_arm_fixsfsi.o)
 .bss           0x00000000        0x0 /homes/skollbach/Downloads/ASE/gcc-arm-embedded/gcc-arm-none-eabi-4_8-2014q1/bin/../lib/gcc/arm-none-eabi/4.8.3/armv7-m/libgcc.a(_arm_fixsfsi.o)
 .text          0x00000000       0x40 /homes/skollbach/Downloads/ASE/gcc-arm-embedded/gcc-arm-none-eabi-4_8-2014q1/bin/../lib/gcc/arm-none-eabi/4.8.3/armv7-m/libgcc.a(_arm_fixunssfsi.o)
 .data          0x00000000        0x0 /homes/skollbach/Downloads/ASE/gcc-arm-embedded/gcc-arm-none-eabi-4_8-2014q1/bin/../lib/gcc/arm-none-eabi/4.8.3/armv7-m/libgcc.a(_arm_fixunssfsi.o)
 .bss           0x00000000        0x0 /homes/skollbach/Downloads/ASE/gcc-arm-embedded/gcc-arm-none-eabi-4_8-2014q1/bin/../lib/gcc/arm-none-eabi/4.8.3/armv7-m/libgcc.a(_arm_fixunssfsi.o)
 .ARM.attributes
                0x00000000       0x1d /homes/skollbach/Downloads/ASE/gcc-arm-embedded/gcc-arm-none-eabi-4_8-2014q1/bin/../lib/gcc/arm-none-eabi/4.8.3/armv7-m/libgcc.a(_arm_fixunssfsi.o)
 .data          0x00000000        0x0 /homes/skollbach/Downloads/ASE/gcc-arm-embedded/gcc-arm-none-eabi-4_8-2014q1/bin/../lib/gcc/arm-none-eabi/4.8.3/armv7-m/libgcc.a(unwind-arm.o)
 .bss           0x00000000        0x0 /homes/skollbach/Downloads/ASE/gcc-arm-embedded/gcc-arm-none-eabi-4_8-2014q1/bin/../lib/gcc/arm-none-eabi/4.8.3/armv7-m/libgcc.a(unwind-arm.o)
 .data          0x00000000        0x0 /homes/skollbach/Downloads/ASE/gcc-arm-embedded/gcc-arm-none-eabi-4_8-2014q1/bin/../lib/gcc/arm-none-eabi/4.8.3/armv7-m/libgcc.a(libunwind.o)
 .bss           0x00000000        0x0 /homes/skollbach/Downloads/ASE/gcc-arm-embedded/gcc-arm-none-eabi-4_8-2014q1/bin/../lib/gcc/arm-none-eabi/4.8.3/armv7-m/libgcc.a(libunwind.o)
 .data          0x00000000        0x0 /homes/skollbach/Downloads/ASE/gcc-arm-embedded/gcc-arm-none-eabi-4_8-2014q1/bin/../lib/gcc/arm-none-eabi/4.8.3/armv7-m/libgcc.a(pr-support.o)
 .bss           0x00000000        0x0 /homes/skollbach/Downloads/ASE/gcc-arm-embedded/gcc-arm-none-eabi-4_8-2014q1/bin/../lib/gcc/arm-none-eabi/4.8.3/armv7-m/libgcc.a(pr-support.o)
 .text          0x00000000        0x0 /homes/skollbach/Downloads/ASE/gcc-arm-embedded/gcc-arm-none-eabi-4_8-2014q1/bin/../lib/gcc/arm-none-eabi/4.8.3/../../../../arm-none-eabi/lib/armv7-m/libc.a(lib_a-abort.o)
 .data          0x00000000        0x0 /homes/skollbach/Downloads/ASE/gcc-arm-embedded/gcc-arm-none-eabi-4_8-2014q1/bin/../lib/gcc/arm-none-eabi/4.8.3/../../../../arm-none-eabi/lib/armv7-m/libc.a(lib_a-abort.o)
 .bss           0x00000000        0x0 /homes/skollbach/Downloads/ASE/gcc-arm-embedded/gcc-arm-none-eabi-4_8-2014q1/bin/../lib/gcc/arm-none-eabi/4.8.3/../../../../arm-none-eabi/lib/armv7-m/libc.a(lib_a-abort.o)
 .text          0x00000000        0x0 /homes/skollbach/Downloads/ASE/gcc-arm-embedded/gcc-arm-none-eabi-4_8-2014q1/bin/../lib/gcc/arm-none-eabi/4.8.3/../../../../arm-none-eabi/lib/armv7-m/libc.a(lib_a-atoi.o)
 .data          0x00000000        0x0 /homes/skollbach/Downloads/ASE/gcc-arm-embedded/gcc-arm-none-eabi-4_8-2014q1/bin/../lib/gcc/arm-none-eabi/4.8.3/../../../../arm-none-eabi/lib/armv7-m/libc.a(lib_a-atoi.o)
 .bss           0x00000000        0x0 /homes/skollbach/Downloads/ASE/gcc-arm-embedded/gcc-arm-none-eabi-4_8-2014q1/bin/../lib/gcc/arm-none-eabi/4.8.3/../../../../arm-none-eabi/lib/armv7-m/libc.a(lib_a-atoi.o)
 .text._atoi_r  0x00000000        0x8 /homes/skollbach/Downloads/ASE/gcc-arm-embedded/gcc-arm-none-eabi-4_8-2014q1/bin/../lib/gcc/arm-none-eabi/4.8.3/../../../../arm-none-eabi/lib/armv7-m/libc.a(lib_a-atoi.o)
 .text          0x00000000        0x0 /homes/skollbach/Downloads/ASE/gcc-arm-embedded/gcc-arm-none-eabi-4_8-2014q1/bin/../lib/gcc/arm-none-eabi/4.8.3/../../../../arm-none-eabi/lib/armv7-m/libc.a(lib_a-cxa_atexit.o)
 .data          0x00000000        0x0 /homes/skollbach/Downloads/ASE/gcc-arm-embedded/gcc-arm-none-eabi-4_8-2014q1/bin/../lib/gcc/arm-none-eabi/4.8.3/../../../../arm-none-eabi/lib/armv7-m/libc.a(lib_a-cxa_atexit.o)
 .bss           0x00000000        0x0 /homes/skollbach/Downloads/ASE/gcc-arm-embedded/gcc-arm-none-eabi-4_8-2014q1/bin/../lib/gcc/arm-none-eabi/4.8.3/../../../../arm-none-eabi/lib/armv7-m/libc.a(lib_a-cxa_atexit.o)
 .text          0x00000000        0x0 /homes/skollbach/Downloads/ASE/gcc-arm-embedded/gcc-arm-none-eabi-4_8-2014q1/bin/../lib/gcc/arm-none-eabi/4.8.3/../../../../arm-none-eabi/lib/armv7-m/libc.a(lib_a-fputc.o)
 .data          0x00000000        0x0 /homes/skollbach/Downloads/ASE/gcc-arm-embedded/gcc-arm-none-eabi-4_8-2014q1/bin/../lib/gcc/arm-none-eabi/4.8.3/../../../../arm-none-eabi/lib/armv7-m/libc.a(lib_a-fputc.o)
 .bss           0x00000000        0x0 /homes/skollbach/Downloads/ASE/gcc-arm-embedded/gcc-arm-none-eabi-4_8-2014q1/bin/../lib/gcc/arm-none-eabi/4.8.3/../../../../arm-none-eabi/lib/armv7-m/libc.a(lib_a-fputc.o)
 .text._fputc_r
                0x00000000       0x24 /homes/skollbach/Downloads/ASE/gcc-arm-embedded/gcc-arm-none-eabi-4_8-2014q1/bin/../lib/gcc/arm-none-eabi/4.8.3/../../../../arm-none-eabi/lib/armv7-m/libc.a(lib_a-fputc.o)
 .text          0x00000000        0x0 /homes/skollbach/Downloads/ASE/gcc-arm-embedded/gcc-arm-none-eabi-4_8-2014q1/bin/../lib/gcc/arm-none-eabi/4.8.3/../../../../arm-none-eabi/lib/armv7-m/libc.a(lib_a-fputs.o)
 .data          0x00000000        0x0 /homes/skollbach/Downloads/ASE/gcc-arm-embedded/gcc-arm-none-eabi-4_8-2014q1/bin/../lib/gcc/arm-none-eabi/4.8.3/../../../../arm-none-eabi/lib/armv7-m/libc.a(lib_a-fputs.o)
 .bss           0x00000000        0x0 /homes/skollbach/Downloads/ASE/gcc-arm-embedded/gcc-arm-none-eabi-4_8-2014q1/bin/../lib/gcc/arm-none-eabi/4.8.3/../../../../arm-none-eabi/lib/armv7-m/libc.a(lib_a-fputs.o)
 .text          0x00000000        0x0 /homes/skollbach/Downloads/ASE/gcc-arm-embedded/gcc-arm-none-eabi-4_8-2014q1/bin/../lib/gcc/arm-none-eabi/4.8.3/../../../../arm-none-eabi/lib/armv7-m/libc.a(lib_a-fvwrite.o)
 .data          0x00000000        0x0 /homes/skollbach/Downloads/ASE/gcc-arm-embedded/gcc-arm-none-eabi-4_8-2014q1/bin/../lib/gcc/arm-none-eabi/4.8.3/../../../../arm-none-eabi/lib/armv7-m/libc.a(lib_a-fvwrite.o)
 .bss           0x00000000        0x0 /homes/skollbach/Downloads/ASE/gcc-arm-embedded/gcc-arm-none-eabi-4_8-2014q1/bin/../lib/gcc/arm-none-eabi/4.8.3/../../../../arm-none-eabi/lib/armv7-m/libc.a(lib_a-fvwrite.o)
 .text          0x00000000        0x0 /homes/skollbach/Downloads/ASE/gcc-arm-embedded/gcc-arm-none-eabi-4_8-2014q1/bin/../lib/gcc/arm-none-eabi/4.8.3/../../../../arm-none-eabi/lib/armv7-m/libc.a(lib_a-fwrite.o)
 .data          0x00000000        0x0 /homes/skollbach/Downloads/ASE/gcc-arm-embedded/gcc-arm-none-eabi-4_8-2014q1/bin/../lib/gcc/arm-none-eabi/4.8.3/../../../../arm-none-eabi/lib/armv7-m/libc.a(lib_a-fwrite.o)
 .bss           0x00000000        0x0 /homes/skollbach/Downloads/ASE/gcc-arm-embedded/gcc-arm-none-eabi-4_8-2014q1/bin/../lib/gcc/arm-none-eabi/4.8.3/../../../../arm-none-eabi/lib/armv7-m/libc.a(lib_a-fwrite.o)
 .text          0x00000000        0x0 /homes/skollbach/Downloads/ASE/gcc-arm-embedded/gcc-arm-none-eabi-4_8-2014q1/bin/../lib/gcc/arm-none-eabi/4.8.3/../../../../arm-none-eabi/lib/armv7-m/libc.a(lib_a-impure.o)
 .data          0x00000000        0x0 /homes/skollbach/Downloads/ASE/gcc-arm-embedded/gcc-arm-none-eabi-4_8-2014q1/bin/../lib/gcc/arm-none-eabi/4.8.3/../../../../arm-none-eabi/lib/armv7-m/libc.a(lib_a-impure.o)
 .bss           0x00000000        0x0 /homes/skollbach/Downloads/ASE/gcc-arm-embedded/gcc-arm-none-eabi-4_8-2014q1/bin/../lib/gcc/arm-none-eabi/4.8.3/../../../../arm-none-eabi/lib/armv7-m/libc.a(lib_a-impure.o)
 .text          0x00000000        0x0 /homes/skollbach/Downloads/ASE/gcc-arm-embedded/gcc-arm-none-eabi-4_8-2014q1/bin/../lib/gcc/arm-none-eabi/4.8.3/../../../../arm-none-eabi/lib/armv7-m/libc.a(lib_a-malloc.o)
 .data          0x00000000        0x0 /homes/skollbach/Downloads/ASE/gcc-arm-embedded/gcc-arm-none-eabi-4_8-2014q1/bin/../lib/gcc/arm-none-eabi/4.8.3/../../../../arm-none-eabi/lib/armv7-m/libc.a(lib_a-malloc.o)
 .bss           0x00000000        0x0 /homes/skollbach/Downloads/ASE/gcc-arm-embedded/gcc-arm-none-eabi-4_8-2014q1/bin/../lib/gcc/arm-none-eabi/4.8.3/../../../../arm-none-eabi/lib/armv7-m/libc.a(lib_a-malloc.o)
 .text          0x00000000        0x0 /homes/skollbach/Downloads/ASE/gcc-arm-embedded/gcc-arm-none-eabi-4_8-2014q1/bin/../lib/gcc/arm-none-eabi/4.8.3/../../../../arm-none-eabi/lib/armv7-m/libc.a(lib_a-mallocr.o)
 .data          0x00000000        0x0 /homes/skollbach/Downloads/ASE/gcc-arm-embedded/gcc-arm-none-eabi-4_8-2014q1/bin/../lib/gcc/arm-none-eabi/4.8.3/../../../../arm-none-eabi/lib/armv7-m/libc.a(lib_a-mallocr.o)
 .bss           0x00000000        0x0 /homes/skollbach/Downloads/ASE/gcc-arm-embedded/gcc-arm-none-eabi-4_8-2014q1/bin/../lib/gcc/arm-none-eabi/4.8.3/../../../../arm-none-eabi/lib/armv7-m/libc.a(lib_a-mallocr.o)
 .text          0x00000000        0x0 /homes/skollbach/Downloads/ASE/gcc-arm-embedded/gcc-arm-none-eabi-4_8-2014q1/bin/../lib/gcc/arm-none-eabi/4.8.3/../../../../arm-none-eabi/lib/armv7-m/libc.a(lib_a-memchr-stub.o)
 .data          0x00000000        0x0 /homes/skollbach/Downloads/ASE/gcc-arm-embedded/gcc-arm-none-eabi-4_8-2014q1/bin/../lib/gcc/arm-none-eabi/4.8.3/../../../../arm-none-eabi/lib/armv7-m/libc.a(lib_a-memchr-stub.o)
 .bss           0x00000000        0x0 /homes/skollbach/Downloads/ASE/gcc-arm-embedded/gcc-arm-none-eabi-4_8-2014q1/bin/../lib/gcc/arm-none-eabi/4.8.3/../../../../arm-none-eabi/lib/armv7-m/libc.a(lib_a-memchr-stub.o)
 .text          0x00000000        0x0 /homes/skollbach/Downloads/ASE/gcc-arm-embedded/gcc-arm-none-eabi-4_8-2014q1/bin/../lib/gcc/arm-none-eabi/4.8.3/../../../../arm-none-eabi/lib/armv7-m/libc.a(lib_a-memcmp.o)
 .data          0x00000000        0x0 /homes/skollbach/Downloads/ASE/gcc-arm-embedded/gcc-arm-none-eabi-4_8-2014q1/bin/../lib/gcc/arm-none-eabi/4.8.3/../../../../arm-none-eabi/lib/armv7-m/libc.a(lib_a-memcmp.o)
 .bss           0x00000000        0x0 /homes/skollbach/Downloads/ASE/gcc-arm-embedded/gcc-arm-none-eabi-4_8-2014q1/bin/../lib/gcc/arm-none-eabi/4.8.3/../../../../arm-none-eabi/lib/armv7-m/libc.a(lib_a-memcmp.o)
 .data          0x00000000        0x0 /homes/skollbach/Downloads/ASE/gcc-arm-embedded/gcc-arm-none-eabi-4_8-2014q1/bin/../lib/gcc/arm-none-eabi/4.8.3/../../../../arm-none-eabi/lib/armv7-m/libc.a(lib_a-memcpy.o)
 .bss           0x00000000        0x0 /homes/skollbach/Downloads/ASE/gcc-arm-embedded/gcc-arm-none-eabi-4_8-2014q1/bin/../lib/gcc/arm-none-eabi/4.8.3/../../../../arm-none-eabi/lib/armv7-m/libc.a(lib_a-memcpy.o)
 .text          0x00000000        0x0 /homes/skollbach/Downloads/ASE/gcc-arm-embedded/gcc-arm-none-eabi-4_8-2014q1/bin/../lib/gcc/arm-none-eabi/4.8.3/../../../../arm-none-eabi/lib/armv7-m/libc.a(lib_a-memmove.o)
 .data          0x00000000        0x0 /homes/skollbach/Downloads/ASE/gcc-arm-embedded/gcc-arm-none-eabi-4_8-2014q1/bin/../lib/gcc/arm-none-eabi/4.8.3/../../../../arm-none-eabi/lib/armv7-m/libc.a(lib_a-memmove.o)
 .bss           0x00000000        0x0 /homes/skollbach/Downloads/ASE/gcc-arm-embedded/gcc-arm-none-eabi-4_8-2014q1/bin/../lib/gcc/arm-none-eabi/4.8.3/../../../../arm-none-eabi/lib/armv7-m/libc.a(lib_a-memmove.o)
 .text          0x00000000        0x0 /homes/skollbach/Downloads/ASE/gcc-arm-embedded/gcc-arm-none-eabi-4_8-2014q1/bin/../lib/gcc/arm-none-eabi/4.8.3/../../../../arm-none-eabi/lib/armv7-m/libc.a(lib_a-memset.o)
 .data          0x00000000        0x0 /homes/skollbach/Downloads/ASE/gcc-arm-embedded/gcc-arm-none-eabi-4_8-2014q1/bin/../lib/gcc/arm-none-eabi/4.8.3/../../../../arm-none-eabi/lib/armv7-m/libc.a(lib_a-memset.o)
 .bss           0x00000000        0x0 /homes/skollbach/Downloads/ASE/gcc-arm-embedded/gcc-arm-none-eabi-4_8-2014q1/bin/../lib/gcc/arm-none-eabi/4.8.3/../../../../arm-none-eabi/lib/armv7-m/libc.a(lib_a-memset.o)
 .text          0x00000000        0x0 /homes/skollbach/Downloads/ASE/gcc-arm-embedded/gcc-arm-none-eabi-4_8-2014q1/bin/../lib/gcc/arm-none-eabi/4.8.3/../../../../arm-none-eabi/lib/armv7-m/libc.a(lib_a-mlock.o)
 .data          0x00000000        0x0 /homes/skollbach/Downloads/ASE/gcc-arm-embedded/gcc-arm-none-eabi-4_8-2014q1/bin/../lib/gcc/arm-none-eabi/4.8.3/../../../../arm-none-eabi/lib/armv7-m/libc.a(lib_a-mlock.o)
 .bss           0x00000000        0x0 /homes/skollbach/Downloads/ASE/gcc-arm-embedded/gcc-arm-none-eabi-4_8-2014q1/bin/../lib/gcc/arm-none-eabi/4.8.3/../../../../arm-none-eabi/lib/armv7-m/libc.a(lib_a-mlock.o)
 .text          0x00000000        0x0 /homes/skollbach/Downloads/ASE/gcc-arm-embedded/gcc-arm-none-eabi-4_8-2014q1/bin/../lib/gcc/arm-none-eabi/4.8.3/../../../../arm-none-eabi/lib/armv7-m/libc.a(lib_a-putc.o)
 .data          0x00000000        0x0 /homes/skollbach/Downloads/ASE/gcc-arm-embedded/gcc-arm-none-eabi-4_8-2014q1/bin/../lib/gcc/arm-none-eabi/4.8.3/../../../../arm-none-eabi/lib/armv7-m/libc.a(lib_a-putc.o)
 .bss           0x00000000        0x0 /homes/skollbach/Downloads/ASE/gcc-arm-embedded/gcc-arm-none-eabi-4_8-2014q1/bin/../lib/gcc/arm-none-eabi/4.8.3/../../../../arm-none-eabi/lib/armv7-m/libc.a(lib_a-putc.o)
 .text.putc     0x00000000       0x60 /homes/skollbach/Downloads/ASE/gcc-arm-embedded/gcc-arm-none-eabi-4_8-2014q1/bin/../lib/gcc/arm-none-eabi/4.8.3/../../../../arm-none-eabi/lib/armv7-m/libc.a(lib_a-putc.o)
 .text          0x00000000        0x0 /homes/skollbach/Downloads/ASE/gcc-arm-embedded/gcc-arm-none-eabi-4_8-2014q1/bin/../lib/gcc/arm-none-eabi/4.8.3/../../../../arm-none-eabi/lib/armv7-m/libc.a(lib_a-realloc.o)
 .data          0x00000000        0x0 /homes/skollbach/Downloads/ASE/gcc-arm-embedded/gcc-arm-none-eabi-4_8-2014q1/bin/../lib/gcc/arm-none-eabi/4.8.3/../../../../arm-none-eabi/lib/armv7-m/libc.a(lib_a-realloc.o)
 .bss           0x00000000        0x0 /homes/skollbach/Downloads/ASE/gcc-arm-embedded/gcc-arm-none-eabi-4_8-2014q1/bin/../lib/gcc/arm-none-eabi/4.8.3/../../../../arm-none-eabi/lib/armv7-m/libc.a(lib_a-realloc.o)
 .text          0x00000000        0x0 /homes/skollbach/Downloads/ASE/gcc-arm-embedded/gcc-arm-none-eabi-4_8-2014q1/bin/../lib/gcc/arm-none-eabi/4.8.3/../../../../arm-none-eabi/lib/armv7-m/libc.a(lib_a-reallocr.o)
 .data          0x00000000        0x0 /homes/skollbach/Downloads/ASE/gcc-arm-embedded/gcc-arm-none-eabi-4_8-2014q1/bin/../lib/gcc/arm-none-eabi/4.8.3/../../../../arm-none-eabi/lib/armv7-m/libc.a(lib_a-reallocr.o)
 .bss           0x00000000        0x0 /homes/skollbach/Downloads/ASE/gcc-arm-embedded/gcc-arm-none-eabi-4_8-2014q1/bin/../lib/gcc/arm-none-eabi/4.8.3/../../../../arm-none-eabi/lib/armv7-m/libc.a(lib_a-reallocr.o)
 .text          0x00000000        0x0 /homes/skollbach/Downloads/ASE/gcc-arm-embedded/gcc-arm-none-eabi-4_8-2014q1/bin/../lib/gcc/arm-none-eabi/4.8.3/../../../../arm-none-eabi/lib/armv7-m/libc.a(lib_a-reent.o)
 .data          0x00000000        0x0 /homes/skollbach/Downloads/ASE/gcc-arm-embedded/gcc-arm-none-eabi-4_8-2014q1/bin/../lib/gcc/arm-none-eabi/4.8.3/../../../../arm-none-eabi/lib/armv7-m/libc.a(lib_a-reent.o)
 .bss           0x00000000        0x0 /homes/skollbach/Downloads/ASE/gcc-arm-embedded/gcc-arm-none-eabi-4_8-2014q1/bin/../lib/gcc/arm-none-eabi/4.8.3/../../../../arm-none-eabi/lib/armv7-m/libc.a(lib_a-reent.o)
 .text.cleanup_glue
                0x00000000       0x1c /homes/skollbach/Downloads/ASE/gcc-arm-embedded/gcc-arm-none-eabi-4_8-2014q1/bin/../lib/gcc/arm-none-eabi/4.8.3/../../../../arm-none-eabi/lib/armv7-m/libc.a(lib_a-reent.o)
 .text._reclaim_reent
                0x00000000       0x90 /homes/skollbach/Downloads/ASE/gcc-arm-embedded/gcc-arm-none-eabi-4_8-2014q1/bin/../lib/gcc/arm-none-eabi/4.8.3/../../../../arm-none-eabi/lib/armv7-m/libc.a(lib_a-reent.o)
 .text          0x00000000        0x0 /homes/skollbach/Downloads/ASE/gcc-arm-embedded/gcc-arm-none-eabi-4_8-2014q1/bin/../lib/gcc/arm-none-eabi/4.8.3/../../../../arm-none-eabi/lib/armv7-m/libc.a(lib_a-signal.o)
 .data          0x00000000        0x0 /homes/skollbach/Downloads/ASE/gcc-arm-embedded/gcc-arm-none-eabi-4_8-2014q1/bin/../lib/gcc/arm-none-eabi/4.8.3/../../../../arm-none-eabi/lib/armv7-m/libc.a(lib_a-signal.o)
 .bss           0x00000000        0x0 /homes/skollbach/Downloads/ASE/gcc-arm-embedded/gcc-arm-none-eabi-4_8-2014q1/bin/../lib/gcc/arm-none-eabi/4.8.3/../../../../arm-none-eabi/lib/armv7-m/libc.a(lib_a-signal.o)
 .text._init_signal_r
                0x00000000       0x38 /homes/skollbach/Downloads/ASE/gcc-arm-embedded/gcc-arm-none-eabi-4_8-2014q1/bin/../lib/gcc/arm-none-eabi/4.8.3/../../../../arm-none-eabi/lib/armv7-m/libc.a(lib_a-signal.o)
 .text._signal_r
                0x00000000       0x44 /homes/skollbach/Downloads/ASE/gcc-arm-embedded/gcc-arm-none-eabi-4_8-2014q1/bin/../lib/gcc/arm-none-eabi/4.8.3/../../../../arm-none-eabi/lib/armv7-m/libc.a(lib_a-signal.o)
 .text.__sigtramp_r
                0x00000000       0x58 /homes/skollbach/Downloads/ASE/gcc-arm-embedded/gcc-arm-none-eabi-4_8-2014q1/bin/../lib/gcc/arm-none-eabi/4.8.3/../../../../arm-none-eabi/lib/armv7-m/libc.a(lib_a-signal.o)
 .text.signal   0x00000000       0x10 /homes/skollbach/Downloads/ASE/gcc-arm-embedded/gcc-arm-none-eabi-4_8-2014q1/bin/../lib/gcc/arm-none-eabi/4.8.3/../../../../arm-none-eabi/lib/armv7-m/libc.a(lib_a-signal.o)
 .text._init_signal
                0x00000000        0xc /homes/skollbach/Downloads/ASE/gcc-arm-embedded/gcc-arm-none-eabi-4_8-2014q1/bin/../lib/gcc/arm-none-eabi/4.8.3/../../../../arm-none-eabi/lib/armv7-m/libc.a(lib_a-signal.o)
 .text.__sigtramp
                0x00000000       0x10 /homes/skollbach/Downloads/ASE/gcc-arm-embedded/gcc-arm-none-eabi-4_8-2014q1/bin/../lib/gcc/arm-none-eabi/4.8.3/../../../../arm-none-eabi/lib/armv7-m/libc.a(lib_a-signal.o)
 .text          0x00000000        0x0 /homes/skollbach/Downloads/ASE/gcc-arm-embedded/gcc-arm-none-eabi-4_8-2014q1/bin/../lib/gcc/arm-none-eabi/4.8.3/../../../../arm-none-eabi/lib/armv7-m/libc.a(lib_a-signalr.o)
 .data          0x00000000        0x0 /homes/skollbach/Downloads/ASE/gcc-arm-embedded/gcc-arm-none-eabi-4_8-2014q1/bin/../lib/gcc/arm-none-eabi/4.8.3/../../../../arm-none-eabi/lib/armv7-m/libc.a(lib_a-signalr.o)
 .bss           0x00000000        0x0 /homes/skollbach/Downloads/ASE/gcc-arm-embedded/gcc-arm-none-eabi-4_8-2014q1/bin/../lib/gcc/arm-none-eabi/4.8.3/../../../../arm-none-eabi/lib/armv7-m/libc.a(lib_a-signalr.o)
 .text          0x00000000        0x0 /homes/skollbach/Downloads/ASE/gcc-arm-embedded/gcc-arm-none-eabi-4_8-2014q1/bin/../lib/gcc/arm-none-eabi/4.8.3/../../../../arm-none-eabi/lib/armv7-m/libc.a(lib_a-sprintf.o)
 .data          0x00000000        0x0 /homes/skollbach/Downloads/ASE/gcc-arm-embedded/gcc-arm-none-eabi-4_8-2014q1/bin/../lib/gcc/arm-none-eabi/4.8.3/../../../../arm-none-eabi/lib/armv7-m/libc.a(lib_a-sprintf.o)
 .bss           0x00000000        0x0 /homes/skollbach/Downloads/ASE/gcc-arm-embedded/gcc-arm-none-eabi-4_8-2014q1/bin/../lib/gcc/arm-none-eabi/4.8.3/../../../../arm-none-eabi/lib/armv7-m/libc.a(lib_a-sprintf.o)
 .text._sprintf_r
                0x00000000       0x44 /homes/skollbach/Downloads/ASE/gcc-arm-embedded/gcc-arm-none-eabi-4_8-2014q1/bin/../lib/gcc/arm-none-eabi/4.8.3/../../../../arm-none-eabi/lib/armv7-m/libc.a(lib_a-sprintf.o)
 .text          0x00000000        0x0 /homes/skollbach/Downloads/ASE/gcc-arm-embedded/gcc-arm-none-eabi-4_8-2014q1/bin/../lib/gcc/arm-none-eabi/4.8.3/../../../../arm-none-eabi/lib/armv7-m/libc.a(lib_a-strcasecmp.o)
 .data          0x00000000        0x0 /homes/skollbach/Downloads/ASE/gcc-arm-embedded/gcc-arm-none-eabi-4_8-2014q1/bin/../lib/gcc/arm-none-eabi/4.8.3/../../../../arm-none-eabi/lib/armv7-m/libc.a(lib_a-strcasecmp.o)
 .bss           0x00000000        0x0 /homes/skollbach/Downloads/ASE/gcc-arm-embedded/gcc-arm-none-eabi-4_8-2014q1/bin/../lib/gcc/arm-none-eabi/4.8.3/../../../../arm-none-eabi/lib/armv7-m/libc.a(lib_a-strcasecmp.o)
 .data          0x00000000        0x0 /homes/skollbach/Downloads/ASE/gcc-arm-embedded/gcc-arm-none-eabi-4_8-2014q1/bin/../lib/gcc/arm-none-eabi/4.8.3/../../../../arm-none-eabi/lib/armv7-m/libc.a(lib_a-strcmp.o)
 .bss           0x00000000        0x0 /homes/skollbach/Downloads/ASE/gcc-arm-embedded/gcc-arm-none-eabi-4_8-2014q1/bin/../lib/gcc/arm-none-eabi/4.8.3/../../../../arm-none-eabi/lib/armv7-m/libc.a(lib_a-strcmp.o)
 .text          0x00000000        0x0 /homes/skollbach/Downloads/ASE/gcc-arm-embedded/gcc-arm-none-eabi-4_8-2014q1/bin/../lib/gcc/arm-none-eabi/4.8.3/../../../../arm-none-eabi/lib/armv7-m/libc.a(lib_a-strlen.o)
 .data          0x00000000        0x0 /homes/skollbach/Downloads/ASE/gcc-arm-embedded/gcc-arm-none-eabi-4_8-2014q1/bin/../lib/gcc/arm-none-eabi/4.8.3/../../../../arm-none-eabi/lib/armv7-m/libc.a(lib_a-strlen.o)
 .bss           0x00000000        0x0 /homes/skollbach/Downloads/ASE/gcc-arm-embedded/gcc-arm-none-eabi-4_8-2014q1/bin/../lib/gcc/arm-none-eabi/4.8.3/../../../../arm-none-eabi/lib/armv7-m/libc.a(lib_a-strlen.o)
 .text          0x00000000        0x0 /homes/skollbach/Downloads/ASE/gcc-arm-embedded/gcc-arm-none-eabi-4_8-2014q1/bin/../lib/gcc/arm-none-eabi/4.8.3/../../../../arm-none-eabi/lib/armv7-m/libc.a(lib_a-strncmp.o)
 .data          0x00000000        0x0 /homes/skollbach/Downloads/ASE/gcc-arm-embedded/gcc-arm-none-eabi-4_8-2014q1/bin/../lib/gcc/arm-none-eabi/4.8.3/../../../../arm-none-eabi/lib/armv7-m/libc.a(lib_a-strncmp.o)
 .bss           0x00000000        0x0 /homes/skollbach/Downloads/ASE/gcc-arm-embedded/gcc-arm-none-eabi-4_8-2014q1/bin/../lib/gcc/arm-none-eabi/4.8.3/../../../../arm-none-eabi/lib/armv7-m/libc.a(lib_a-strncmp.o)
 .text          0x00000000        0x0 /homes/skollbach/Downloads/ASE/gcc-arm-embedded/gcc-arm-none-eabi-4_8-2014q1/bin/../lib/gcc/arm-none-eabi/4.8.3/../../../../arm-none-eabi/lib/armv7-m/libc.a(lib_a-strpbrk.o)
 .data          0x00000000        0x0 /homes/skollbach/Downloads/ASE/gcc-arm-embedded/gcc-arm-none-eabi-4_8-2014q1/bin/../lib/gcc/arm-none-eabi/4.8.3/../../../../arm-none-eabi/lib/armv7-m/libc.a(lib_a-strpbrk.o)
 .bss           0x00000000        0x0 /homes/skollbach/Downloads/ASE/gcc-arm-embedded/gcc-arm-none-eabi-4_8-2014q1/bin/../lib/gcc/arm-none-eabi/4.8.3/../../../../arm-none-eabi/lib/armv7-m/libc.a(lib_a-strpbrk.o)
 .text          0x00000000        0x0 /homes/skollbach/Downloads/ASE/gcc-arm-embedded/gcc-arm-none-eabi-4_8-2014q1/bin/../lib/gcc/arm-none-eabi/4.8.3/../../../../arm-none-eabi/lib/armv7-m/libc.a(lib_a-strspn.o)
 .data          0x00000000        0x0 /homes/skollbach/Downloads/ASE/gcc-arm-embedded/gcc-arm-none-eabi-4_8-2014q1/bin/../lib/gcc/arm-none-eabi/4.8.3/../../../../arm-none-eabi/lib/armv7-m/libc.a(lib_a-strspn.o)
 .bss           0x00000000        0x0 /homes/skollbach/Downloads/ASE/gcc-arm-embedded/gcc-arm-none-eabi-4_8-2014q1/bin/../lib/gcc/arm-none-eabi/4.8.3/../../../../arm-none-eabi/lib/armv7-m/libc.a(lib_a-strspn.o)
 .text          0x00000000        0x0 /homes/skollbach/Downloads/ASE/gcc-arm-embedded/gcc-arm-none-eabi-4_8-2014q1/bin/../lib/gcc/arm-none-eabi/4.8.3/../../../../arm-none-eabi/lib/armv7-m/libc.a(lib_a-strtol.o)
 .data          0x00000000        0x0 /homes/skollbach/Downloads/ASE/gcc-arm-embedded/gcc-arm-none-eabi-4_8-2014q1/bin/../lib/gcc/arm-none-eabi/4.8.3/../../../../arm-none-eabi/lib/armv7-m/libc.a(lib_a-strtol.o)
 .bss           0x00000000        0x0 /homes/skollbach/Downloads/ASE/gcc-arm-embedded/gcc-arm-none-eabi-4_8-2014q1/bin/../lib/gcc/arm-none-eabi/4.8.3/../../../../arm-none-eabi/lib/armv7-m/libc.a(lib_a-strtol.o)
 .text          0x00000000        0x0 /homes/skollbach/Downloads/ASE/gcc-arm-embedded/gcc-arm-none-eabi-4_8-2014q1/bin/../lib/gcc/arm-none-eabi/4.8.3/../../../../arm-none-eabi/lib/armv7-m/libc.a(lib_a-svfprintf.o)
 .data          0x00000000        0x0 /homes/skollbach/Downloads/ASE/gcc-arm-embedded/gcc-arm-none-eabi-4_8-2014q1/bin/../lib/gcc/arm-none-eabi/4.8.3/../../../../arm-none-eabi/lib/armv7-m/libc.a(lib_a-svfprintf.o)
 .bss           0x00000000        0x0 /homes/skollbach/Downloads/ASE/gcc-arm-embedded/gcc-arm-none-eabi-4_8-2014q1/bin/../lib/gcc/arm-none-eabi/4.8.3/../../../../arm-none-eabi/lib/armv7-m/libc.a(lib_a-svfprintf.o)
 .text          0x00000000        0x0 /homes/skollbach/Downloads/ASE/gcc-arm-embedded/gcc-arm-none-eabi-4_8-2014q1/bin/../lib/gcc/arm-none-eabi/4.8.3/../../../../arm-none-eabi/lib/armv7-m/libc.a(lib_a-syswrite.o)
 .data          0x00000000        0x0 /homes/skollbach/Downloads/ASE/gcc-arm-embedded/gcc-arm-none-eabi-4_8-2014q1/bin/../lib/gcc/arm-none-eabi/4.8.3/../../../../arm-none-eabi/lib/armv7-m/libc.a(lib_a-syswrite.o)
 .bss           0x00000000        0x0 /homes/skollbach/Downloads/ASE/gcc-arm-embedded/gcc-arm-none-eabi-4_8-2014q1/bin/../lib/gcc/arm-none-eabi/4.8.3/../../../../arm-none-eabi/lib/armv7-m/libc.a(lib_a-syswrite.o)
 .text          0x00000000        0x0 /homes/skollbach/Downloads/ASE/gcc-arm-embedded/gcc-arm-none-eabi-4_8-2014q1/bin/../lib/gcc/arm-none-eabi/4.8.3/../../../../arm-none-eabi/lib/armv7-m/libc.a(lib_a-wbuf.o)
 .data          0x00000000        0x0 /homes/skollbach/Downloads/ASE/gcc-arm-embedded/gcc-arm-none-eabi-4_8-2014q1/bin/../lib/gcc/arm-none-eabi/4.8.3/../../../../arm-none-eabi/lib/armv7-m/libc.a(lib_a-wbuf.o)
 .bss           0x00000000        0x0 /homes/skollbach/Downloads/ASE/gcc-arm-embedded/gcc-arm-none-eabi-4_8-2014q1/bin/../lib/gcc/arm-none-eabi/4.8.3/../../../../arm-none-eabi/lib/armv7-m/libc.a(lib_a-wbuf.o)
 .text.__swbuf  0x00000000       0x10 /homes/skollbach/Downloads/ASE/gcc-arm-embedded/gcc-arm-none-eabi-4_8-2014q1/bin/../lib/gcc/arm-none-eabi/4.8.3/../../../../arm-none-eabi/lib/armv7-m/libc.a(lib_a-wbuf.o)
 .text          0x00000000        0x0 /homes/skollbach/Downloads/ASE/gcc-arm-embedded/gcc-arm-none-eabi-4_8-2014q1/bin/../lib/gcc/arm-none-eabi/4.8.3/../../../../arm-none-eabi/lib/armv7-m/libc.a(lib_a-wsetup.o)
 .data          0x00000000        0x0 /homes/skollbach/Downloads/ASE/gcc-arm-embedded/gcc-arm-none-eabi-4_8-2014q1/bin/../lib/gcc/arm-none-eabi/4.8.3/../../../../arm-none-eabi/lib/armv7-m/libc.a(lib_a-wsetup.o)
 .bss           0x00000000        0x0 /homes/skollbach/Downloads/ASE/gcc-arm-embedded/gcc-arm-none-eabi-4_8-2014q1/bin/../lib/gcc/arm-none-eabi/4.8.3/../../../../arm-none-eabi/lib/armv7-m/libc.a(lib_a-wsetup.o)
 .text          0x00000000        0x0 /homes/skollbach/Downloads/ASE/gcc-arm-embedded/gcc-arm-none-eabi-4_8-2014q1/bin/../lib/gcc/arm-none-eabi/4.8.3/../../../../arm-none-eabi/lib/armv7-m/libc.a(lib_a-__atexit.o)
 .data          0x00000000        0x0 /homes/skollbach/Downloads/ASE/gcc-arm-embedded/gcc-arm-none-eabi-4_8-2014q1/bin/../lib/gcc/arm-none-eabi/4.8.3/../../../../arm-none-eabi/lib/armv7-m/libc.a(lib_a-__atexit.o)
 .bss           0x00000000        0x0 /homes/skollbach/Downloads/ASE/gcc-arm-embedded/gcc-arm-none-eabi-4_8-2014q1/bin/../lib/gcc/arm-none-eabi/4.8.3/../../../../arm-none-eabi/lib/armv7-m/libc.a(lib_a-__atexit.o)
 .text          0x00000000        0x0 /homes/skollbach/Downloads/ASE/gcc-arm-embedded/gcc-arm-none-eabi-4_8-2014q1/bin/../lib/gcc/arm-none-eabi/4.8.3/../../../../arm-none-eabi/lib/armv7-m/libc.a(lib_a-ctype_.o)
 .data          0x00000000        0x0 /homes/skollbach/Downloads/ASE/gcc-arm-embedded/gcc-arm-none-eabi-4_8-2014q1/bin/../lib/gcc/arm-none-eabi/4.8.3/../../../../arm-none-eabi/lib/armv7-m/libc.a(lib_a-ctype_.o)
 .bss           0x00000000        0x0 /homes/skollbach/Downloads/ASE/gcc-arm-embedded/gcc-arm-none-eabi-4_8-2014q1/bin/../lib/gcc/arm-none-eabi/4.8.3/../../../../arm-none-eabi/lib/armv7-m/libc.a(lib_a-ctype_.o)
 .text          0x00000000        0x0 /homes/skollbach/Downloads/ASE/gcc-arm-embedded/gcc-arm-none-eabi-4_8-2014q1/bin/../lib/gcc/arm-none-eabi/4.8.3/../../../../arm-none-eabi/lib/armv7-m/libc.a(lib_a-dtoa.o)
 .data          0x00000000        0x0 /homes/skollbach/Downloads/ASE/gcc-arm-embedded/gcc-arm-none-eabi-4_8-2014q1/bin/../lib/gcc/arm-none-eabi/4.8.3/../../../../arm-none-eabi/lib/armv7-m/libc.a(lib_a-dtoa.o)
 .bss           0x00000000        0x0 /homes/skollbach/Downloads/ASE/gcc-arm-embedded/gcc-arm-none-eabi-4_8-2014q1/bin/../lib/gcc/arm-none-eabi/4.8.3/../../../../arm-none-eabi/lib/armv7-m/libc.a(lib_a-dtoa.o)
 .text          0x00000000        0x0 /homes/skollbach/Downloads/ASE/gcc-arm-embedded/gcc-arm-none-eabi-4_8-2014q1/bin/../lib/gcc/arm-none-eabi/4.8.3/../../../../arm-none-eabi/lib/armv7-m/libc.a(lib_a-fflush.o)
 .data          0x00000000        0x0 /homes/skollbach/Downloads/ASE/gcc-arm-embedded/gcc-arm-none-eabi-4_8-2014q1/bin/../lib/gcc/arm-none-eabi/4.8.3/../../../../arm-none-eabi/lib/armv7-m/libc.a(lib_a-fflush.o)
 .bss           0x00000000        0x0 /homes/skollbach/Downloads/ASE/gcc-arm-embedded/gcc-arm-none-eabi-4_8-2014q1/bin/../lib/gcc/arm-none-eabi/4.8.3/../../../../arm-none-eabi/lib/armv7-m/libc.a(lib_a-fflush.o)
 .text.fflush   0x00000000       0x24 /homes/skollbach/Downloads/ASE/gcc-arm-embedded/gcc-arm-none-eabi-4_8-2014q1/bin/../lib/gcc/arm-none-eabi/4.8.3/../../../../arm-none-eabi/lib/armv7-m/libc.a(lib_a-fflush.o)
 .text          0x00000000        0x0 /homes/skollbach/Downloads/ASE/gcc-arm-embedded/gcc-arm-none-eabi-4_8-2014q1/bin/../lib/gcc/arm-none-eabi/4.8.3/../../../../arm-none-eabi/lib/armv7-m/libc.a(lib_a-findfp.o)
 .data          0x00000000        0x0 /homes/skollbach/Downloads/ASE/gcc-arm-embedded/gcc-arm-none-eabi-4_8-2014q1/bin/../lib/gcc/arm-none-eabi/4.8.3/../../../../arm-none-eabi/lib/armv7-m/libc.a(lib_a-findfp.o)
 .bss           0x00000000        0x0 /homes/skollbach/Downloads/ASE/gcc-arm-embedded/gcc-arm-none-eabi-4_8-2014q1/bin/../lib/gcc/arm-none-eabi/4.8.3/../../../../arm-none-eabi/lib/armv7-m/libc.a(lib_a-findfp.o)
 .text.__fp_lock
                0x00000000        0x4 /homes/skollbach/Downloads/ASE/gcc-arm-embedded/gcc-arm-none-eabi-4_8-2014q1/bin/../lib/gcc/arm-none-eabi/4.8.3/../../../../arm-none-eabi/lib/armv7-m/libc.a(lib_a-findfp.o)
 .text.__fp_unlock
                0x00000000        0x4 /homes/skollbach/Downloads/ASE/gcc-arm-embedded/gcc-arm-none-eabi-4_8-2014q1/bin/../lib/gcc/arm-none-eabi/4.8.3/../../../../arm-none-eabi/lib/armv7-m/libc.a(lib_a-findfp.o)
 .text.__sfmoreglue
                0x00000000       0x30 /homes/skollbach/Downloads/ASE/gcc-arm-embedded/gcc-arm-none-eabi-4_8-2014q1/bin/../lib/gcc/arm-none-eabi/4.8.3/../../../../arm-none-eabi/lib/armv7-m/libc.a(lib_a-findfp.o)
 .text._cleanup
                0x00000000       0x14 /homes/skollbach/Downloads/ASE/gcc-arm-embedded/gcc-arm-none-eabi-4_8-2014q1/bin/../lib/gcc/arm-none-eabi/4.8.3/../../../../arm-none-eabi/lib/armv7-m/libc.a(lib_a-findfp.o)
 .text.__sfp    0x00000000       0x8c /homes/skollbach/Downloads/ASE/gcc-arm-embedded/gcc-arm-none-eabi-4_8-2014q1/bin/../lib/gcc/arm-none-eabi/4.8.3/../../../../arm-none-eabi/lib/armv7-m/libc.a(lib_a-findfp.o)
 .text.__sinit_lock_acquire
                0x00000000        0x4 /homes/skollbach/Downloads/ASE/gcc-arm-embedded/gcc-arm-none-eabi-4_8-2014q1/bin/../lib/gcc/arm-none-eabi/4.8.3/../../../../arm-none-eabi/lib/armv7-m/libc.a(lib_a-findfp.o)
 .text.__sinit_lock_release
                0x00000000        0x4 /homes/skollbach/Downloads/ASE/gcc-arm-embedded/gcc-arm-none-eabi-4_8-2014q1/bin/../lib/gcc/arm-none-eabi/4.8.3/../../../../arm-none-eabi/lib/armv7-m/libc.a(lib_a-findfp.o)
 .text.__fp_lock_all
                0x00000000       0x14 /homes/skollbach/Downloads/ASE/gcc-arm-embedded/gcc-arm-none-eabi-4_8-2014q1/bin/../lib/gcc/arm-none-eabi/4.8.3/../../../../arm-none-eabi/lib/armv7-m/libc.a(lib_a-findfp.o)
 .text.__fp_unlock_all
                0x00000000       0x14 /homes/skollbach/Downloads/ASE/gcc-arm-embedded/gcc-arm-none-eabi-4_8-2014q1/bin/../lib/gcc/arm-none-eabi/4.8.3/../../../../arm-none-eabi/lib/armv7-m/libc.a(lib_a-findfp.o)
 .text          0x00000000        0x0 /homes/skollbach/Downloads/ASE/gcc-arm-embedded/gcc-arm-none-eabi-4_8-2014q1/bin/../lib/gcc/arm-none-eabi/4.8.3/../../../../arm-none-eabi/lib/armv7-m/libc.a(lib_a-freer.o)
 .data          0x00000000        0x0 /homes/skollbach/Downloads/ASE/gcc-arm-embedded/gcc-arm-none-eabi-4_8-2014q1/bin/../lib/gcc/arm-none-eabi/4.8.3/../../../../arm-none-eabi/lib/armv7-m/libc.a(lib_a-freer.o)
 .bss           0x00000000        0x0 /homes/skollbach/Downloads/ASE/gcc-arm-embedded/gcc-arm-none-eabi-4_8-2014q1/bin/../lib/gcc/arm-none-eabi/4.8.3/../../../../arm-none-eabi/lib/armv7-m/libc.a(lib_a-freer.o)
 .text          0x00000000        0x0 /homes/skollbach/Downloads/ASE/gcc-arm-embedded/gcc-arm-none-eabi-4_8-2014q1/bin/../lib/gcc/arm-none-eabi/4.8.3/../../../../arm-none-eabi/lib/armv7-m/libc.a(lib_a-fwalk.o)
 .data          0x00000000        0x0 /homes/skollbach/Downloads/ASE/gcc-arm-embedded/gcc-arm-none-eabi-4_8-2014q1/bin/../lib/gcc/arm-none-eabi/4.8.3/../../../../arm-none-eabi/lib/armv7-m/libc.a(lib_a-fwalk.o)
 .bss           0x00000000        0x0 /homes/skollbach/Downloads/ASE/gcc-arm-embedded/gcc-arm-none-eabi-4_8-2014q1/bin/../lib/gcc/arm-none-eabi/4.8.3/../../../../arm-none-eabi/lib/armv7-m/libc.a(lib_a-fwalk.o)
 .text._fwalk_reent
                0x00000000       0x4c /homes/skollbach/Downloads/ASE/gcc-arm-embedded/gcc-arm-none-eabi-4_8-2014q1/bin/../lib/gcc/arm-none-eabi/4.8.3/../../../../arm-none-eabi/lib/armv7-m/libc.a(lib_a-fwalk.o)
 .text          0x00000000        0x0 /homes/skollbach/Downloads/ASE/gcc-arm-embedded/gcc-arm-none-eabi-4_8-2014q1/bin/../lib/gcc/arm-none-eabi/4.8.3/../../../../arm-none-eabi/lib/armv7-m/libc.a(lib_a-locale.o)
 .data          0x00000000        0x0 /homes/skollbach/Downloads/ASE/gcc-arm-embedded/gcc-arm-none-eabi-4_8-2014q1/bin/../lib/gcc/arm-none-eabi/4.8.3/../../../../arm-none-eabi/lib/armv7-m/libc.a(lib_a-locale.o)
 .bss           0x00000000        0x0 /homes/skollbach/Downloads/ASE/gcc-arm-embedded/gcc-arm-none-eabi-4_8-2014q1/bin/../lib/gcc/arm-none-eabi/4.8.3/../../../../arm-none-eabi/lib/armv7-m/libc.a(lib_a-locale.o)
 .text._setlocale_r
                0x00000000       0x40 /homes/skollbach/Downloads/ASE/gcc-arm-embedded/gcc-arm-none-eabi-4_8-2014q1/bin/../lib/gcc/arm-none-eabi/4.8.3/../../../../arm-none-eabi/lib/armv7-m/libc.a(lib_a-locale.o)
 .text.__locale_charset
                0x00000000        0x8 /homes/skollbach/Downloads/ASE/gcc-arm-embedded/gcc-arm-none-eabi-4_8-2014q1/bin/../lib/gcc/arm-none-eabi/4.8.3/../../../../arm-none-eabi/lib/armv7-m/libc.a(lib_a-locale.o)
 .text.__locale_mb_cur_max
                0x00000000        0xc /homes/skollbach/Downloads/ASE/gcc-arm-embedded/gcc-arm-none-eabi-4_8-2014q1/bin/../lib/gcc/arm-none-eabi/4.8.3/../../../../arm-none-eabi/lib/armv7-m/libc.a(lib_a-locale.o)
 .text.__locale_msgcharset
                0x00000000        0x8 /homes/skollbach/Downloads/ASE/gcc-arm-embedded/gcc-arm-none-eabi-4_8-2014q1/bin/../lib/gcc/arm-none-eabi/4.8.3/../../../../arm-none-eabi/lib/armv7-m/libc.a(lib_a-locale.o)
 .text.__locale_cjk_lang
                0x00000000        0x4 /homes/skollbach/Downloads/ASE/gcc-arm-embedded/gcc-arm-none-eabi-4_8-2014q1/bin/../lib/gcc/arm-none-eabi/4.8.3/../../../../arm-none-eabi/lib/armv7-m/libc.a(lib_a-locale.o)
 .text.setlocale
                0x00000000       0x10 /homes/skollbach/Downloads/ASE/gcc-arm-embedded/gcc-arm-none-eabi-4_8-2014q1/bin/../lib/gcc/arm-none-eabi/4.8.3/../../../../arm-none-eabi/lib/armv7-m/libc.a(lib_a-locale.o)
 .text.localeconv
                0x00000000        0x8 /homes/skollbach/Downloads/ASE/gcc-arm-embedded/gcc-arm-none-eabi-4_8-2014q1/bin/../lib/gcc/arm-none-eabi/4.8.3/../../../../arm-none-eabi/lib/armv7-m/libc.a(lib_a-locale.o)
 .data.lc_message_charset
                0x00000000       0x20 /homes/skollbach/Downloads/ASE/gcc-arm-embedded/gcc-arm-none-eabi-4_8-2014q1/bin/../lib/gcc/arm-none-eabi/4.8.3/../../../../arm-none-eabi/lib/armv7-m/libc.a(lib_a-locale.o)
 .bss._PathLocale
                0x00000000        0x4 /homes/skollbach/Downloads/ASE/gcc-arm-embedded/gcc-arm-none-eabi-4_8-2014q1/bin/../lib/gcc/arm-none-eabi/4.8.3/../../../../arm-none-eabi/lib/armv7-m/libc.a(lib_a-locale.o)
 .bss.__nlocale_changed
                0x00000000        0x4 /homes/skollbach/Downloads/ASE/gcc-arm-embedded/gcc-arm-none-eabi-4_8-2014q1/bin/../lib/gcc/arm-none-eabi/4.8.3/../../../../arm-none-eabi/lib/armv7-m/libc.a(lib_a-locale.o)
 .bss.__mlocale_changed
                0x00000000        0x4 /homes/skollbach/Downloads/ASE/gcc-arm-embedded/gcc-arm-none-eabi-4_8-2014q1/bin/../lib/gcc/arm-none-eabi/4.8.3/../../../../arm-none-eabi/lib/armv7-m/libc.a(lib_a-locale.o)
 .data.lc_ctype_charset
                0x00000000       0x20 /homes/skollbach/Downloads/ASE/gcc-arm-embedded/gcc-arm-none-eabi-4_8-2014q1/bin/../lib/gcc/arm-none-eabi/4.8.3/../../../../arm-none-eabi/lib/armv7-m/libc.a(lib_a-locale.o)
 .data.__mb_cur_max
                0x00000000        0x4 /homes/skollbach/Downloads/ASE/gcc-arm-embedded/gcc-arm-none-eabi-4_8-2014q1/bin/../lib/gcc/arm-none-eabi/4.8.3/../../../../arm-none-eabi/lib/armv7-m/libc.a(lib_a-locale.o)
 .text          0x00000000        0x0 /homes/skollbach/Downloads/ASE/gcc-arm-embedded/gcc-arm-none-eabi-4_8-2014q1/bin/../lib/gcc/arm-none-eabi/4.8.3/../../../../arm-none-eabi/lib/armv7-m/libc.a(lib_a-makebuf.o)
 .data          0x00000000        0x0 /homes/skollbach/Downloads/ASE/gcc-arm-embedded/gcc-arm-none-eabi-4_8-2014q1/bin/../lib/gcc/arm-none-eabi/4.8.3/../../../../arm-none-eabi/lib/armv7-m/libc.a(lib_a-makebuf.o)
 .bss           0x00000000        0x0 /homes/skollbach/Downloads/ASE/gcc-arm-embedded/gcc-arm-none-eabi-4_8-2014q1/bin/../lib/gcc/arm-none-eabi/4.8.3/../../../../arm-none-eabi/lib/armv7-m/libc.a(lib_a-makebuf.o)
 .text          0x00000000        0x0 /homes/skollbach/Downloads/ASE/gcc-arm-embedded/gcc-arm-none-eabi-4_8-2014q1/bin/../lib/gcc/arm-none-eabi/4.8.3/../../../../arm-none-eabi/lib/armv7-m/libc.a(lib_a-mprec.o)
 .data          0x00000000        0x0 /homes/skollbach/Downloads/ASE/gcc-arm-embedded/gcc-arm-none-eabi-4_8-2014q1/bin/../lib/gcc/arm-none-eabi/4.8.3/../../../../arm-none-eabi/lib/armv7-m/libc.a(lib_a-mprec.o)
 .bss           0x00000000        0x0 /homes/skollbach/Downloads/ASE/gcc-arm-embedded/gcc-arm-none-eabi-4_8-2014q1/bin/../lib/gcc/arm-none-eabi/4.8.3/../../../../arm-none-eabi/lib/armv7-m/libc.a(lib_a-mprec.o)
 .text.__s2b    0x00000000       0x98 /homes/skollbach/Downloads/ASE/gcc-arm-embedded/gcc-arm-none-eabi-4_8-2014q1/bin/../lib/gcc/arm-none-eabi/4.8.3/../../../../arm-none-eabi/lib/armv7-m/libc.a(lib_a-mprec.o)
 .text.__ulp    0x00000000       0x40 /homes/skollbach/Downloads/ASE/gcc-arm-embedded/gcc-arm-none-eabi-4_8-2014q1/bin/../lib/gcc/arm-none-eabi/4.8.3/../../../../arm-none-eabi/lib/armv7-m/libc.a(lib_a-mprec.o)
 .text.__b2d    0x00000000       0xb8 /homes/skollbach/Downloads/ASE/gcc-arm-embedded/gcc-arm-none-eabi-4_8-2014q1/bin/../lib/gcc/arm-none-eabi/4.8.3/../../../../arm-none-eabi/lib/armv7-m/libc.a(lib_a-mprec.o)
 .text.__ratio  0x00000000       0x50 /homes/skollbach/Downloads/ASE/gcc-arm-embedded/gcc-arm-none-eabi-4_8-2014q1/bin/../lib/gcc/arm-none-eabi/4.8.3/../../../../arm-none-eabi/lib/armv7-m/libc.a(lib_a-mprec.o)
 .text._mprec_log10
                0x00000000       0x34 /homes/skollbach/Downloads/ASE/gcc-arm-embedded/gcc-arm-none-eabi-4_8-2014q1/bin/../lib/gcc/arm-none-eabi/4.8.3/../../../../arm-none-eabi/lib/armv7-m/libc.a(lib_a-mprec.o)
 .text.__copybits
                0x00000000       0x48 /homes/skollbach/Downloads/ASE/gcc-arm-embedded/gcc-arm-none-eabi-4_8-2014q1/bin/../lib/gcc/arm-none-eabi/4.8.3/../../../../arm-none-eabi/lib/armv7-m/libc.a(lib_a-mprec.o)
 .text.__any_on
                0x00000000       0x60 /homes/skollbach/Downloads/ASE/gcc-arm-embedded/gcc-arm-none-eabi-4_8-2014q1/bin/../lib/gcc/arm-none-eabi/4.8.3/../../../../arm-none-eabi/lib/armv7-m/libc.a(lib_a-mprec.o)
 .rodata.__mprec_tinytens
                0x00000000       0x28 /homes/skollbach/Downloads/ASE/gcc-arm-embedded/gcc-arm-none-eabi-4_8-2014q1/bin/../lib/gcc/arm-none-eabi/4.8.3/../../../../arm-none-eabi/lib/armv7-m/libc.a(lib_a-mprec.o)
 .text          0x00000000        0x0 /homes/skollbach/Downloads/ASE/gcc-arm-embedded/gcc-arm-none-eabi-4_8-2014q1/bin/../lib/gcc/arm-none-eabi/4.8.3/../../../../arm-none-eabi/lib/armv7-m/libc.a(lib_a-s_fpclassify.o)
 .data          0x00000000        0x0 /homes/skollbach/Downloads/ASE/gcc-arm-embedded/gcc-arm-none-eabi-4_8-2014q1/bin/../lib/gcc/arm-none-eabi/4.8.3/../../../../arm-none-eabi/lib/armv7-m/libc.a(lib_a-s_fpclassify.o)
 .bss           0x00000000        0x0 /homes/skollbach/Downloads/ASE/gcc-arm-embedded/gcc-arm-none-eabi-4_8-2014q1/bin/../lib/gcc/arm-none-eabi/4.8.3/../../../../arm-none-eabi/lib/armv7-m/libc.a(lib_a-s_fpclassify.o)
 .text          0x00000000        0x0 /homes/skollbach/Downloads/ASE/gcc-arm-embedded/gcc-arm-none-eabi-4_8-2014q1/bin/../lib/gcc/arm-none-eabi/4.8.3/../../../../arm-none-eabi/lib/armv7-m/libc.a(lib_a-stdio.o)
 .data          0x00000000        0x0 /homes/skollbach/Downloads/ASE/gcc-arm-embedded/gcc-arm-none-eabi-4_8-2014q1/bin/../lib/gcc/arm-none-eabi/4.8.3/../../../../arm-none-eabi/lib/armv7-m/libc.a(lib_a-stdio.o)
 .bss           0x00000000        0x0 /homes/skollbach/Downloads/ASE/gcc-arm-embedded/gcc-arm-none-eabi-4_8-2014q1/bin/../lib/gcc/arm-none-eabi/4.8.3/../../../../arm-none-eabi/lib/armv7-m/libc.a(lib_a-stdio.o)
 .text.__seofread
                0x00000000        0x4 /homes/skollbach/Downloads/ASE/gcc-arm-embedded/gcc-arm-none-eabi-4_8-2014q1/bin/../lib/gcc/arm-none-eabi/4.8.3/../../../../arm-none-eabi/lib/armv7-m/libc.a(lib_a-stdio.o)
 .text          0x00000000        0x0 /homes/skollbach/Downloads/ASE/gcc-arm-embedded/gcc-arm-none-eabi-4_8-2014q1/bin/../lib/gcc/arm-none-eabi/4.8.3/../../../../arm-none-eabi/lib/armv7-m/libc.a(lib_a-svfiprintf.o)
 .data          0x00000000        0x0 /homes/skollbach/Downloads/ASE/gcc-arm-embedded/gcc-arm-none-eabi-4_8-2014q1/bin/../lib/gcc/arm-none-eabi/4.8.3/../../../../arm-none-eabi/lib/armv7-m/libc.a(lib_a-svfiprintf.o)
 .bss           0x00000000        0x0 /homes/skollbach/Downloads/ASE/gcc-arm-embedded/gcc-arm-none-eabi-4_8-2014q1/bin/../lib/gcc/arm-none-eabi/4.8.3/../../../../arm-none-eabi/lib/armv7-m/libc.a(lib_a-svfiprintf.o)
 .text._svfiprintf_r
                0x00000000      0xb3c /homes/skollbach/Downloads/ASE/gcc-arm-embedded/gcc-arm-none-eabi-4_8-2014q1/bin/../lib/gcc/arm-none-eabi/4.8.3/../../../../arm-none-eabi/lib/armv7-m/libc.a(lib_a-svfiprintf.o)
 .rodata.zeroes.6704
                0x00000000       0x10 /homes/skollbach/Downloads/ASE/gcc-arm-embedded/gcc-arm-none-eabi-4_8-2014q1/bin/../lib/gcc/arm-none-eabi/4.8.3/../../../../arm-none-eabi/lib/armv7-m/libc.a(lib_a-svfiprintf.o)
 .rodata.str1.4
                0x00000000       0x30 /homes/skollbach/Downloads/ASE/gcc-arm-embedded/gcc-arm-none-eabi-4_8-2014q1/bin/../lib/gcc/arm-none-eabi/4.8.3/../../../../arm-none-eabi/lib/armv7-m/libc.a(lib_a-svfiprintf.o)
 .rodata.blanks.6703
                0x00000000       0x10 /homes/skollbach/Downloads/ASE/gcc-arm-embedded/gcc-arm-none-eabi-4_8-2014q1/bin/../lib/gcc/arm-none-eabi/4.8.3/../../../../arm-none-eabi/lib/armv7-m/libc.a(lib_a-svfiprintf.o)
 .text          0x00000000        0x0 /homes/skollbach/Downloads/ASE/gcc-arm-embedded/gcc-arm-none-eabi-4_8-2014q1/bin/../lib/gcc/arm-none-eabi/4.8.3/../../../../arm-none-eabi/lib/armv7-m/libc.a(lib_a-callocr.o)
 .data          0x00000000        0x0 /homes/skollbach/Downloads/ASE/gcc-arm-embedded/gcc-arm-none-eabi-4_8-2014q1/bin/../lib/gcc/arm-none-eabi/4.8.3/../../../../arm-none-eabi/lib/armv7-m/libc.a(lib_a-callocr.o)
 .bss           0x00000000        0x0 /homes/skollbach/Downloads/ASE/gcc-arm-embedded/gcc-arm-none-eabi-4_8-2014q1/bin/../lib/gcc/arm-none-eabi/4.8.3/../../../../arm-none-eabi/lib/armv7-m/libc.a(lib_a-callocr.o)
 .text          0x00000000        0x0 /homes/skollbach/Downloads/ASE/gcc-arm-embedded/gcc-arm-none-eabi-4_8-2014q1/bin/../lib/gcc/arm-none-eabi/4.8.3/../../../../arm-none-eabi/lib/armv7-m/libc.a(lib_a-fclose.o)
 .data          0x00000000        0x0 /homes/skollbach/Downloads/ASE/gcc-arm-embedded/gcc-arm-none-eabi-4_8-2014q1/bin/../lib/gcc/arm-none-eabi/4.8.3/../../../../arm-none-eabi/lib/armv7-m/libc.a(lib_a-fclose.o)
 .bss           0x00000000        0x0 /homes/skollbach/Downloads/ASE/gcc-arm-embedded/gcc-arm-none-eabi-4_8-2014q1/bin/../lib/gcc/arm-none-eabi/4.8.3/../../../../arm-none-eabi/lib/armv7-m/libc.a(lib_a-fclose.o)
 .data          0x00000000        0x0 /homes/skollbach/Downloads/ASE/gcc-arm-embedded/gcc-arm-none-eabi-4_8-2014q1/bin/../lib/gcc/arm-none-eabi/4.8.3/armv7-m/libgcc.a(_arm_cmpdf2.o)
 .bss           0x00000000        0x0 /homes/skollbach/Downloads/ASE/gcc-arm-embedded/gcc-arm-none-eabi-4_8-2014q1/bin/../lib/gcc/arm-none-eabi/4.8.3/armv7-m/libgcc.a(_arm_cmpdf2.o)
 .data          0x00000000        0x0 /homes/skollbach/Downloads/ASE/gcc-arm-embedded/gcc-arm-none-eabi-4_8-2014q1/bin/../lib/gcc/arm-none-eabi/4.8.3/armv7-m/libgcc.a(_aeabi_uldivmod.o)
 .bss           0x00000000        0x0 /homes/skollbach/Downloads/ASE/gcc-arm-embedded/gcc-arm-none-eabi-4_8-2014q1/bin/../lib/gcc/arm-none-eabi/4.8.3/armv7-m/libgcc.a(_aeabi_uldivmod.o)
 .data          0x00000000        0x0 /homes/skollbach/Downloads/ASE/gcc-arm-embedded/gcc-arm-none-eabi-4_8-2014q1/bin/../lib/gcc/arm-none-eabi/4.8.3/armv7-m/libgcc.a(bpabi.o)
 .bss           0x00000000        0x0 /homes/skollbach/Downloads/ASE/gcc-arm-embedded/gcc-arm-none-eabi-4_8-2014q1/bin/../lib/gcc/arm-none-eabi/4.8.3/armv7-m/libgcc.a(bpabi.o)
 .data          0x00000000        0x0 /homes/skollbach/Downloads/ASE/gcc-arm-embedded/gcc-arm-none-eabi-4_8-2014q1/bin/../lib/gcc/arm-none-eabi/4.8.3/armv7-m/libgcc.a(_dvmd_tls.o)
 .bss           0x00000000        0x0 /homes/skollbach/Downloads/ASE/gcc-arm-embedded/gcc-arm-none-eabi-4_8-2014q1/bin/../lib/gcc/arm-none-eabi/4.8.3/armv7-m/libgcc.a(_dvmd_tls.o)
 .data          0x00000000        0x0 /homes/skollbach/Downloads/ASE/gcc-arm-embedded/gcc-arm-none-eabi-4_8-2014q1/bin/../lib/gcc/arm-none-eabi/4.8.3/armv7-m/libgcc.a(_divdi3.o)
 .bss           0x00000000        0x0 /homes/skollbach/Downloads/ASE/gcc-arm-embedded/gcc-arm-none-eabi-4_8-2014q1/bin/../lib/gcc/arm-none-eabi/4.8.3/armv7-m/libgcc.a(_divdi3.o)
 .ARM.extab     0x00000000        0x0 /homes/skollbach/Downloads/ASE/gcc-arm-embedded/gcc-arm-none-eabi-4_8-2014q1/bin/../lib/gcc/arm-none-eabi/4.8.3/armv7-m/libgcc.a(_divdi3.o)
 .data          0x00000000        0x0 /homes/skollbach/Downloads/ASE/gcc-arm-embedded/gcc-arm-none-eabi-4_8-2014q1/bin/../lib/gcc/arm-none-eabi/4.8.3/armv7-m/libgcc.a(_udivdi3.o)
 .bss           0x00000000        0x0 /homes/skollbach/Downloads/ASE/gcc-arm-embedded/gcc-arm-none-eabi-4_8-2014q1/bin/../lib/gcc/arm-none-eabi/4.8.3/armv7-m/libgcc.a(_udivdi3.o)
 .ARM.extab     0x00000000        0x0 /homes/skollbach/Downloads/ASE/gcc-arm-embedded/gcc-arm-none-eabi-4_8-2014q1/bin/../lib/gcc/arm-none-eabi/4.8.3/armv7-m/libgcc.a(_udivdi3.o)

Memory Configuration

Name             Origin             Length             Attributes
flash            0x08006000         0x0007a000
ram              0x20000000         0x00010000
*default*        0x00000000         0xffffffff

Linker script and memory map

LOAD build/obj/crt0.o
LOAD build/obj/vectors.o
LOAD build/obj/chcore.o
LOAD build/obj/chcore_v7m.o
LOAD build/obj/nvic.o
LOAD build/obj/chsys.o
LOAD build/obj/chdebug.o
LOAD build/obj/chlists.o
LOAD build/obj/chvt.o
LOAD build/obj/chschd.o
LOAD build/obj/chthreads.o
LOAD build/obj/chdynamic.o
LOAD build/obj/chregistry.o
LOAD build/obj/chsem.o
LOAD build/obj/chmtx.o
LOAD build/obj/chcond.o
LOAD build/obj/chevents.o
LOAD build/obj/chmsg.o
LOAD build/obj/chmboxes.o
LOAD build/obj/chqueues.o
LOAD build/obj/chmemcore.o
LOAD build/obj/chheap.o
LOAD build/obj/chmempools.o
LOAD build/obj/hal.o
LOAD build/obj/adc.o
LOAD build/obj/can.o
LOAD build/obj/ext.o
LOAD build/obj/gpt.o
LOAD build/obj/i2c.o
LOAD build/obj/icu.o
LOAD build/obj/mac.o
LOAD build/obj/mmc_spi.o
LOAD build/obj/mmcsd.o
LOAD build/obj/pal.o
LOAD build/obj/pwm.o
LOAD build/obj/rtc.o
LOAD build/obj/sdc.o
LOAD build/obj/serial.o
LOAD build/obj/serial_usb.o
LOAD build/obj/spi.o
LOAD build/obj/tm.o
LOAD build/obj/uart.o
LOAD build/obj/usb.o
LOAD build/obj/stm32_dma.o
LOAD build/obj/hal_lld.o
LOAD build/obj/adc_lld.o
LOAD build/obj/ext_lld_isr.o
LOAD build/obj/can_lld.o
LOAD build/obj/ext_lld.o
LOAD build/obj/mac_lld.o
LOAD build/obj/sdc_lld.o
LOAD build/obj/pal_lld.o
LOAD build/obj/i2c_lld.o
LOAD build/obj/rtc_lld.o
LOAD build/obj/spi_lld.o
LOAD build/obj/gpt_lld.o
LOAD build/obj/icu_lld.o
LOAD build/obj/pwm_lld.o
LOAD build/obj/serial_lld.o
LOAD build/obj/uart_lld.o
LOAD build/obj/usb_lld.o
LOAD build/obj/board.o
LOAD build/obj/evtimer.o
LOAD build/obj/syscalls.o
LOAD build/obj/chprintf.o
LOAD build/obj/shell.o
LOAD build/obj/memstreams.o
LOAD build/obj/stubs.o
LOAD build/obj/Debug.o
LOAD build/obj/ch.o
LOAD build/obj/Color.o
LOAD build/obj/HWSPIDriver.o
LOAD build/obj/HWI2CDriver.o
LOAD build/obj/tlc5947.o
LOAD build/obj/a2500r24a.o
LOAD build/obj/eeprom.o
LOAD build/obj/at24.o
LOAD build/obj/FileSystemInputOutputBase.o
LOAD build/obj/FSIOLightRing.o
LOAD build/obj/ControllerAreaNetworkRx.o
LOAD build/obj/ControllerAreaNetworkTx.o
LOAD build/obj/Lidar.o
LOAD build/obj/serial_can_mux.o
LOAD build/obj/LightRing.o
LOAD build/obj/userthread.o
LOAD build/obj/main.o
LOAD build/obj/exti.o
                0x00000400                __main_stack_size__ = 0x400
                0x00000400                __process_stack_size__ = 0x400
                0x20000000                __ram_start__ = ORIGIN (ram)
                0x00010000                __ram_size__ = 0x10000
                0x20010000                __ram_end__ = (__ram_start__ + __ram_size__)
                0x08006150                __crc_start__ = (ORIGIN (flash) + 0x150)
                0x00000000                . = 0x0
                0x00000000                _text = .

startup         0x08006000      0x130
 *(vectors)
 vectors        0x08006000      0x130 build/obj/vectors.o
                0x08006000                _vectors

crc             0x08006150        0x4
                0x08006150        0x4 LONG 0x55aa11ee

constructors    0x08006154       0x1c
                0x08006154                PROVIDE (__init_array_start, .)
 *(SORT(.init_array.*))
 *(.init_array)
 .init_array    0x08006154        0x4 build/obj/ControllerAreaNetworkRx.o
 .init_array    0x08006158        0x4 build/obj/ControllerAreaNetworkTx.o
 .init_array    0x0800615c        0x4 build/obj/Lidar.o
 .init_array    0x08006160        0x4 build/obj/serial_can_mux.o
 .init_array    0x08006164        0x4 build/obj/LightRing.o
 .init_array    0x08006168        0x4 build/obj/userthread.o
 .init_array    0x0800616c        0x4 build/obj/main.o
                0x08006170                PROVIDE (__init_array_end, .)

destructors     0x08006170        0x0
                0x08006170                PROVIDE (__fini_array_start, .)
 *(.fini_array)
 *(SORT(.fini_array.*))
                0x08006170                PROVIDE (__fini_array_end, .)

.text           0x08006170    0x18edc
 *(.text.startup.*)
 .text.startup._ZN10chibios_rt10BaseThread4mainEv
                0x08006170       0x10 build/obj/ch.o
                0x08006170                chibios_rt::BaseThread::main()
 .text.startup._ZN5amiro7TLC59474mainEv
                0x08006180      0x170 build/obj/tlc5947.o
                0x08006180                amiro::TLC5947::main()
 .text.startup._ZN5amiro9A2500R24A4mainEv
                0x080062f0       0x30 build/obj/a2500r24a.o
                0x080062f0                amiro::A2500R24A::main()
 .text.startup._ZN5amiro23ControllerAreaNetworkRx4mainEv
                0x08006320       0x90 build/obj/ControllerAreaNetworkRx.o
                0x08006320                amiro::ControllerAreaNetworkRx::main()
 .text.startup._GLOBAL__sub_I__ZN5amiro23ControllerAreaNetworkRxC2EP9CANDriverh
                0x080063b0       0x20 build/obj/ControllerAreaNetworkRx.o
 .text.startup._ZN5amiro23ControllerAreaNetworkTx4mainEv
                0x080063d0       0x80 build/obj/ControllerAreaNetworkTx.o
                0x080063d0                amiro::ControllerAreaNetworkTx::main()
 .text.startup._GLOBAL__sub_I__ZN5amiro23ControllerAreaNetworkTxC2EP9CANDriverh
                0x08006450       0x20 build/obj/ControllerAreaNetworkTx.o
 .text.startup._ZN5amiro5Lidar4mainEv
                0x08006470      0x130 build/obj/Lidar.o
                0x08006470                amiro::Lidar::main()
 .text.startup._GLOBAL__sub_I__ZN5amiro5Lidar11scannedDataE
                0x080065a0       0x20 build/obj/Lidar.o
 .text.startup._GLOBAL__sub_I__ZN5amiro12SerialCanMuxC2EP12SerialDriverP9CANDriverh
                0x080065c0       0x20 build/obj/serial_can_mux.o
 .text.startup._GLOBAL__sub_I__ZN5amiro9LightRingC2EP9CANDriverPNS_7TLC5947EPNS_12fileSystemIo13FSIOLightRingE
                0x080065e0       0x20 build/obj/LightRing.o
 .text.startup._ZN5amiro10UserThread4mainEv
                0x08006600       0x20 build/obj/userthread.o
                0x08006600                amiro::UserThread::main()
 .text.startup._GLOBAL__sub_I__ZN5amiro10UserThreadC2Ev
                0x08006620       0x20 build/obj/userthread.o
 .text.startup.main
                0x08006640      0x390 build/obj/main.o
                0x08006640                main
 .text.startup._GLOBAL__sub_I_global
                0x080069d0       0x40 build/obj/main.o
 *(.text)
 .text          0x08006a10     0x57a0 /homes/skollbach/Downloads/ASE/gcc-arm-embedded/gcc-arm-none-eabi-4_8-2014q1/bin/../lib/gcc/arm-none-eabi/4.8.3/../../../../arm-none-eabi/lib/armv7-m/libstdc++.a(cp-demangle.o)
                0x0800c0d0                __cxa_demangle
                0x0800c194                __gcclibcxx_demangle_callback
 .text          0x0800c1b0      0x370 /homes/skollbach/Downloads/ASE/gcc-arm-embedded/gcc-arm-none-eabi-4_8-2014q1/bin/../lib/gcc/arm-none-eabi/4.8.3/armv7-m/libgcc.a(_arm_addsubdf3.o)
                0x0800c1b0                __aeabi_drsub
                0x0800c1b8                __aeabi_dsub
                0x0800c1b8                __subdf3
                0x0800c1bc                __adddf3
                0x0800c1bc                __aeabi_dadd
                0x0800c434                __aeabi_ui2d
                0x0800c434                __floatunsidf
                0x0800c454                __floatsidf
                0x0800c454                __aeabi_i2d
                0x0800c478                __extendsfdf2
                0x0800c478                __aeabi_f2d
                0x0800c4b4                __aeabi_ul2d
                0x0800c4b4                __floatundidf
                0x0800c4c4                __floatdidf
                0x0800c4c4                __aeabi_l2d
 .text          0x0800c520      0x424 /homes/skollbach/Downloads/ASE/gcc-arm-embedded/gcc-arm-none-eabi-4_8-2014q1/bin/../lib/gcc/arm-none-eabi/4.8.3/armv7-m/libgcc.a(_arm_muldivdf3.o)
                0x0800c520                __aeabi_dmul
                0x0800c520                __muldf3
                0x0800c774                __aeabi_ddiv
                0x0800c774                __divdf3
 *fill*         0x0800c944        0xc 
 .text          0x0800c950       0x50 /homes/skollbach/Downloads/ASE/gcc-arm-embedded/gcc-arm-none-eabi-4_8-2014q1/bin/../lib/gcc/arm-none-eabi/4.8.3/armv7-m/libgcc.a(_arm_fixdfsi.o)
                0x0800c950                __fixdfsi
                0x0800c950                __aeabi_d2iz
 .text          0x0800c9a0       0xa0 /homes/skollbach/Downloads/ASE/gcc-arm-embedded/gcc-arm-none-eabi-4_8-2014q1/bin/../lib/gcc/arm-none-eabi/4.8.3/armv7-m/libgcc.a(_arm_truncdfsf2.o)
                0x0800c9a0                __aeabi_d2f
                0x0800c9a0                __truncdfsf2
 .text          0x0800ca40      0x21c /homes/skollbach/Downloads/ASE/gcc-arm-embedded/gcc-arm-none-eabi-4_8-2014q1/bin/../lib/gcc/arm-none-eabi/4.8.3/armv7-m/libgcc.a(_arm_addsubsf3.o)
                0x0800ca40                __aeabi_frsub
                0x0800ca48                __subsf3
                0x0800ca48                __aeabi_fsub
                0x0800ca4c                __aeabi_fadd
                0x0800ca4c                __addsf3
                0x0800cbac                __aeabi_ui2f
                0x0800cbac                __floatunsisf
                0x0800cbb4                __aeabi_i2f
                0x0800cbb4                __floatsisf
                0x0800cbd0                __floatundisf
                0x0800cbd0                __aeabi_ul2f
                0x0800cbe0                __floatdisf
                0x0800cbe0                __aeabi_l2f
 *fill*         0x0800cc5c        0x4 
 .text          0x0800cc60      0x2a0 /homes/skollbach/Downloads/ASE/gcc-arm-embedded/gcc-arm-none-eabi-4_8-2014q1/bin/../lib/gcc/arm-none-eabi/4.8.3/armv7-m/libgcc.a(_arm_muldivsf3.o)
                0x0800cc60                __mulsf3
                0x0800cc60                __aeabi_fmul
                0x0800cdc8                __divsf3
                0x0800cdc8                __aeabi_fdiv
 .text          0x0800cf00       0xec /homes/skollbach/Downloads/ASE/gcc-arm-embedded/gcc-arm-none-eabi-4_8-2014q1/bin/../lib/gcc/arm-none-eabi/4.8.3/armv7-m/libgcc.a(_arm_cmpsf2.o)
                0x0800cf00                __gtsf2
                0x0800cf00                __gesf2
                0x0800cf08                __lesf2
                0x0800cf08                __ltsf2
                0x0800cf10                __nesf2
                0x0800cf10                __eqsf2
                0x0800cf10                __cmpsf2
                0x0800cf70                __aeabi_cfrcmple
                0x0800cf78                __aeabi_cfcmple
                0x0800cf78                __aeabi_cfcmpeq
                0x0800cf88                __aeabi_fcmpeq
                0x0800cf9c                __aeabi_fcmplt
                0x0800cfb0                __aeabi_fcmple
                0x0800cfc4                __aeabi_fcmpge
                0x0800cfd8                __aeabi_fcmpgt
 *fill*         0x0800cfec        0x4 
 .text          0x0800cff0       0x4c /homes/skollbach/Downloads/ASE/gcc-arm-embedded/gcc-arm-none-eabi-4_8-2014q1/bin/../lib/gcc/arm-none-eabi/4.8.3/armv7-m/libgcc.a(_arm_fixsfsi.o)
                0x0800cff0                __fixsfsi
                0x0800cff0                __aeabi_f2iz
 *fill*         0x0800d03c        0x4 
 .text          0x0800d040      0xa28 /homes/skollbach/Downloads/ASE/gcc-arm-embedded/gcc-arm-none-eabi-4_8-2014q1/bin/../lib/gcc/arm-none-eabi/4.8.3/armv7-m/libgcc.a(unwind-arm.o)
                0x0800d324                _Unwind_GetCFA
                0x0800d328                __gnu_Unwind_RaiseException
                0x0800d388                __gnu_Unwind_ForcedUnwind
                0x0800d39c                __gnu_Unwind_Resume
                0x0800d3e0                __gnu_Unwind_Resume_or_Rethrow
                0x0800d3fc                _Unwind_Complete
                0x0800d400                _Unwind_DeleteException
                0x0800d410                _Unwind_VRS_Get
                0x0800d460                _Unwind_VRS_Set
                0x0800d4b0                __gnu_Unwind_Backtrace
                0x0800d804                __aeabi_unwind_cpp_pr0
                0x0800d80c                __aeabi_unwind_cpp_pr1
                0x0800d814                __aeabi_unwind_cpp_pr2
                0x0800d81c                _Unwind_VRS_Pop
 *fill*         0x0800da68        0x8 
 .text          0x0800da70      0x1ac /homes/skollbach/Downloads/ASE/gcc-arm-embedded/gcc-arm-none-eabi-4_8-2014q1/bin/../lib/gcc/arm-none-eabi/4.8.3/armv7-m/libgcc.a(libunwind.o)
                0x0800da70                __restore_core_regs
                0x0800da70                restore_core_regs
                0x0800da88                __gnu_Unwind_Restore_VFP
                0x0800da90                __gnu_Unwind_Save_VFP
                0x0800da98                __gnu_Unwind_Restore_VFP_D
                0x0800daa0                __gnu_Unwind_Save_VFP_D
                0x0800daa8                __gnu_Unwind_Restore_VFP_D_16_to_31
                0x0800dab0                __gnu_Unwind_Save_VFP_D_16_to_31
                0x0800dab8                __gnu_Unwind_Restore_WMMXD
                0x0800dafc                __gnu_Unwind_Save_WMMXD
                0x0800db40                __gnu_Unwind_Restore_WMMXC
                0x0800db54                __gnu_Unwind_Save_WMMXC
                0x0800db68                ___Unwind_RaiseException
                0x0800db68                _Unwind_RaiseException
                0x0800db8c                ___Unwind_Resume
                0x0800db8c                _Unwind_Resume
                0x0800dbb0                _Unwind_Resume_or_Rethrow
                0x0800dbb0                ___Unwind_Resume_or_Rethrow
                0x0800dbd4                ___Unwind_ForcedUnwind
                0x0800dbd4                _Unwind_ForcedUnwind
                0x0800dbf8                _Unwind_Backtrace
                0x0800dbf8                ___Unwind_Backtrace
 *fill*         0x0800dc1c        0x4 
 .text          0x0800dc20      0x33c /homes/skollbach/Downloads/ASE/gcc-arm-embedded/gcc-arm-none-eabi-4_8-2014q1/bin/../lib/gcc/arm-none-eabi/4.8.3/armv7-m/libgcc.a(pr-support.o)
                0x0800dc74                __gnu_unwind_execute
                0x0800df04                __gnu_unwind_frame
                0x0800df2c                _Unwind_GetRegionStart
                0x0800df38                _Unwind_GetLanguageSpecificData
                0x0800df4c                _Unwind_GetDataRelBase
                0x0800df54                _Unwind_GetTextRelBase
 *fill*         0x0800df5c        0x4 
 .text          0x0800df60       0xec /homes/skollbach/Downloads/ASE/gcc-arm-embedded/gcc-arm-none-eabi-4_8-2014q1/bin/../lib/gcc/arm-none-eabi/4.8.3/../../../../arm-none-eabi/lib/armv7-m/libc.a(lib_a-memcpy.o)
                0x0800df60                memcpy
 *fill*         0x0800e04c        0x4 
 .text          0x0800e050      0x23c /homes/skollbach/Downloads/ASE/gcc-arm-embedded/gcc-arm-none-eabi-4_8-2014q1/bin/../lib/gcc/arm-none-eabi/4.8.3/../../../../arm-none-eabi/lib/armv7-m/libc.a(lib_a-strcmp.o)
                0x0800e050                strcmp
 *fill*         0x0800e28c        0x4 
 .text          0x0800e290      0x110 /homes/skollbach/Downloads/ASE/gcc-arm-embedded/gcc-arm-none-eabi-4_8-2014q1/bin/../lib/gcc/arm-none-eabi/4.8.3/armv7-m/libgcc.a(_arm_cmpdf2.o)
                0x0800e290                __gtdf2
                0x0800e290                __gedf2
                0x0800e298                __ltdf2
                0x0800e298                __ledf2
                0x0800e2a0                __cmpdf2
                0x0800e2a0                __eqdf2
                0x0800e2a0                __nedf2
                0x0800e31c                __aeabi_cdrcmple
                0x0800e32c                __aeabi_cdcmple
                0x0800e32c                __aeabi_cdcmpeq
                0x0800e33c                __aeabi_dcmpeq
                0x0800e350                __aeabi_dcmplt
                0x0800e364                __aeabi_dcmple
                0x0800e378                __aeabi_dcmpge
                0x0800e38c                __aeabi_dcmpgt
 .text          0x0800e3a0       0x2c /homes/skollbach/Downloads/ASE/gcc-arm-embedded/gcc-arm-none-eabi-4_8-2014q1/bin/../lib/gcc/arm-none-eabi/4.8.3/armv7-m/libgcc.a(_aeabi_uldivmod.o)
                0x0800e3a0                __aeabi_uldivmod
 *fill*         0x0800e3cc        0x4 
 .text          0x0800e3d0       0x60 /homes/skollbach/Downloads/ASE/gcc-arm-embedded/gcc-arm-none-eabi-4_8-2014q1/bin/../lib/gcc/arm-none-eabi/4.8.3/armv7-m/libgcc.a(bpabi.o)
                0x0800e3d0                __gnu_ldivmod_helper
                0x0800e400                __gnu_uldivmod_helper
 .text          0x0800e430        0x4 /homes/skollbach/Downloads/ASE/gcc-arm-embedded/gcc-arm-none-eabi-4_8-2014q1/bin/../lib/gcc/arm-none-eabi/4.8.3/armv7-m/libgcc.a(_dvmd_tls.o)
                0x0800e430                __aeabi_ldiv0
                0x0800e430                __aeabi_idiv0
 *fill*         0x0800e434        0xc 
 .text          0x0800e440      0x2a0 /homes/skollbach/Downloads/ASE/gcc-arm-embedded/gcc-arm-none-eabi-4_8-2014q1/bin/../lib/gcc/arm-none-eabi/4.8.3/armv7-m/libgcc.a(_divdi3.o)
                0x0800e440                __divdi3
 .text          0x0800e6e0      0x290 /homes/skollbach/Downloads/ASE/gcc-arm-embedded/gcc-arm-none-eabi-4_8-2014q1/bin/../lib/gcc/arm-none-eabi/4.8.3/armv7-m/libgcc.a(_udivdi3.o)
                0x0800e6e0                __udivdi3
 *(.text.*)
 .text.__late_init
                0x0800e970       0x10 build/obj/crt0.o
                0x0800e970                __late_init
 .text._default_exit
                0x0800e980       0x10 build/obj/crt0.o
                0x0800e980                _default_exit
 .text.ResetHandler
                0x0800e990      0x100 build/obj/crt0.o
                0x0800e990                ResetHandler
 .text._unhandled_exception
                0x0800ea90       0x10 build/obj/vectors.o
                0x0800ea90                VectorAC
                0x0800ea90                NMIVector
                0x0800ea90                Vector11C
                0x0800ea90                VectorDC
                0x0800ea90                Vector110
                0x0800ea90                VectorA8
                0x0800ea90                VectorB4
                0x0800ea90                VectorEC
                0x0800ea90                UsageFaultVector
                0x0800ea90                DebugMonitorVector
                0x0800ea90                Vector40
                0x0800ea90                VectorF8
                0x0800ea90                Vector108
                0x0800ea90                VectorBC
                0x0800ea90                PendSVVector
                0x0800ea90                Vector118
                0x0800ea90                VectorCC
                0x0800ea90                Vector54
                0x0800ea90                Vector24
                0x0800ea90                BusFaultVector
                0x0800ea90                VectorD0
                0x0800ea90                VectorC0
                0x0800ea90                HardFaultVector
                0x0800ea90                VectorF0
                0x0800ea90                Vector100
                0x0800ea90                VectorF4
                0x0800ea90                MemManageVector
                0x0800ea90                VectorA0
                0x0800ea90                VectorB0
                0x0800ea90                Vector114
                0x0800ea90                Vector1C
                0x0800ea90                Vector48
                0x0800ea90                Vector4C
                0x0800ea90                _unhandled_exception
                0x0800ea90                Vector88
                0x0800ea90                Vector104
                0x0800ea90                Vector10C
                0x0800ea90                Vector50
                0x0800ea90                Vector28
                0x0800ea90                VectorB8
                0x0800ea90                VectorFC
                0x0800ea90                Vector34
                0x0800ea90                VectorA4
                0x0800ea90                Vector20
 .text.port_halt
                0x0800eaa0       0x10 build/obj/chcore.o
                0x0800eaa0                port_halt
 .text._port_switch_from_isr
                0x0800eab0       0x10 build/obj/chcore_v7m.o
                0x0800eab0                _port_switch_from_isr
 .text.SVCallVector
                0x0800eac0       0x20 build/obj/chcore_v7m.o
                0x0800eac0                SVCallVector
 .text._port_init
                0x0800eae0       0x40 build/obj/chcore_v7m.o
                0x0800eae0                _port_init
 .text._port_irq_epilogue
                0x0800eb20       0x70 build/obj/chcore_v7m.o
                0x0800eb20                _port_irq_epilogue
 .text.SysTickVector
                0x0800eb90       0x30 build/obj/chcore_v7m.o
                0x0800eb90                SysTickVector
 .text._port_switch
                0x0800ebc0       0x10 build/obj/chcore_v7m.o
                0x0800ebc0                _port_switch
 .text._port_thread_start
                0x0800ebd0       0x20 build/obj/chcore_v7m.o
                0x0800ebd0                _port_thread_start
 .text.nvicEnableVector
                0x0800ebf0       0x50 build/obj/nvic.o
                0x0800ebf0                nvicEnableVector
 .text.nvicDisableVector
                0x0800ec40       0x50 build/obj/nvic.o
                0x0800ec40                nvicDisableVector
 .text.nvicSetSystemHandlerPriority
                0x0800ec90       0x30 build/obj/nvic.o
                0x0800ec90                nvicSetSystemHandlerPriority
 .text._idle_thread
                0x0800ecc0       0x20 build/obj/chsys.o
                0x0800ecc0                _idle_thread
 .text.chSysInit
                0x0800ece0       0x80 build/obj/chsys.o
                0x0800ece0                chSysInit
 .text.chSysTimerHandlerI
                0x0800ed60       0x70 build/obj/chsys.o
                0x0800ed60                chSysTimerHandlerI
 .text.dbg_check_enable
                0x0800edd0       0x40 build/obj/chdebug.o
                0x0800edd0                dbg_check_enable
 .text.dbg_check_lock
                0x0800ee10       0x40 build/obj/chdebug.o
                0x0800ee10                dbg_check_lock
 .text.dbg_check_unlock
                0x0800ee50       0x40 build/obj/chdebug.o
                0x0800ee50                dbg_check_unlock
 .text.dbg_check_lock_from_isr
                0x0800ee90       0x40 build/obj/chdebug.o
                0x0800ee90                dbg_check_lock_from_isr
 .text.dbg_check_unlock_from_isr
                0x0800eed0       0x40 build/obj/chdebug.o
                0x0800eed0                dbg_check_unlock_from_isr
 .text.dbg_check_enter_isr
                0x0800ef10       0x50 build/obj/chdebug.o
                0x0800ef10                dbg_check_enter_isr
 .text.dbg_check_leave_isr
                0x0800ef60       0x50 build/obj/chdebug.o
                0x0800ef60                dbg_check_leave_isr
 .text.chDbgCheckClassI
                0x0800efb0       0x40 build/obj/chdebug.o
                0x0800efb0                chDbgCheckClassI
 .text.chDbgCheckClassS
                0x0800eff0       0x40 build/obj/chdebug.o
                0x0800eff0                chDbgCheckClassS
 .text._trace_init
                0x0800f030       0x20 build/obj/chdebug.o
                0x0800f030                _trace_init
 .text.dbg_trace
                0x0800f050       0x50 build/obj/chdebug.o
                0x0800f050                dbg_trace
 .text.chDbgPanic
                0x0800f0a0       0x20 build/obj/chdebug.o
                0x0800f0a0                chDbgPanic
 .text._vt_init
                0x0800f0c0       0x20 build/obj/chvt.o
                0x0800f0c0                _vt_init
 .text.chVTSetI
                0x0800f0e0       0x60 build/obj/chvt.o
                0x0800f0e0                chVTSetI
 .text.chVTResetI
                0x0800f140       0x50 build/obj/chvt.o
                0x0800f140                chVTResetI
 .text._scheduler_init
                0x0800f190       0x20 build/obj/chschd.o
                0x0800f190                _scheduler_init
 .text.chSchReadyI
                0x0800f1b0       0x50 build/obj/chschd.o
                0x0800f1b0                chSchReadyI
 .text.wakeup   0x0800f200       0x60 build/obj/chschd.o
 .text.chSchGoSleepS
                0x0800f260       0x50 build/obj/chschd.o
                0x0800f260                chSchGoSleepS
 .text.chSchGoSleepTimeoutS
                0x0800f2b0       0x50 build/obj/chschd.o
                0x0800f2b0                chSchGoSleepTimeoutS
 .text.chSchWakeupS
                0x0800f300       0x70 build/obj/chschd.o
                0x0800f300                chSchWakeupS
 .text.chSchDoRescheduleBehind
                0x0800f370       0x50 build/obj/chschd.o
                0x0800f370                chSchDoRescheduleBehind
 .text.chSchDoRescheduleAhead
                0x0800f3c0       0x60 build/obj/chschd.o
                0x0800f3c0                chSchDoRescheduleAhead
 .text.chSchRescheduleS
                0x0800f420       0x30 build/obj/chschd.o
                0x0800f420                chSchRescheduleS
 .text.chSchDoReschedule
                0x0800f450       0x20 build/obj/chschd.o
                0x0800f450                chSchDoReschedule
 .text._thread_init
                0x0800f470       0x60 build/obj/chthreads.o
                0x0800f470                _thread_init
 .text.chThdCreateI
                0x0800f4d0       0xa0 build/obj/chthreads.o
                0x0800f4d0                chThdCreateI
 .text.chThdCreateStatic
                0x0800f570       0x50 build/obj/chthreads.o
                0x0800f570                chThdCreateStatic
 .text.chThdTerminate
                0x0800f5c0       0x30 build/obj/chthreads.o
                0x0800f5c0                chThdTerminate
 .text.chThdSleep
                0x0800f5f0       0x30 build/obj/chthreads.o
                0x0800f5f0                chThdSleep
 .text.chThdExitS
                0x0800f620       0x50 build/obj/chthreads.o
                0x0800f620                chThdExitS
 .text.chThdExit
                0x0800f670       0x20 build/obj/chthreads.o
                0x0800f670                chThdExit
 .text.chThdWait
                0x0800f690       0x80 build/obj/chthreads.o
                0x0800f690                chThdWait
 .text.chThdRelease
                0x0800f710       0x80 build/obj/chdynamic.o
                0x0800f710                chThdRelease
 .text.chThdCreateFromHeap
                0x0800f790       0x50 build/obj/chdynamic.o
                0x0800f790                chThdCreateFromHeap
 .text.chSemInit
                0x0800f7e0       0x30 build/obj/chsem.o
                0x0800f7e0                chSemInit
 .text.chSemResetI
                0x0800f810       0x60 build/obj/chsem.o
                0x0800f810                chSemResetI
 .text.chSemWaitTimeoutS
                0x0800f870       0x80 build/obj/chsem.o
                0x0800f870                chSemWaitTimeoutS
 .text.chSemSignalI
                0x0800f8f0       0x60 build/obj/chsem.o
                0x0800f8f0                chSemSignalI
 .text.chMtxInit
                0x0800f950       0x20 build/obj/chmtx.o
                0x0800f950                chMtxInit
 .text.chMtxLockS
                0x0800f970      0x100 build/obj/chmtx.o
                0x0800f970                chMtxLockS
 .text.chMtxLock
                0x0800fa70       0x20 build/obj/chmtx.o
                0x0800fa70                chMtxLock
 .text.chMtxUnlock
                0x0800fa90       0x90 build/obj/chmtx.o
                0x0800fa90                chMtxUnlock
 .text.chEvtRegisterMask
                0x0800fb20       0x50 build/obj/chevents.o
                0x0800fb20                chEvtRegisterMask
 .text.chEvtUnregister
                0x0800fb70       0x50 build/obj/chevents.o
                0x0800fb70                chEvtUnregister
 .text.chEvtSignalI
                0x0800fbc0       0x50 build/obj/chevents.o
                0x0800fbc0                chEvtSignalI
 .text.chEvtBroadcastFlagsI
                0x0800fc10       0x40 build/obj/chevents.o
                0x0800fc10                chEvtBroadcastFlagsI
 .text.chEvtSignal
                0x0800fc50       0x40 build/obj/chevents.o
                0x0800fc50                chEvtSignal
 .text.chEvtBroadcastFlags
                0x0800fc90       0x30 build/obj/chevents.o
                0x0800fc90                chEvtBroadcastFlags
 .text.chEvtWaitOne
                0x0800fcc0       0x50 build/obj/chevents.o
                0x0800fcc0                chEvtWaitOne
 .text.chEvtWaitAny
                0x0800fd10       0x40 build/obj/chevents.o
                0x0800fd10                chEvtWaitAny
 .text.chEvtWaitOneTimeout
                0x0800fd50       0x70 build/obj/chevents.o
                0x0800fd50                chEvtWaitOneTimeout
 .text.chEvtWaitAnyTimeout
                0x0800fdc0       0x70 build/obj/chevents.o
                0x0800fdc0                chEvtWaitAnyTimeout
 .text.qwait    0x0800fe30       0x30 build/obj/chqueues.o
 .text.chIQInit
                0x0800fe60       0x20 build/obj/chqueues.o
                0x0800fe60                chIQInit
 .text.chIQResetI
                0x0800fe80       0x30 build/obj/chqueues.o
                0x0800fe80                chIQResetI
 .text.chIQPutI
                0x0800feb0       0x60 build/obj/chqueues.o
                0x0800feb0                chIQPutI
 .text.chIQGetTimeout
                0x0800ff10       0x70 build/obj/chqueues.o
                0x0800ff10                chIQGetTimeout
 .text.chIQReadTimeout
                0x0800ff80       0xa0 build/obj/chqueues.o
                0x0800ff80                chIQReadTimeout
 .text.chOQInit
                0x08010020       0x20 build/obj/chqueues.o
                0x08010020                chOQInit
 .text.chOQResetI
                0x08010040       0x40 build/obj/chqueues.o
                0x08010040                chOQResetI
 .text.chOQPutTimeout
                0x08010080       0x70 build/obj/chqueues.o
                0x08010080                chOQPutTimeout
 .text.chOQGetI
                0x080100f0       0x50 build/obj/chqueues.o
                0x080100f0                chOQGetI
 .text.chOQWriteTimeout
                0x08010140       0xa0 build/obj/chqueues.o
                0x08010140                chOQWriteTimeout
 .text._core_init
                0x080101e0       0x30 build/obj/chmemcore.o
                0x080101e0                _core_init
 .text.chCoreAllocI
                0x08010210       0x30 build/obj/chmemcore.o
                0x08010210                chCoreAllocI
 .text.chCoreAlloc
                0x08010240       0x30 build/obj/chmemcore.o
                0x08010240                chCoreAlloc
 .text.chCoreStatus
                0x08010270       0x20 build/obj/chmemcore.o
                0x08010270                chCoreStatus
 .text._heap_init
                0x08010290       0x20 build/obj/chheap.o
                0x08010290                _heap_init
 .text.chHeapAlloc
                0x080102b0       0x80 build/obj/chheap.o
                0x080102b0                chHeapAlloc
 .text.chHeapFree
                0x08010330       0xd0 build/obj/chheap.o
                0x08010330                chHeapFree
 .text.chPoolFreeI
                0x08010400       0x30 build/obj/chmempools.o
                0x08010400                chPoolFreeI
 .text.chPoolFree
                0x08010430       0x30 build/obj/chmempools.o
                0x08010430                chPoolFree
 .text.halInit  0x08010460       0x30 build/obj/hal.o
                0x08010460                halInit
 .text.canInit  0x08010490       0x10 build/obj/can.o
                0x08010490                canInit
 .text.canObjectInit
                0x080104a0       0x40 build/obj/can.o
                0x080104a0                canObjectInit
 .text.canStart
                0x080104e0       0x70 build/obj/can.o
                0x080104e0                canStart
 .text.canStop  0x08010550       0x60 build/obj/can.o
                0x08010550                canStop
 .text.canTransmit
                0x080105b0       0xa0 build/obj/can.o
                0x080105b0                canTransmit
 .text.canReceive
                0x08010650       0x90 build/obj/can.o
                0x08010650                canReceive
 .text.extInit  0x080106e0       0x10 build/obj/ext.o
                0x080106e0                extInit
 .text.extObjectInit
                0x080106f0       0x10 build/obj/ext.o
                0x080106f0                extObjectInit
 .text.extStart
                0x08010700       0x50 build/obj/ext.o
                0x08010700                extStart
 .text.i2cInit  0x08010750       0x10 build/obj/i2c.o
                0x08010750                i2cInit
 .text.i2cObjectInit
                0x08010760       0x10 build/obj/i2c.o
                0x08010760                i2cObjectInit
 .text.i2cStart
                0x08010770       0x50 build/obj/i2c.o
                0x08010770                i2cStart
 .text.i2cStop  0x080107c0       0x50 build/obj/i2c.o
                0x080107c0                i2cStop
 .text.i2cGetErrors
                0x08010810       0x20 build/obj/i2c.o
                0x08010810                i2cGetErrors
 .text.i2cMasterTransmitTimeout
                0x08010830       0x90 build/obj/i2c.o
                0x08010830                i2cMasterTransmitTimeout
 .text.i2cMasterReceiveTimeout
                0x080108c0       0x80 build/obj/i2c.o
                0x080108c0                i2cMasterReceiveTimeout
 .text.i2cAcquireBus
                0x08010940       0x30 build/obj/i2c.o
                0x08010940                i2cAcquireBus
 .text.i2cReleaseBus
                0x08010970       0x20 build/obj/i2c.o
                0x08010970                i2cReleaseBus
 .text.readt    0x08010990       0x10 build/obj/serial.o
 .text.read     0x080109a0       0x10 build/obj/serial.o
 .text.writet   0x080109b0       0x10 build/obj/serial.o
 .text.write    0x080109c0       0x10 build/obj/serial.o
 .text.gett     0x080109d0       0x10 build/obj/serial.o
 .text.get      0x080109e0       0x10 build/obj/serial.o
 .text.putt     0x080109f0       0x10 build/obj/serial.o
 .text.put      0x08010a00       0x10 build/obj/serial.o
 .text.sdInit   0x08010a10       0x10 build/obj/serial.o
                0x08010a10                sdInit
 .text.sdObjectInit
                0x08010a20       0x40 build/obj/serial.o
                0x08010a20                sdObjectInit
 .text.sdStart  0x08010a60       0x50 build/obj/serial.o
                0x08010a60                sdStart
 .text.sdStop   0x08010ab0       0x60 build/obj/serial.o
                0x08010ab0                sdStop
 .text.sdIncomingDataI
                0x08010b10       0x50 build/obj/serial.o
                0x08010b10                sdIncomingDataI
 .text.spiInit  0x08010b60       0x10 build/obj/spi.o
                0x08010b60                spiInit
 .text.spiObjectInit
                0x08010b70       0x10 build/obj/spi.o
                0x08010b70                spiObjectInit
 .text.spiStart
                0x08010b80       0x50 build/obj/spi.o
                0x08010b80                spiStart
 .text.spiSelect
                0x08010bd0       0x40 build/obj/spi.o
                0x08010bd0                spiSelect
 .text.spiUnselect
                0x08010c10       0x40 build/obj/spi.o
                0x08010c10                spiUnselect
 .text.spiExchange
                0x08010c50       0x90 build/obj/spi.o
                0x08010c50                spiExchange
 .text.spiSend  0x08010ce0       0x80 build/obj/spi.o
                0x08010ce0                spiSend
 .text.spiAcquireBus
                0x08010d60       0x30 build/obj/spi.o
                0x08010d60                spiAcquireBus
 .text.spiReleaseBus
                0x08010d90       0x20 build/obj/spi.o
                0x08010d90                spiReleaseBus
 .text.tm_start
                0x08010db0       0x10 build/obj/tm.o
 .text.tm_stop  0x08010dc0       0x30 build/obj/tm.o
 .text.tmInit   0x08010df0       0x40 build/obj/tm.o
                0x08010df0                tmInit
 .text.Vector6C
                0x08010e30       0x30 build/obj/stm32_dma.o
                0x08010e30                Vector6C
 .text.Vector70
                0x08010e60       0x30 build/obj/stm32_dma.o
                0x08010e60                Vector70
 .text.Vector74
                0x08010e90       0x30 build/obj/stm32_dma.o
                0x08010e90                Vector74
 .text.Vector78
                0x08010ec0       0x30 build/obj/stm32_dma.o
                0x08010ec0                Vector78
 .text.Vector7C
                0x08010ef0       0x30 build/obj/stm32_dma.o
                0x08010ef0                Vector7C
 .text.Vector80
                0x08010f20       0x30 build/obj/stm32_dma.o
                0x08010f20                Vector80
 .text.Vector84
                0x08010f50       0x30 build/obj/stm32_dma.o
                0x08010f50                Vector84
 .text.Vector120
                0x08010f80       0x30 build/obj/stm32_dma.o
                0x08010f80                Vector120
 .text.Vector124
                0x08010fb0       0x30 build/obj/stm32_dma.o
                0x08010fb0                Vector124
 .text.Vector128
                0x08010fe0       0x30 build/obj/stm32_dma.o
                0x08010fe0                Vector128
 .text.Vector12C
                0x08011010       0x50 build/obj/stm32_dma.o
                0x08011010                Vector12C
 .text.dmaInit  0x08011060       0x50 build/obj/stm32_dma.o
                0x08011060                dmaInit
 .text.dmaStreamAllocate
                0x080110b0       0xb0 build/obj/stm32_dma.o
                0x080110b0                dmaStreamAllocate
 .text.hal_lld_init
                0x08011160       0x70 build/obj/hal_lld.o
                0x08011160                hal_lld_init
 .text.stm32_clock_init
                0x080111d0       0x90 build/obj/hal_lld.o
                0x080111d0                stm32_clock_init
 .text.Vector58
                0x08011260       0x30 build/obj/ext_lld_isr.o
                0x08011260                Vector58
 .text.Vector5C
                0x08011290       0x30 build/obj/ext_lld_isr.o
                0x08011290                Vector5C
 .text.Vector60
                0x080112c0       0x30 build/obj/ext_lld_isr.o
                0x080112c0                Vector60
 .text.Vector64
                0x080112f0       0x30 build/obj/ext_lld_isr.o
                0x080112f0                Vector64
 .text.Vector68
                0x08011320       0x30 build/obj/ext_lld_isr.o
                0x08011320                Vector68
 .text.Vector9C
                0x08011350       0x80 build/obj/ext_lld_isr.o
                0x08011350                Vector9C
 .text.VectorE0
                0x080113d0       0x90 build/obj/ext_lld_isr.o
                0x080113d0                VectorE0
 .text.Vector44
                0x08011460       0x30 build/obj/ext_lld_isr.o
                0x08011460                Vector44
 .text.VectorE4
                0x08011490       0x30 build/obj/ext_lld_isr.o
                0x08011490                VectorE4
 .text.VectorE8
                0x080114c0       0x30 build/obj/ext_lld_isr.o
                0x080114c0                VectorE8
 .text.ext_lld_exti_irq_enable
                0x080114f0       0x60 build/obj/ext_lld_isr.o
                0x080114f0                ext_lld_exti_irq_enable
 .text.can_lld_set_filters
                0x08011550      0x110 build/obj/can_lld.o
 .text.Vector8C
                0x08011660       0x60 build/obj/can_lld.o
                0x08011660                Vector8C
 .text.Vector90
                0x080116c0       0x90 build/obj/can_lld.o
                0x080116c0                Vector90
 .text.Vector94
                0x08011750       0x90 build/obj/can_lld.o
                0x08011750                Vector94
 .text.Vector98
                0x080117e0       0x90 build/obj/can_lld.o
                0x080117e0                Vector98
 .text.can_lld_init
                0x08011870       0x30 build/obj/can_lld.o
                0x08011870                can_lld_init
 .text.can_lld_start
                0x080118a0       0x80 build/obj/can_lld.o
                0x080118a0                can_lld_start
 .text.can_lld_stop
                0x08011920       0x50 build/obj/can_lld.o
                0x08011920                can_lld_stop
 .text.can_lld_is_tx_empty
                0x08011970       0x40 build/obj/can_lld.o
                0x08011970                can_lld_is_tx_empty
 .text.can_lld_transmit
                0x080119b0       0x80 build/obj/can_lld.o
                0x080119b0                can_lld_transmit
 .text.can_lld_is_rx_nonempty
                0x08011a30       0x40 build/obj/can_lld.o
                0x08011a30                can_lld_is_rx_nonempty
 .text.can_lld_receive
                0x08011a70       0xd0 build/obj/can_lld.o
                0x08011a70                can_lld_receive
 .text.ext_lld_init
                0x08011b40       0x10 build/obj/ext_lld.o
                0x08011b40                ext_lld_init
 .text.ext_lld_channel_enable
                0x08011b50       0x90 build/obj/ext_lld.o
                0x08011b50                ext_lld_channel_enable
 .text.ext_lld_channel_disable
                0x08011be0       0x30 build/obj/ext_lld.o
                0x08011be0                ext_lld_channel_disable
 .text.ext_lld_start
                0x08011c10       0x40 build/obj/ext_lld.o
                0x08011c10                ext_lld_start
 .text._pal_lld_init
                0x08011c50       0xa0 build/obj/pal_lld.o
                0x08011c50                _pal_lld_init
 .text._pal_lld_setgroupmode
                0x08011cf0       0x70 build/obj/pal_lld.o
                0x08011cf0                _pal_lld_setgroupmode
 .text.i2c_lld_safety_timeout
                0x08011d60       0x40 build/obj/i2c_lld.o
 .text.VectorC4
                0x08011da0      0x270 build/obj/i2c_lld.o
                0x08011da0                VectorC4
 .text.VectorC8
                0x08012010       0xd0 build/obj/i2c_lld.o
                0x08012010                VectorC8
 .text.i2c_lld_init
                0x080120e0       0x20 build/obj/i2c_lld.o
                0x080120e0                i2c_lld_init
 .text.i2c_lld_start
                0x08012100      0x200 build/obj/i2c_lld.o
                0x08012100                i2c_lld_start
 .text.i2c_lld_stop
                0x08012300       0x40 build/obj/i2c_lld.o
                0x08012300                i2c_lld_stop
 .text.i2c_lld_master_receive_timeout
                0x08012340      0x100 build/obj/i2c_lld.o
                0x08012340                i2c_lld_master_receive_timeout
 .text.i2c_lld_master_transmit_timeout
                0x08012440      0x110 build/obj/i2c_lld.o
                0x08012440                i2c_lld_master_transmit_timeout
 .text.spi_lld_serve_tx_interrupt
                0x08012550       0x20 build/obj/spi_lld.o
 .text.spi_lld_serve_rx_interrupt
                0x08012570       0x80 build/obj/spi_lld.o
 .text.spi_lld_init
                0x080125f0       0x70 build/obj/spi_lld.o
                0x080125f0                spi_lld_init
 .text.spi_lld_start
                0x08012660      0x100 build/obj/spi_lld.o
                0x08012660                spi_lld_start
 .text.spi_lld_select
                0x08012760       0x10 build/obj/spi_lld.o
                0x08012760                spi_lld_select
 .text.spi_lld_unselect
                0x08012770       0x10 build/obj/spi_lld.o
                0x08012770                spi_lld_unselect
 .text.spi_lld_exchange
                0x08012780       0x40 build/obj/spi_lld.o
                0x08012780                spi_lld_exchange
 .text.spi_lld_send
                0x080127c0       0x40 build/obj/spi_lld.o
                0x080127c0                spi_lld_send
 .text.notify1  0x08012800       0x20 build/obj/serial_lld.o
 .text.notify2  0x08012820       0x20 build/obj/serial_lld.o
 .text.serve_interrupt
                0x08012840      0x150 build/obj/serial_lld.o
 .text.VectorD4
                0x08012990       0x20 build/obj/serial_lld.o
                0x08012990                VectorD4
 .text.VectorD8
                0x080129b0       0x20 build/obj/serial_lld.o
                0x080129b0                VectorD8
 .text.sd_lld_init
                0x080129d0       0x40 build/obj/serial_lld.o
                0x080129d0                sd_lld_init
 .text.sd_lld_start
                0x08012a10       0xa0 build/obj/serial_lld.o
                0x08012a10                sd_lld_start
 .text.sd_lld_stop
                0x08012ab0       0x50 build/obj/serial_lld.o
                0x08012ab0                sd_lld_stop
 .text.__early_init
                0x08012b00       0x10 build/obj/board.o
                0x08012b00                __early_init
 .text.boardInit
                0x08012b10       0x10 build/obj/board.o
                0x08012b10                boardInit
 .text.boardClearI2CBus
                0x08012b20       0xe0 build/obj/board.o
                0x08012b20                boardClearI2CBus
 .text.tmrcb    0x08012c00       0x40 build/obj/evtimer.o
 .text.evtStart
                0x08012c40       0x40 build/obj/evtimer.o
                0x08012c40                evtStart
 .text.evtStop  0x08012c80       0x30 build/obj/evtimer.o
                0x08012c80                evtStop
 .text._read_r  0x08012cb0       0x10 build/obj/syscalls.o
                0x08012cb0                _read_r
 .text._lseek_r
                0x08012cc0       0x10 build/obj/syscalls.o
                0x08012cc0                _lseek_r
 .text._write_r
                0x08012cd0       0x10 build/obj/syscalls.o
                0x08012cd0                _write_r
 .text._close_r
                0x08012ce0       0x10 build/obj/syscalls.o
                0x08012ce0                _close_r
 .text._sbrk_r  0x08012cf0       0x30 build/obj/syscalls.o
                0x08012cf0                _sbrk_r
 .text._fstat_r
                0x08012d20       0x20 build/obj/syscalls.o
                0x08012d20                _fstat_r
 .text._isatty_r
                0x08012d40       0x10 build/obj/syscalls.o
                0x08012d40                _isatty_r
 .text.long_to_string_with_divisor
                0x08012d50       0x50 build/obj/chprintf.o
 .text.chvprintf
                0x08012da0      0x350 build/obj/chprintf.o
                0x08012da0                chvprintf
 .text.chprintf
                0x080130f0       0x20 build/obj/shell.o
 .text.cmd_systime
                0x08013110       0x30 build/obj/shell.o
 .text.cmd_info
                0x08013140       0xc0 build/obj/shell.o
 .text._strtok.constprop.2
                0x08013200       0x40 build/obj/shell.o
 .text.shellExit
                0x08013240       0x30 build/obj/shell.o
                0x08013240                shellExit
 .text.shellCreate
                0x08013270       0x20 build/obj/shell.o
                0x08013270                shellCreate
 .text.shellGetLine
                0x08013290       0xa0 build/obj/shell.o
                0x08013290                shellGetLine
 .text.shell_thread
                0x08013330      0x1a0 build/obj/shell.o
 .text._getpid  0x080134d0       0x10 build/obj/stubs.o
                0x080134d0                _getpid
 .text._exit    0x080134e0       0x10 build/obj/stubs.o
                0x080134e0                _exit
 .text._kill    0x080134f0       0x10 build/obj/stubs.o
                0x080134f0                _kill
 .text.haltErrorCode
                0x08013500       0xb0 build/obj/Debug.o
                0x08013500                haltErrorCode
 .text._ZN10chibios_rt10BaseThread5startEm
                0x080135b0       0x10 build/obj/ch.o
                0x080135b0                chibios_rt::BaseThread::start(unsigned long)
 .text._ZN10chibios_rt15ThreadReference4stopEv
                0x080135c0       0x10 build/obj/ch.o
                0x080135c0                chibios_rt::ThreadReference::stop()
 .text._ZN10chibios_rt6System4initEv
                0x080135d0       0x10 build/obj/ch.o
                0x080135d0                chibios_rt::System::init()
 .text._ZN10chibios_rt15ThreadReference16requestTerminateEv
                0x080135e0       0x30 build/obj/ch.o
                0x080135e0                chibios_rt::ThreadReference::requestTerminate()
 .text._ZN10chibios_rt15ThreadReference4waitEv
                0x08013610       0x30 build/obj/ch.o
                0x08013610                chibios_rt::ThreadReference::wait()
 .text._ZN10chibios_rt15ThreadReference12signalEventsEm
                0x08013640       0x30 build/obj/ch.o
                0x08013640                chibios_rt::ThreadReference::signalEvents(unsigned long)
 .text._ZN10chibios_rt10BaseThreadC2Ev
                0x08013670       0x10 build/obj/ch.o
                0x08013670                chibios_rt::BaseThread::BaseThread()
                0x08013670                chibios_rt::BaseThread::BaseThread()
 .text._ZN10chibios_rt10_thd_startEPv
                0x08013680       0x10 build/obj/ch.o
                0x08013680                chibios_rt::_thd_start(void*)
 .text._ZN10chibios_rt10BaseThread7setNameEPKc
                0x08013690       0x10 build/obj/ch.o
                0x08013690                chibios_rt::BaseThread::setName(char const*)
 .text._ZN10chibios_rt10BaseThread15shouldTerminateEv
                0x080136a0       0x20 build/obj/ch.o
                0x080136a0                chibios_rt::BaseThread::shouldTerminate()
 .text._ZN10chibios_rt10BaseThread5sleepEm
                0x080136c0       0x10 build/obj/ch.o
                0x080136c0                chibios_rt::BaseThread::sleep(unsigned long)
 .text._ZN10chibios_rt10BaseThread12waitOneEventEm
                0x080136d0       0x10 build/obj/ch.o
                0x080136d0                chibios_rt::BaseThread::waitOneEvent(unsigned long)
 .text._ZN10chibios_rt10BaseThread12waitAnyEventEm
                0x080136e0       0x10 build/obj/ch.o
                0x080136e0                chibios_rt::BaseThread::waitAnyEvent(unsigned long)
 .text._ZN10chibios_rt10BaseThread19waitOneEventTimeoutEmm
                0x080136f0       0x10 build/obj/ch.o
                0x080136f0                chibios_rt::BaseThread::waitOneEventTimeout(unsigned long, unsigned long)
 .text._ZN10chibios_rt10BaseThread19waitAnyEventTimeoutEmm
                0x08013700       0x10 build/obj/ch.o
                0x08013700                chibios_rt::BaseThread::waitAnyEventTimeout(unsigned long, unsigned long)
 .text._ZN10chibios_rt9EvtSourceC2Ev
                0x08013710       0x10 build/obj/ch.o
                0x08013710                chibios_rt::EvtSource::EvtSource()
                0x08013710                chibios_rt::EvtSource::EvtSource()
 .text._ZN10chibios_rt9EvtSource11registerOneEPNS_11EvtListenerEl
                0x08013720       0x10 build/obj/ch.o
                0x08013720                chibios_rt::EvtSource::registerOne(chibios_rt::EvtListener*, long)
 .text._ZN10chibios_rt9EvtSource10unregisterEPNS_11EvtListenerE
                0x08013730       0x10 build/obj/ch.o
                0x08013730                chibios_rt::EvtSource::unregister(chibios_rt::EvtListener*)
 .text._ZN10chibios_rt9EvtSource14broadcastFlagsEm
                0x08013740       0x10 build/obj/ch.o
                0x08013740                chibios_rt::EvtSource::broadcastFlags(unsigned long)
 .text._ZN5amiro5ColorC2Ev
                0x08013750       0x10 build/obj/Color.o
                0x08013750                amiro::Color::Color()
                0x08013750                amiro::Color::Color()
 .text._ZN5amiro5ColorC2ERKS0_
                0x08013760       0x20 build/obj/Color.o
                0x08013760                amiro::Color::Color(amiro::Color const&)
                0x08013760                amiro::Color::Color(amiro::Color const&)
 .text._ZN5amiro5ColorC2Eiii
                0x08013780       0x10 build/obj/Color.o
                0x08013780                amiro::Color::Color(int, int, int)
                0x08013780                amiro::Color::Color(int, int, int)
 .text._ZN5amiro5ColorC2ENS0_11GlobalColorE
                0x08013790       0x20 build/obj/Color.o
                0x08013790                amiro::Color::Color(amiro::Color::GlobalColor)
                0x08013790                amiro::Color::Color(amiro::Color::GlobalColor)
 .text._ZN5amiro5Color6getRedEv
                0x080137b0       0x10 build/obj/Color.o
                0x080137b0                amiro::Color::getRed()
 .text._ZN5amiro5Color8getGreenEv
                0x080137c0       0x10 build/obj/Color.o
                0x080137c0                amiro::Color::getGreen()
 .text._ZN5amiro5Color7getBlueEv
                0x080137d0       0x10 build/obj/Color.o
                0x080137d0                amiro::Color::getBlue()
 .text._ZN5amiro5ColoraSERKS0_
                0x080137e0       0x20 build/obj/Color.o
                0x080137e0                amiro::Color::operator=(amiro::Color const&)
 .text._ZN5amiro5ColoraSENS0_11GlobalColorE
                0x08013800       0x20 build/obj/Color.o
                0x08013800                amiro::Color::operator=(amiro::Color::GlobalColor)
 .text._ZN5amiro11HWSPIDriverD2Ev
                0x08013820       0x10 build/obj/HWSPIDriver.o
                0x08013820                amiro::HWSPIDriver::~HWSPIDriver()
                0x08013820                amiro::HWSPIDriver::~HWSPIDriver()
 .text._ZN5amiro11HWSPIDriverD0Ev
                0x08013830       0x20 build/obj/HWSPIDriver.o
                0x08013830                amiro::HWSPIDriver::~HWSPIDriver()
 .text._ZN5amiro11HWSPIDriverC2EP9SPIDriverPK9SPIConfig
                0x08013850       0x20 build/obj/HWSPIDriver.o
                0x08013850                amiro::HWSPIDriver::HWSPIDriver(SPIDriver*, SPIConfig const*)
                0x08013850                amiro::HWSPIDriver::HWSPIDriver(SPIDriver*, SPIConfig const*)
 .text._ZN5amiro11HWSPIDriver8exchangeEPhPKhj
                0x08013870       0x40 build/obj/HWSPIDriver.o
                0x08013870                amiro::HWSPIDriver::exchange(unsigned char*, unsigned char const*, unsigned int)
 .text._ZN5amiro11HWSPIDriver5writeEPKhj
                0x080138b0       0x40 build/obj/HWSPIDriver.o
                0x080138b0                amiro::HWSPIDriver::write(unsigned char const*, unsigned int)
 .text._ZN5amiro9I2CDriverD2Ev
                0x080138f0       0x10 build/obj/HWI2CDriver.o
                0x080138f0                amiro::I2CDriver::~I2CDriver()
                0x080138f0                amiro::I2CDriver::~I2CDriver()
 .text._ZN5amiro11HWI2CDriverD2Ev
                0x08013900       0x10 build/obj/HWI2CDriver.o
                0x08013900                amiro::HWI2CDriver::~HWI2CDriver()
                0x08013900                amiro::HWI2CDriver::~HWI2CDriver()
 .text._ZN5amiro9I2CDriverD0Ev
                0x08013910       0x20 build/obj/HWI2CDriver.o
                0x08013910                amiro::I2CDriver::~I2CDriver()
 .text._ZN5amiro11HWI2CDriverD0Ev
                0x08013930       0x20 build/obj/HWI2CDriver.o
                0x08013930                amiro::HWI2CDriver::~HWI2CDriver()
 .text._ZN5amiro11HWI2CDriver5startEPK9I2CConfig
                0x08013950       0x10 build/obj/HWI2CDriver.o
                0x08013950                amiro::HWI2CDriver::start(I2CConfig const*)
 .text._ZN5amiro11HWI2CDriver4stopEv
                0x08013960       0x10 build/obj/HWI2CDriver.o
                0x08013960                amiro::HWI2CDriver::stop()
 .text._ZN5amiro11HWI2CDriver9getErrorsEv
                0x08013970       0x10 build/obj/HWI2CDriver.o
                0x08013970                amiro::HWI2CDriver::getErrors()
 .text._ZN5amiro11HWI2CDriver14masterTransmitEPKNS_11I2CTxParamsEm
                0x08013980       0x30 build/obj/HWI2CDriver.o
                0x08013980                amiro::HWI2CDriver::masterTransmit(amiro::I2CTxParams const*, unsigned long)
 .text._ZN5amiro11HWI2CDriver13masterReceiveEPKNS_11I2CRxParamsEm
                0x080139b0       0x20 build/obj/HWI2CDriver.o
                0x080139b0                amiro::HWI2CDriver::masterReceive(amiro::I2CRxParams const*, unsigned long)
 .text._ZN5amiro11HWI2CDriver10acquireBusEv
                0x080139d0       0x10 build/obj/HWI2CDriver.o
                0x080139d0                amiro::HWI2CDriver::acquireBus()
 .text._ZN5amiro11HWI2CDriver10releaseBusEv
                0x080139e0       0x10 build/obj/HWI2CDriver.o
                0x080139e0                amiro::HWI2CDriver::releaseBus()
 .text._ZN5amiro11HWI2CDriverC2EP9I2CDriver
                0x080139f0       0x10 build/obj/HWI2CDriver.o
                0x080139f0                amiro::HWI2CDriver::HWI2CDriver(I2CDriver*)
                0x080139f0                amiro::HWI2CDriver::HWI2CDriver(I2CDriver*)
 .text._ZN5amiro7TLC5947D2Ev
                0x08013a00       0x10 build/obj/tlc5947.o
                0x08013a00                amiro::TLC5947::~TLC5947()
                0x08013a00                amiro::TLC5947::~TLC5947()
 .text._ZN5amiro7TLC5947D0Ev
                0x08013a10       0x20 build/obj/tlc5947.o
                0x08013a10                amiro::TLC5947::~TLC5947()
 .text._ZN10chibios_rt16BaseStaticThreadILi192EE5startEm
                0x08013a30       0x30 build/obj/tlc5947.o
                0x08013a30                chibios_rt::BaseStaticThread<192>::start(unsigned long)
 .text._ZN5amiro7TLC5947C2EPNS_11HWSPIDriverEP12GPIO_TypeDefi
                0x08013a60       0x60 build/obj/tlc5947.o
                0x08013a60                amiro::TLC5947::TLC5947(amiro::HWSPIDriver*, GPIO_TypeDef*, int)
                0x08013a60                amiro::TLC5947::TLC5947(amiro::HWSPIDriver*, GPIO_TypeDef*, int)
 .text._ZN5amiro7TLC59476enableEv
                0x08013ac0       0x20 build/obj/tlc5947.o
                0x08013ac0                amiro::TLC5947::enable()
 .text._ZN5amiro7TLC594713setBrightnessEi
                0x08013ae0       0x20 build/obj/tlc5947.o
                0x08013ae0                amiro::TLC5947::setBrightness(int)
 .text._ZN5amiro7TLC59478setColorEiNS_5ColorE
                0x08013b00       0x10 build/obj/tlc5947.o
                0x08013b00                amiro::TLC5947::setColor(int, amiro::Color)
 .text._ZN5amiro7TLC59476updateEv
                0x08013b10       0x10 build/obj/tlc5947.o
                0x08013b10                amiro::TLC5947::update()
 .text._ZN5amiro9A2500R24AD2Ev
                0x08013b20       0x10 build/obj/a2500r24a.o
                0x08013b20                amiro::A2500R24A::~A2500R24A()
                0x08013b20                amiro::A2500R24A::~A2500R24A()
 .text._ZN5amiro9A2500R24AD0Ev
                0x08013b30       0x20 build/obj/a2500r24a.o
                0x08013b30                amiro::A2500R24A::~A2500R24A()
 .text._ZN10chibios_rt16BaseStaticThreadILi256EE5startEm
                0x08013b50       0x30 build/obj/a2500r24a.o
                0x08013b50                chibios_rt::BaseStaticThread<256>::start(unsigned long)
 .text._ZN5amiro9A2500R24AC2EPNS_11HWSPIDriverE
                0x08013b80       0x30 build/obj/a2500r24a.o
                0x08013b80                amiro::A2500R24A::A2500R24A(amiro::HWSPIDriver*)
                0x08013b80                amiro::A2500R24A::A2500R24A(amiro::HWSPIDriver*)
 .text._ZN5amiro9A2500R24A8getCheckEv
                0x08013bb0       0x30 build/obj/a2500r24a.o
                0x08013bb0                amiro::A2500R24A::getCheck()
 .text._ZN5amiro6EEPROMC2EPK17BaseFileStreamVMTjhthPNS_9I2CDriverE
                0x08013be0       0x30 build/obj/eeprom.o
                0x08013be0                amiro::EEPROM::EEPROM(BaseFileStreamVMT const*, unsigned int, unsigned char, unsigned short, unsigned char, amiro::I2CDriver*)
                0x08013be0                amiro::EEPROM::EEPROM(BaseFileStreamVMT const*, unsigned int, unsigned char, unsigned short, unsigned char, amiro::I2CDriver*)
 .text._ZN5amiro6EEPROMD2Ev
                0x08013c10       0x10 build/obj/eeprom.o
                0x08013c10                amiro::EEPROM::~EEPROM()
                0x08013c10                amiro::EEPROM::~EEPROM()
 .text._ZN5amiro6EEPROM8geterrorEPv
                0x08013c20       0x10 build/obj/eeprom.o
                0x08013c20                amiro::EEPROM::geterror(void*)
 .text._ZN5amiro6EEPROM7getsizeEPv
                0x08013c30       0x10 build/obj/eeprom.o
                0x08013c30                amiro::EEPROM::getsize(void*)
 .text._ZN5amiro6EEPROM11getpositionEPv
                0x08013c40       0x10 build/obj/eeprom.o
                0x08013c40                amiro::EEPROM::getposition(void*)
 .text._ZN5amiro6EEPROM5lseekEPvm
                0x08013c50       0x10 build/obj/eeprom.o
                0x08013c50                amiro::EEPROM::lseek(void*, unsigned long)
 .text._ZN5amiro4AT245closeEPv
                0x08013c60       0x10 build/obj/at24.o
                0x08013c60                amiro::AT24::close(void*)
 .text._ZN5amiro4AT245writeEPvPKhj
                0x08013c70      0x130 build/obj/at24.o
                0x08013c70                amiro::AT24::write(void*, unsigned char const*, unsigned int)
 .text._ZN5amiro4AT24C2EjhtPNS_9I2CDriverE
                0x08013da0       0x30 build/obj/at24.o
                0x08013da0                amiro::AT24::AT24(unsigned int, unsigned char, unsigned short, amiro::I2CDriver*)
                0x08013da0                amiro::AT24::AT24(unsigned int, unsigned char, unsigned short, amiro::I2CDriver*)
 .text._ZN5amiro4AT24D2Ev
                0x08013dd0       0x10 build/obj/at24.o
                0x08013dd0                amiro::AT24::~AT24()
                0x08013dd0                amiro::AT24::~AT24()
 .text._ZN5amiro4AT248poll_ackEPv
                0x08013de0       0x80 build/obj/at24.o
                0x08013de0                amiro::AT24::poll_ack(void*)
 .text._ZN5amiro4AT244readEPvPhj
                0x08013e60       0xa0 build/obj/at24.o
                0x08013e60                amiro::AT24::read(void*, unsigned char*, unsigned int)
 .text._ZN5amiro12fileSystemIo16FileSystemIoBase8getCheckEv
                0x08013f00       0x70 build/obj/FileSystemInputOutputBase.o
                0x08013f00                amiro::fileSystemIo::FileSystemIoBase::getCheck()
 .text._ZN5amiro12fileSystemIo16FileSystemIoBase12initPreambleEhhb
                0x08013f70      0x100 build/obj/FileSystemInputOutputBase.o
                0x08013f70                amiro::fileSystemIo::FileSystemIoBase::initPreamble(unsigned char, unsigned char, bool)
 .text._ZN5amiro12fileSystemIo16FileSystemIoBase4initEv
                0x08014070       0xa0 build/obj/FileSystemInputOutputBase.o
                0x08014070                amiro::fileSystemIo::FileSystemIoBase::init()
 .text._ZN5amiro12fileSystemIo16FileSystemIoBase11resetMemoryEv
                0x08014110       0x10 build/obj/FileSystemInputOutputBase.o
                0x08014110                amiro::fileSystemIo::FileSystemIoBase::resetMemory()
 .text._ZN5amiro12fileSystemIo16FileSystemIoBase10getBoardIdEPh
                0x08014120       0x50 build/obj/FileSystemInputOutputBase.o
                0x08014120                amiro::fileSystemIo::FileSystemIoBase::getBoardId(unsigned char*)
 .text._ZN5amiro12fileSystemIo16FileSystemIoBase10setBoardIdEh
                0x08014170       0x50 build/obj/FileSystemInputOutputBase.o
                0x08014170                amiro::fileSystemIo::FileSystemIoBase::setBoardId(unsigned char)
 .text._ZN5amiro23ControllerAreaNetworkRx14receiveMessageEP10CANRxFrame
                0x080141c0       0x10 build/obj/ControllerAreaNetworkRx.o
                0x080141c0                amiro::ControllerAreaNetworkRx::receiveMessage(CANRxFrame*)
 .text._ZN10chibios_rt16BaseStaticThreadILi128EE5startEm
                0x080141d0       0x30 build/obj/ControllerAreaNetworkRx.o
                0x080141d0                chibios_rt::BaseStaticThread<128>::start(unsigned long)
 .text._ZN5amiro23ControllerAreaNetworkRxC2EP9CANDriverh
                0x08014200       0x30 build/obj/ControllerAreaNetworkRx.o
                0x08014200                amiro::ControllerAreaNetworkRx::ControllerAreaNetworkRx(CANDriver*, unsigned char)
                0x08014200                amiro::ControllerAreaNetworkRx::ControllerAreaNetworkRx(CANDriver*, unsigned char)
 .text._ZN5amiro23ControllerAreaNetworkRxD2Ev
                0x08014230       0x10 build/obj/ControllerAreaNetworkRx.o
                0x08014230                amiro::ControllerAreaNetworkRx::~ControllerAreaNetworkRx()
                0x08014230                amiro::ControllerAreaNetworkRx::~ControllerAreaNetworkRx()
 .text._ZN5amiro23ControllerAreaNetworkRx16receiveSensorValEP10CANRxFrame
                0x08014240      0x1b0 build/obj/ControllerAreaNetworkRx.o
                0x08014240                amiro::ControllerAreaNetworkRx::receiveSensorVal(CANRxFrame*)
 .text._ZN5amiro23ControllerAreaNetworkRx10getRobotIDEv
                0x080143f0       0x10 build/obj/ControllerAreaNetworkRx.o
                0x080143f0                amiro::ControllerAreaNetworkRx::getRobotID()
 .text._ZN5amiro23ControllerAreaNetworkRx13decodeBoardIdEP10CANRxFrame
                0x08014400       0x10 build/obj/ControllerAreaNetworkRx.o
                0x08014400                amiro::ControllerAreaNetworkRx::decodeBoardId(CANRxFrame*)
 .text._ZN5amiro23ControllerAreaNetworkRx14decodeDeviceIdEP10CANRxFrame
                0x08014410       0x10 build/obj/ControllerAreaNetworkRx.o
                0x08014410                amiro::ControllerAreaNetworkRx::decodeDeviceId(CANRxFrame*)
 .text._ZN5amiro23ControllerAreaNetworkTx15updateSensorValEv
                0x08014420       0x10 build/obj/ControllerAreaNetworkTx.o
                0x08014420                amiro::ControllerAreaNetworkTx::updateSensorVal()
 .text._ZN5amiro23ControllerAreaNetworkTxC2EP9CANDriverh
                0x08014430       0x30 build/obj/ControllerAreaNetworkTx.o
                0x08014430                amiro::ControllerAreaNetworkTx::ControllerAreaNetworkTx(CANDriver*, unsigned char)
                0x08014430                amiro::ControllerAreaNetworkTx::ControllerAreaNetworkTx(CANDriver*, unsigned char)
 .text._ZN5amiro23ControllerAreaNetworkTxD2Ev
                0x08014460       0x10 build/obj/ControllerAreaNetworkTx.o
                0x08014460                amiro::ControllerAreaNetworkTx::~ControllerAreaNetworkTx()
                0x08014460                amiro::ControllerAreaNetworkTx::~ControllerAreaNetworkTx()
 .text._ZL8chprintfP20BaseSequentialStreamPKcz
                0x08014470       0x20 build/obj/Lidar.o
 .text._ZN5amiro5LidarC2EhNS0_5SETUPE
                0x08014490       0x60 build/obj/Lidar.o
                0x08014490                amiro::Lidar::Lidar(unsigned char, amiro::Lidar::SETUP)
                0x08014490                amiro::Lidar::Lidar(unsigned char, amiro::Lidar::SETUP)
 .text._ZN5amiro5LidarD2Ev
                0x080144f0       0x30 build/obj/Lidar.o
                0x080144f0                amiro::Lidar::~Lidar()
                0x080144f0                amiro::Lidar::~Lidar()
 .text._ZN5amiro5Lidar7getDataERhm
                0x08014520       0x50 build/obj/Lidar.o
                0x08014520                amiro::Lidar::getData(unsigned char&, unsigned long)
 .text._ZN5amiro5Lidar15updateSensorValEv
                0x08014570      0x230 build/obj/Lidar.o
                0x08014570                amiro::Lidar::updateSensorVal()
 .text._ZN5amiro5Lidar15checkDataStringEPKc
                0x080147a0       0x60 build/obj/Lidar.o
                0x080147a0                amiro::Lidar::checkDataString(char const*)
 .text.NVIC_SystemReset
                0x08014800       0x20 build/obj/serial_can_mux.o
 .text._ZN5amiro12SerialCanMuxD2Ev
                0x08014820       0x10 build/obj/serial_can_mux.o
                0x08014820                amiro::SerialCanMux::~SerialCanMux()
                0x08014820                amiro::SerialCanMux::~SerialCanMux()
 .text._ZN5amiro12SerialCanMuxD0Ev
                0x08014830       0x20 build/obj/serial_can_mux.o
                0x08014830                amiro::SerialCanMux::~SerialCanMux()
 .text._ZL8chprintfP20BaseSequentialStreamPKcz
                0x08014850       0x20 build/obj/serial_can_mux.o
 .text._ZN5amiro12SerialCanMuxC2EP12SerialDriverP9CANDriverh
                0x08014870       0x60 build/obj/serial_can_mux.o
                0x08014870                amiro::SerialCanMux::SerialCanMux(SerialDriver*, CANDriver*, unsigned char)
                0x08014870                amiro::SerialCanMux::SerialCanMux(SerialDriver*, CANDriver*, unsigned char)
 .text._ZN5amiro12SerialCanMux19checkByteForBLResetEPhj
                0x080148d0       0x90 build/obj/serial_can_mux.o
                0x080148d0                amiro::SerialCanMux::checkByteForBLReset(unsigned char*, unsigned int)
 .text._ZN5amiro12SerialCanMux10sendViaCanEmPhj
                0x08014960       0x80 build/obj/serial_can_mux.o
                0x08014960                amiro::SerialCanMux::sendViaCan(unsigned long, unsigned char*, unsigned int)
 .text._ZN5amiro12SerialCanMux5writeEPKhj
                0x080149e0       0x50 build/obj/serial_can_mux.o
                0x080149e0                amiro::SerialCanMux::write(unsigned char const*, unsigned int)
 .text._ZN5amiro12SerialCanMux4readEPhj
                0x08014a30       0x60 build/obj/serial_can_mux.o
                0x08014a30                amiro::SerialCanMux::read(unsigned char*, unsigned int)
 .text._ZN5amiro12SerialCanMux3putEh
                0x08014a90       0x50 build/obj/serial_can_mux.o
                0x08014a90                amiro::SerialCanMux::put(unsigned char)
 .text._ZN5amiro12SerialCanMux3getEv
                0x08014ae0       0x50 build/obj/serial_can_mux.o
                0x08014ae0                amiro::SerialCanMux::get()
 .text._ZN5amiro12SerialCanMux14convCan2SerialEPhj
                0x08014b30       0x30 build/obj/serial_can_mux.o
                0x08014b30                amiro::SerialCanMux::convCan2Serial(unsigned char*, unsigned int)
 .text._ZN5amiro12SerialCanMux13sendSwitchCmdEh
                0x08014b60       0xd0 build/obj/serial_can_mux.o
                0x08014b60                amiro::SerialCanMux::sendSwitchCmd(unsigned char)
 .text._ZN5amiro12SerialCanMux12rcvSwitchCmdEh
                0x08014c30       0x50 build/obj/serial_can_mux.o
                0x08014c30                amiro::SerialCanMux::rcvSwitchCmd(unsigned char)
 .text._ZN5amiro9LightRing17periodicBroadcastEv
                0x08014c80       0x10 build/obj/LightRing.o
                0x08014c80                amiro::LightRing::periodicBroadcast()
 .text._ZN5amiro9LightRingD2Ev
                0x08014c90       0x30 build/obj/LightRing.o
                0x08014c90                amiro::LightRing::~LightRing()
                0x08014c90                amiro::LightRing::~LightRing()
 .text._ZN5amiro9LightRingD1Ev
                0x08014cc0       0x10 build/obj/LightRing.o
                0x08014cc0                non-virtual thunk to amiro::LightRing::~LightRing()
 .text._ZN5amiro9LightRingD0Ev
                0x08014cd0       0x40 build/obj/LightRing.o
                0x08014cd0                amiro::LightRing::~LightRing()
                0x08014d00                non-virtual thunk to amiro::LightRing::~LightRing()
 .text._ZN5amiro9LightRing5startEm
                0x08014d10       0x50 build/obj/LightRing.o
                0x08014d10                amiro::LightRing::start(unsigned long)
 .text._ZThn408_N5amiro9LightRing5startEm
                0x08014d60       0x10 build/obj/LightRing.o
                0x08014d60                non-virtual thunk to amiro::LightRing::start(unsigned long)
 .text._ZN5amiro9LightRingC2EP9CANDriverPNS_7TLC5947EPNS_12fileSystemIo13FSIOLightRingE
                0x08014d70       0x50 build/obj/LightRing.o
                0x08014d70                amiro::LightRing::LightRing(CANDriver*, amiro::TLC5947*, amiro::fileSystemIo::FSIOLightRing*)
                0x08014d70                amiro::LightRing::LightRing(CANDriver*, amiro::TLC5947*, amiro::fileSystemIo::FSIOLightRing*)
 .text._ZN5amiro9LightRing18setLightBrightnessEi
                0x08014dc0       0x20 build/obj/LightRing.o
                0x08014dc0                amiro::LightRing::setLightBrightness(int)
 .text._ZN5amiro9LightRing13setLightColorEiNS_5ColorE
                0x08014de0       0x30 build/obj/LightRing.o
                0x08014de0                amiro::LightRing::setLightColor(int, amiro::Color)
 .text._ZN5amiro9LightRing14receiveMessageEP10CANRxFrame
                0x08014e10      0x120 build/obj/LightRing.o
                0x08014e10                amiro::LightRing::receiveMessage(CANRxFrame*)
 .text._ZThn408_N5amiro9LightRing14receiveMessageEP10CANRxFrame
                0x08014f30       0x10 build/obj/LightRing.o
                0x08014f30                non-virtual thunk to amiro::LightRing::receiveMessage(CANRxFrame*)
 .text._ZN5amiro9LightRing9terminateEv
                0x08014f40       0x30 build/obj/LightRing.o
                0x08014f40                amiro::LightRing::terminate()
 .text._ZN5amiro10UserThreadD2Ev
                0x08014f70       0x10 build/obj/userthread.o
                0x08014f70                amiro::UserThread::~UserThread()
                0x08014f70                amiro::UserThread::~UserThread()
 .text._ZN5amiro10UserThreadD0Ev
                0x08014f80       0x20 build/obj/userthread.o
                0x08014f80                amiro::UserThread::~UserThread()
 .text._ZN10chibios_rt16BaseStaticThreadILi1024EE5startEm
                0x08014fa0       0x30 build/obj/userthread.o
                0x08014fa0                chibios_rt::BaseStaticThread<1024>::start(unsigned long)
 .text._ZN5amiro10UserThreadC2Ev
                0x08014fd0       0x20 build/obj/userthread.o
                0x08014fd0                amiro::UserThread::UserThread()
                0x08014fd0                amiro::UserThread::UserThread()
 .text._ZL8chprintfP20BaseSequentialStreamPKcz
                0x08014ff0       0x20 build/obj/main.o
 .text._Z20shellRequestShutdownP20BaseSequentialStreamiPPc
                0x08015010      0x1c0 build/obj/main.o
                0x08015010                shellRequestShutdown(BaseSequentialStream*, int, char**)
 .text._Z23shellRequestResetMemoryP20BaseSequentialStreamiPPc
                0x080151d0       0x40 build/obj/main.o
                0x080151d0                shellRequestResetMemory(BaseSequentialStream*, int, char**)
 .text._Z22shellRequestGetBoardIdP20BaseSequentialStreamiPPc
                0x08015210       0x50 build/obj/main.o
                0x08015210                shellRequestGetBoardId(BaseSequentialStream*, int, char**)
 .text._Z25shellRequestGetMemoryDataP20BaseSequentialStreamiPPc
                0x08015260      0x330 build/obj/main.o
                0x08015260                shellRequestGetMemoryData(BaseSequentialStream*, int, char**)
 .text._Z22shellRequestGetRobotIdP20BaseSequentialStreamiPPc
                0x08015590       0x40 build/obj/main.o
                0x08015590                shellRequestGetRobotId(BaseSequentialStream*, int, char**)
 .text._Z25shellRequestGetSystemLoadP20BaseSequentialStreamiPPc
                0x080155d0       0xf0 build/obj/main.o
                0x080155d0                shellRequestGetSystemLoad(BaseSequentialStream*, int, char**)
 .text._Z29shellRequestGetBootloaderInfoP20BaseSequentialStreamiPPc
                0x080156c0       0x70 build/obj/main.o
                0x080156c0                shellRequestGetBootloaderInfo(BaseSequentialStream*, int, char**)
 .text._Z22shellRequestSetBoardIdP20BaseSequentialStreamiPPc
                0x08015730       0x60 build/obj/main.o
                0x08015730                shellRequestSetBoardId(BaseSequentialStream*, int, char**)
 .text._Z19shellSwitchBoardCmdP20BaseSequentialStreamiPPc
                0x08015790       0x40 build/obj/main.o
                0x08015790                shellSwitchBoardCmd(BaseSequentialStream*, int, char**)
 .text._ZN5amiro6GlobalC2Ev
                0x080157d0      0x120 build/obj/main.o
                0x080157d0                amiro::Global::Global()
                0x080157d0                amiro::Global::Global()
 .text._Z10testColorsv
                0x080158f0       0x60 build/obj/main.o
                0x080158f0                testColors()
 .text._Z14systemShutdownv
                0x08015950       0x60 build/obj/main.o
                0x08015950                systemShutdown()
 .text._Z19boardPeripheryCheckP20BaseSequentialStream
                0x080159b0       0xa0 build/obj/main.o
                0x080159b0                boardPeripheryCheck(BaseSequentialStream*)
 .text._Z17shellRequestCheckP20BaseSequentialStreamiPPc
                0x08015a50       0x20 build/obj/main.o
                0x08015a50                shellRequestCheck(BaseSequentialStream*, int, char**)
 .text._ZN5amiro6GlobalD2Ev
                0x08015a70       0x80 build/obj/main.o
                0x08015a70                amiro::Global::~Global()
                0x08015a70                amiro::Global::~Global()
 .text._Z13power_down_cbP9EXTDriverm
                0x08015af0       0x30 build/obj/exti.o
                0x08015af0                power_down_cb(EXTDriver*, unsigned long)
 .text.__cxa_pure_virtual
                0x08015b20       0x14 /homes/skollbach/Downloads/ASE/gcc-arm-embedded/gcc-arm-none-eabi-4_8-2014q1/bin/../lib/gcc/arm-none-eabi/4.8.3/../../../../arm-none-eabi/lib/armv7-m/libstdc++.a(pure.o)
                0x08015b20                __cxa_pure_virtual
 *fill*         0x08015b34        0xc 
 .text._ZdlPv   0x08015b40        0x8 /homes/skollbach/Downloads/ASE/gcc-arm-embedded/gcc-arm-none-eabi-4_8-2014q1/bin/../lib/gcc/arm-none-eabi/4.8.3/../../../../arm-none-eabi/lib/armv7-m/libstdc++.a(del_op.o)
                0x08015b40                operator delete(void*)
 *fill*         0x08015b48        0x8 
 .text._ZN10__cxxabiv111__terminateEPFvvE
                0x08015b50       0x28 /homes/skollbach/Downloads/ASE/gcc-arm-embedded/gcc-arm-none-eabi-4_8-2014q1/bin/../lib/gcc/arm-none-eabi/4.8.3/../../../../arm-none-eabi/lib/armv7-m/libstdc++.a(eh_terminate.o)
                0x08015b50                __cxxabiv1::__terminate(void (*)())
 *fill*         0x08015b78        0x8 
 .text._ZSt9terminatev
                0x08015b80       0x10 /homes/skollbach/Downloads/ASE/gcc-arm-embedded/gcc-arm-none-eabi-4_8-2014q1/bin/../lib/gcc/arm-none-eabi/4.8.3/../../../../arm-none-eabi/lib/armv7-m/libstdc++.a(eh_terminate.o)
                0x08015b80                std::terminate()
 .text._ZN10__cxxabiv112__unexpectedEPFvvE
                0x08015b90        0x8 /homes/skollbach/Downloads/ASE/gcc-arm-embedded/gcc-arm-none-eabi-4_8-2014q1/bin/../lib/gcc/arm-none-eabi/4.8.3/../../../../arm-none-eabi/lib/armv7-m/libstdc++.a(eh_terminate.o)
                0x08015b90                __cxxabiv1::__unexpected(void (*)())
 *fill*         0x08015b98        0x8 
 .text._ZSt10unexpectedv
                0x08015ba0       0x10 /homes/skollbach/Downloads/ASE/gcc-arm-embedded/gcc-arm-none-eabi-4_8-2014q1/bin/../lib/gcc/arm-none-eabi/4.8.3/../../../../arm-none-eabi/lib/armv7-m/libstdc++.a(eh_terminate.o)
                0x08015ba0                std::unexpected()
 .text.__cxa_begin_catch
                0x08015bb0       0x8c /homes/skollbach/Downloads/ASE/gcc-arm-embedded/gcc-arm-none-eabi-4_8-2014q1/bin/../lib/gcc/arm-none-eabi/4.8.3/../../../../arm-none-eabi/lib/armv7-m/libstdc++.a(eh_catch.o)
                0x08015bb0                __cxa_begin_catch
 *fill*         0x08015c3c        0x4 
 .text.__cxa_end_catch
                0x08015c40       0x8c /homes/skollbach/Downloads/ASE/gcc-arm-embedded/gcc-arm-none-eabi-4_8-2014q1/bin/../lib/gcc/arm-none-eabi/4.8.3/../../../../arm-none-eabi/lib/armv7-m/libstdc++.a(eh_catch.o)
                0x08015c40                __cxa_end_catch
 *fill*         0x08015ccc        0x4 
 .text.__aeabi_atexit
                0x08015cd0        0xc /homes/skollbach/Downloads/ASE/gcc-arm-embedded/gcc-arm-none-eabi-4_8-2014q1/bin/../lib/gcc/arm-none-eabi/4.8.3/../../../../arm-none-eabi/lib/armv7-m/libstdc++.a(atexit_arm.o)
                0x08015cd0                __aeabi_atexit
 *fill*         0x08015cdc        0x4 
 .text.__cxa_end_cleanup
                0x08015ce0        0xc /homes/skollbach/Downloads/ASE/gcc-arm-embedded/gcc-arm-none-eabi-4_8-2014q1/bin/../lib/gcc/arm-none-eabi/4.8.3/../../../../arm-none-eabi/lib/armv7-m/libstdc++.a(eh_arm.o)
                0x08015ce0                __cxa_end_cleanup
 *fill*         0x08015cec        0x4 
 .text.__cxa_type_match
                0x08015cf0       0xac /homes/skollbach/Downloads/ASE/gcc-arm-embedded/gcc-arm-none-eabi-4_8-2014q1/bin/../lib/gcc/arm-none-eabi/4.8.3/../../../../arm-none-eabi/lib/armv7-m/libstdc++.a(eh_arm.o)
                0x08015cf0                __cxa_type_match
 *fill*         0x08015d9c        0x4 
 .text.__cxa_begin_cleanup
                0x08015da0       0x64 /homes/skollbach/Downloads/ASE/gcc-arm-embedded/gcc-arm-none-eabi-4_8-2014q1/bin/../lib/gcc/arm-none-eabi/4.8.3/../../../../arm-none-eabi/lib/armv7-m/libstdc++.a(eh_arm.o)
                0x08015da0                __cxa_begin_cleanup
 *fill*         0x08015e04        0xc 
 .text.__gnu_end_cleanup
                0x08015e10       0x70 /homes/skollbach/Downloads/ASE/gcc-arm-embedded/gcc-arm-none-eabi-4_8-2014q1/bin/../lib/gcc/arm-none-eabi/4.8.3/../../../../arm-none-eabi/lib/armv7-m/libstdc++.a(eh_arm.o)
                0x08015e10                __gnu_end_cleanup
 .text._ZN10__cxxabiv1L24__is_gxx_exception_classEPc
                0x08015e80       0x3c /homes/skollbach/Downloads/ASE/gcc-arm-embedded/gcc-arm-none-eabi-4_8-2014q1/bin/../lib/gcc/arm-none-eabi/4.8.3/../../../../arm-none-eabi/lib/armv7-m/libstdc++.a(eh_call.o)
 *fill*         0x08015ebc        0x4 
 .text.__cxa_call_terminate
                0x08015ec0       0x20 /homes/skollbach/Downloads/ASE/gcc-arm-embedded/gcc-arm-none-eabi-4_8-2014q1/bin/../lib/gcc/arm-none-eabi/4.8.3/../../../../arm-none-eabi/lib/armv7-m/libstdc++.a(eh_call.o)
                0x08015ec0                __cxa_call_terminate
 .text.__cxa_call_unexpected
                0x08015ee0       0xd8 /homes/skollbach/Downloads/ASE/gcc-arm-embedded/gcc-arm-none-eabi-4_8-2014q1/bin/../lib/gcc/arm-none-eabi/4.8.3/../../../../arm-none-eabi/lib/armv7-m/libstdc++.a(eh_call.o)
                0x08015ee0                __cxa_call_unexpected
 *fill*         0x08015fb8        0x8 
 .text._ZL12read_sleb128PKhPl
                0x08015fc0       0x34 /homes/skollbach/Downloads/ASE/gcc-arm-embedded/gcc-arm-none-eabi-4_8-2014q1/bin/../lib/gcc/arm-none-eabi/4.8.3/../../../../arm-none-eabi/lib/armv7-m/libstdc++.a(eh_personality.o)
 *fill*         0x08015ff4        0xc 
 .text._ZL28read_encoded_value_with_basehjPKhPj
                0x08016000       0xb0 /homes/skollbach/Downloads/ASE/gcc-arm-embedded/gcc-arm-none-eabi-4_8-2014q1/bin/../lib/gcc/arm-none-eabi/4.8.3/../../../../arm-none-eabi/lib/armv7-m/libstdc++.a(eh_personality.o)
 .text._ZL21base_of_encoded_valuehP15_Unwind_Context
                0x080160b0       0x4c /homes/skollbach/Downloads/ASE/gcc-arm-embedded/gcc-arm-none-eabi-4_8-2014q1/bin/../lib/gcc/arm-none-eabi/4.8.3/../../../../arm-none-eabi/lib/armv7-m/libstdc++.a(eh_personality.o)
 *fill*         0x080160fc        0x4 
 .text._ZL17parse_lsda_headerP15_Unwind_ContextPKhP16lsda_header_info
                0x08016100       0x94 /homes/skollbach/Downloads/ASE/gcc-arm-embedded/gcc-arm-none-eabi-4_8-2014q1/bin/../lib/gcc/arm-none-eabi/4.8.3/../../../../arm-none-eabi/lib/armv7-m/libstdc++.a(eh_personality.o)
 *fill*         0x08016194        0xc 
 .text.__gxx_personality_v0
                0x080161a0      0x40c /homes/skollbach/Downloads/ASE/gcc-arm-embedded/gcc-arm-none-eabi-4_8-2014q1/bin/../lib/gcc/arm-none-eabi/4.8.3/../../../../arm-none-eabi/lib/armv7-m/libstdc++.a(eh_personality.o)
                0x080161a0                __gxx_personality_v0
 *fill*         0x080165ac        0x4 
 .text.__cxa_get_globals_fast
                0x080165b0        0x8 /homes/skollbach/Downloads/ASE/gcc-arm-embedded/gcc-arm-none-eabi-4_8-2014q1/bin/../lib/gcc/arm-none-eabi/4.8.3/../../../../arm-none-eabi/lib/armv7-m/libstdc++.a(eh_globals.o)
                0x080165b0                __cxa_get_globals_fast
 *fill*         0x080165b8        0x8 
 .text.__cxa_get_globals
                0x080165c0        0x8 /homes/skollbach/Downloads/ASE/gcc-arm-embedded/gcc-arm-none-eabi-4_8-2014q1/bin/../lib/gcc/arm-none-eabi/4.8.3/../../../../arm-none-eabi/lib/armv7-m/libstdc++.a(eh_globals.o)
                0x080165c0                __cxa_get_globals
 *fill*         0x080165c8        0x8 
 .text._ZN9__gnu_cxx27__verbose_terminate_handlerEv
                0x080165d0      0x114 /homes/skollbach/Downloads/ASE/gcc-arm-embedded/gcc-arm-none-eabi-4_8-2014q1/bin/../lib/gcc/arm-none-eabi/4.8.3/../../../../arm-none-eabi/lib/armv7-m/libstdc++.a(vterminate.o)
                0x080165d0                __gnu_cxx::__verbose_terminate_handler()
 *fill*         0x080166e4        0xc 
 .text._ZL23__gxx_exception_cleanup19_Unwind_Reason_CodeP21_Unwind_Control_Block
                0x080166f0       0x44 /homes/skollbach/Downloads/ASE/gcc-arm-embedded/gcc-arm-none-eabi-4_8-2014q1/bin/../lib/gcc/arm-none-eabi/4.8.3/../../../../arm-none-eabi/lib/armv7-m/libstdc++.a(eh_throw.o)
 *fill*         0x08016734        0xc 
 .text.__cxa_throw
                0x08016740       0x90 /homes/skollbach/Downloads/ASE/gcc-arm-embedded/gcc-arm-none-eabi-4_8-2014q1/bin/../lib/gcc/arm-none-eabi/4.8.3/../../../../arm-none-eabi/lib/armv7-m/libstdc++.a(eh_throw.o)
                0x08016740                __cxa_throw
 .text.__cxa_rethrow
                0x080167d0       0x70 /homes/skollbach/Downloads/ASE/gcc-arm-embedded/gcc-arm-none-eabi-4_8-2014q1/bin/../lib/gcc/arm-none-eabi/4.8.3/../../../../arm-none-eabi/lib/armv7-m/libstdc++.a(eh_throw.o)
                0x080167d0                __cxa_rethrow
 .text._ZNSt9exceptionD2Ev
                0x08016840        0xc /homes/skollbach/Downloads/ASE/gcc-arm-embedded/gcc-arm-none-eabi-4_8-2014q1/bin/../lib/gcc/arm-none-eabi/4.8.3/../../../../arm-none-eabi/lib/armv7-m/libstdc++.a(eh_exception.o)
                0x08016840                std::exception::~exception()
                0x08016840                std::exception::~exception()
 *fill*         0x0801684c        0x4 
 .text._ZNSt13bad_exceptionD2Ev
                0x08016850        0xc /homes/skollbach/Downloads/ASE/gcc-arm-embedded/gcc-arm-none-eabi-4_8-2014q1/bin/../lib/gcc/arm-none-eabi/4.8.3/../../../../arm-none-eabi/lib/armv7-m/libstdc++.a(eh_exception.o)
                0x08016850                std::bad_exception::~bad_exception()
                0x08016850                std::bad_exception::~bad_exception()
 *fill*         0x0801685c        0x4 
 .text._ZNKSt9exception4whatEv
                0x08016860        0x8 /homes/skollbach/Downloads/ASE/gcc-arm-embedded/gcc-arm-none-eabi-4_8-2014q1/bin/../lib/gcc/arm-none-eabi/4.8.3/../../../../arm-none-eabi/lib/armv7-m/libstdc++.a(eh_exception.o)
                0x08016860                std::exception::what() const
 *fill*         0x08016868        0x8 
 .text._ZNKSt13bad_exception4whatEv
                0x08016870        0x8 /homes/skollbach/Downloads/ASE/gcc-arm-embedded/gcc-arm-none-eabi-4_8-2014q1/bin/../lib/gcc/arm-none-eabi/4.8.3/../../../../arm-none-eabi/lib/armv7-m/libstdc++.a(eh_exception.o)
                0x08016870                std::bad_exception::what() const
 *fill*         0x08016878        0x8 
 .text._ZNSt9exceptionD0Ev
                0x08016880       0x14 /homes/skollbach/Downloads/ASE/gcc-arm-embedded/gcc-arm-none-eabi-4_8-2014q1/bin/../lib/gcc/arm-none-eabi/4.8.3/../../../../arm-none-eabi/lib/armv7-m/libstdc++.a(eh_exception.o)
                0x08016880                std::exception::~exception()
 *fill*         0x08016894        0xc 
 .text._ZNSt13bad_exceptionD0Ev
                0x080168a0       0x14 /homes/skollbach/Downloads/ASE/gcc-arm-embedded/gcc-arm-none-eabi-4_8-2014q1/bin/../lib/gcc/arm-none-eabi/4.8.3/../../../../arm-none-eabi/lib/armv7-m/libstdc++.a(eh_exception.o)
                0x080168a0                std::bad_exception::~bad_exception()
 *fill*         0x080168b4        0xc 
 .text.__cxa_current_exception_type
                0x080168c0       0x1c /homes/skollbach/Downloads/ASE/gcc-arm-embedded/gcc-arm-none-eabi-4_8-2014q1/bin/../lib/gcc/arm-none-eabi/4.8.3/../../../../arm-none-eabi/lib/armv7-m/libstdc++.a(eh_type.o)
                0x080168c0                __cxa_current_exception_type
 *fill*         0x080168dc        0x4 
 .text._ZNK10__cxxabiv117__class_type_info11__do_upcastEPKS0_PPv
                0x080168e0       0x38 /homes/skollbach/Downloads/ASE/gcc-arm-embedded/gcc-arm-none-eabi-4_8-2014q1/bin/../lib/gcc/arm-none-eabi/4.8.3/../../../../arm-none-eabi/lib/armv7-m/libstdc++.a(class_type_info.o)
                0x080168e0                __cxxabiv1::__class_type_info::__do_upcast(__cxxabiv1::__class_type_info const*, void**) const
 *fill*         0x08016918        0x8 
 .text._ZNK10__cxxabiv117__class_type_info20__do_find_public_srcEiPKvPKS0_S2_
                0x08016920        0xc /homes/skollbach/Downloads/ASE/gcc-arm-embedded/gcc-arm-none-eabi-4_8-2014q1/bin/../lib/gcc/arm-none-eabi/4.8.3/../../../../arm-none-eabi/lib/armv7-m/libstdc++.a(class_type_info.o)
                0x08016920                __cxxabiv1::__class_type_info::__do_find_public_src(int, void const*, __cxxabiv1::__class_type_info const*, void const*) const
 *fill*         0x0801692c        0x4 
 .text._ZN10__cxxabiv117__class_type_infoD2Ev
                0x08016930       0x14 /homes/skollbach/Downloads/ASE/gcc-arm-embedded/gcc-arm-none-eabi-4_8-2014q1/bin/../lib/gcc/arm-none-eabi/4.8.3/../../../../arm-none-eabi/lib/armv7-m/libstdc++.a(class_type_info.o)
                0x08016930                __cxxabiv1::__class_type_info::~__class_type_info()
                0x08016930                __cxxabiv1::__class_type_info::~__class_type_info()
 *fill*         0x08016944        0xc 
 .text._ZN10__cxxabiv117__class_type_infoD0Ev
                0x08016950       0x1c /homes/skollbach/Downloads/ASE/gcc-arm-embedded/gcc-arm-none-eabi-4_8-2014q1/bin/../lib/gcc/arm-none-eabi/4.8.3/../../../../arm-none-eabi/lib/armv7-m/libstdc++.a(class_type_info.o)
                0x08016950                __cxxabiv1::__class_type_info::~__class_type_info()
 *fill*         0x0801696c        0x4 
 .text._ZNK10__cxxabiv117__class_type_info11__do_upcastEPKS0_PKvRNS0_15__upcast_resultE
                0x08016970       0x18 /homes/skollbach/Downloads/ASE/gcc-arm-embedded/gcc-arm-none-eabi-4_8-2014q1/bin/../lib/gcc/arm-none-eabi/4.8.3/../../../../arm-none-eabi/lib/armv7-m/libstdc++.a(class_type_info.o)
                0x08016970                __cxxabiv1::__class_type_info::__do_upcast(__cxxabiv1::__class_type_info const*, void const*, __cxxabiv1::__class_type_info::__upcast_result&) const
 *fill*         0x08016988        0x8 
 .text._ZNK10__cxxabiv117__class_type_info10__do_catchEPKSt9type_infoPPvj
                0x08016990       0x24 /homes/skollbach/Downloads/ASE/gcc-arm-embedded/gcc-arm-none-eabi-4_8-2014q1/bin/../lib/gcc/arm-none-eabi/4.8.3/../../../../arm-none-eabi/lib/armv7-m/libstdc++.a(class_type_info.o)
                0x08016990                __cxxabiv1::__class_type_info::__do_catch(std::type_info const*, void**, unsigned int) const
 *fill*         0x080169b4        0xc 
 .text._ZNK10__cxxabiv117__class_type_info12__do_dyncastEiNS0_10__sub_kindEPKS0_PKvS3_S5_RNS0_16__dyncast_resultE
                0x080169c0       0x40 /homes/skollbach/Downloads/ASE/gcc-arm-embedded/gcc-arm-none-eabi-4_8-2014q1/bin/../lib/gcc/arm-none-eabi/4.8.3/../../../../arm-none-eabi/lib/armv7-m/libstdc++.a(class_type_info.o)
                0x080169c0                __cxxabiv1::__class_type_info::__do_dyncast(int, __cxxabiv1::__class_type_info::__sub_kind, __cxxabiv1::__class_type_info const*, void const*, __cxxabiv1::__class_type_info const*, void const*, __cxxabiv1::__class_type_info::__dyncast_result&) const
 .text.__cxa_allocate_exception
                0x08016a00       0x58 /homes/skollbach/Downloads/ASE/gcc-arm-embedded/gcc-arm-none-eabi-4_8-2014q1/bin/../lib/gcc/arm-none-eabi/4.8.3/../../../../arm-none-eabi/lib/armv7-m/libstdc++.a(eh_alloc.o)
                0x08016a00                __cxa_allocate_exception
 *fill*         0x08016a58        0x8 
 .text.__cxa_free_exception
                0x08016a60       0x34 /homes/skollbach/Downloads/ASE/gcc-arm-embedded/gcc-arm-none-eabi-4_8-2014q1/bin/../lib/gcc/arm-none-eabi/4.8.3/../../../../arm-none-eabi/lib/armv7-m/libstdc++.a(eh_alloc.o)
                0x08016a60                __cxa_free_exception
 *fill*         0x08016a94        0xc 
 .text._ZN10__cxxabiv120__si_class_type_infoD2Ev
                0x08016aa0       0x14 /homes/skollbach/Downloads/ASE/gcc-arm-embedded/gcc-arm-none-eabi-4_8-2014q1/bin/../lib/gcc/arm-none-eabi/4.8.3/../../../../arm-none-eabi/lib/armv7-m/libstdc++.a(si_class_type_info.o)
                0x08016aa0                __cxxabiv1::__si_class_type_info::~__si_class_type_info()
                0x08016aa0                __cxxabiv1::__si_class_type_info::~__si_class_type_info()
 *fill*         0x08016ab4        0xc 
 .text._ZN10__cxxabiv120__si_class_type_infoD0Ev
                0x08016ac0       0x1c /homes/skollbach/Downloads/ASE/gcc-arm-embedded/gcc-arm-none-eabi-4_8-2014q1/bin/../lib/gcc/arm-none-eabi/4.8.3/../../../../arm-none-eabi/lib/armv7-m/libstdc++.a(si_class_type_info.o)
                0x08016ac0                __cxxabiv1::__si_class_type_info::~__si_class_type_info()
 *fill*         0x08016adc        0x4 
 .text._ZNK10__cxxabiv120__si_class_type_info20__do_find_public_srcEiPKvPKNS_17__class_type_infoES2_
                0x08016ae0       0x34 /homes/skollbach/Downloads/ASE/gcc-arm-embedded/gcc-arm-none-eabi-4_8-2014q1/bin/../lib/gcc/arm-none-eabi/4.8.3/../../../../arm-none-eabi/lib/armv7-m/libstdc++.a(si_class_type_info.o)
                0x08016ae0                __cxxabiv1::__si_class_type_info::__do_find_public_src(int, void const*, __cxxabiv1::__class_type_info const*, void const*) const
 *fill*         0x08016b14        0xc 
 .text._ZNK10__cxxabiv120__si_class_type_info12__do_dyncastEiNS_17__class_type_info10__sub_kindEPKS1_PKvS4_S6_RNS1_16__dyncast_resultE
                0x08016b20       0x98 /homes/skollbach/Downloads/ASE/gcc-arm-embedded/gcc-arm-none-eabi-4_8-2014q1/bin/../lib/gcc/arm-none-eabi/4.8.3/../../../../arm-none-eabi/lib/armv7-m/libstdc++.a(si_class_type_info.o)
                0x08016b20                __cxxabiv1::__si_class_type_info::__do_dyncast(int, __cxxabiv1::__class_type_info::__sub_kind, __cxxabiv1::__class_type_info const*, void const*, __cxxabiv1::__class_type_info const*, void const*, __cxxabiv1::__class_type_info::__dyncast_result&) const
 *fill*         0x08016bb8        0x8 
 .text._ZNK10__cxxabiv120__si_class_type_info11__do_upcastEPKNS_17__class_type_infoEPKvRNS1_15__upcast_resultE
                0x08016bc0       0x20 /homes/skollbach/Downloads/ASE/gcc-arm-embedded/gcc-arm-none-eabi-4_8-2014q1/bin/../lib/gcc/arm-none-eabi/4.8.3/../../../../arm-none-eabi/lib/armv7-m/libstdc++.a(si_class_type_info.o)
                0x08016bc0                __cxxabiv1::__si_class_type_info::__do_upcast(__cxxabiv1::__class_type_info const*, void const*, __cxxabiv1::__class_type_info::__upcast_result&) const
 .text._ZNSt9type_infoD2Ev
                0x08016be0        0xc /homes/skollbach/Downloads/ASE/gcc-arm-embedded/gcc-arm-none-eabi-4_8-2014q1/bin/../lib/gcc/arm-none-eabi/4.8.3/../../../../arm-none-eabi/lib/armv7-m/libstdc++.a(tinfo.o)
                0x08016be0                std::type_info::~type_info()
                0x08016be0                std::type_info::~type_info()
 *fill*         0x08016bec        0x4 
 .text._ZNKSt9type_info14__is_pointer_pEv
                0x08016bf0        0x4 /homes/skollbach/Downloads/ASE/gcc-arm-embedded/gcc-arm-none-eabi-4_8-2014q1/bin/../lib/gcc/arm-none-eabi/4.8.3/../../../../arm-none-eabi/lib/armv7-m/libstdc++.a(tinfo.o)
                0x08016bf0                std::type_info::__is_pointer_p() const
 *fill*         0x08016bf4        0xc 
 .text._ZNKSt9type_info15__is_function_pEv
                0x08016c00        0x4 /homes/skollbach/Downloads/ASE/gcc-arm-embedded/gcc-arm-none-eabi-4_8-2014q1/bin/../lib/gcc/arm-none-eabi/4.8.3/../../../../arm-none-eabi/lib/armv7-m/libstdc++.a(tinfo.o)
                0x08016c00                std::type_info::__is_function_p() const
 *fill*         0x08016c04        0xc 
 .text._ZNKSt9type_info11__do_upcastEPKN10__cxxabiv117__class_type_infoEPPv
                0x08016c10        0x4 /homes/skollbach/Downloads/ASE/gcc-arm-embedded/gcc-arm-none-eabi-4_8-2014q1/bin/../lib/gcc/arm-none-eabi/4.8.3/../../../../arm-none-eabi/lib/armv7-m/libstdc++.a(tinfo.o)
                0x08016c10                std::type_info::__do_upcast(__cxxabiv1::__class_type_info const*, void**) const
 *fill*         0x08016c14        0xc 
 .text._ZNSt9type_infoD0Ev
                0x08016c20       0x14 /homes/skollbach/Downloads/ASE/gcc-arm-embedded/gcc-arm-none-eabi-4_8-2014q1/bin/../lib/gcc/arm-none-eabi/4.8.3/../../../../arm-none-eabi/lib/armv7-m/libstdc++.a(tinfo.o)
                0x08016c20                std::type_info::~type_info()
 *fill*         0x08016c34        0xc 
 .text._ZNKSt9type_infoeqERKS_
                0x08016c40       0x30 /homes/skollbach/Downloads/ASE/gcc-arm-embedded/gcc-arm-none-eabi-4_8-2014q1/bin/../lib/gcc/arm-none-eabi/4.8.3/../../../../arm-none-eabi/lib/armv7-m/libstdc++.a(tinfo.o)
                0x08016c40                std::type_info::operator==(std::type_info const&) const
 .text._ZNKSt9type_info10__do_catchEPKS_PPvj
                0x08016c70        0x4 /homes/skollbach/Downloads/ASE/gcc-arm-embedded/gcc-arm-none-eabi-4_8-2014q1/bin/../lib/gcc/arm-none-eabi/4.8.3/../../../../arm-none-eabi/lib/armv7-m/libstdc++.a(tinfo.o)
                0x08016c70                std::type_info::__do_catch(std::type_info const*, void**, unsigned int) const
 *fill*         0x08016c74        0xc 
 .text.abort    0x08016c80       0x10 /homes/skollbach/Downloads/ASE/gcc-arm-embedded/gcc-arm-none-eabi-4_8-2014q1/bin/../lib/gcc/arm-none-eabi/4.8.3/../../../../arm-none-eabi/lib/armv7-m/libc.a(lib_a-abort.o)
                0x08016c80                abort
 .text.atoi     0x08016c90        0x8 /homes/skollbach/Downloads/ASE/gcc-arm-embedded/gcc-arm-none-eabi-4_8-2014q1/bin/../lib/gcc/arm-none-eabi/4.8.3/../../../../arm-none-eabi/lib/armv7-m/libc.a(lib_a-atoi.o)
                0x08016c90                atoi
 *fill*         0x08016c98        0x8 
 .text.__cxa_atexit
                0x08016ca0       0x14 /homes/skollbach/Downloads/ASE/gcc-arm-embedded/gcc-arm-none-eabi-4_8-2014q1/bin/../lib/gcc/arm-none-eabi/4.8.3/../../../../arm-none-eabi/lib/armv7-m/libc.a(lib_a-cxa_atexit.o)
                0x08016ca0                __cxa_atexit
 *fill*         0x08016cb4        0xc 
 .text.fputc    0x08016cc0       0x28 /homes/skollbach/Downloads/ASE/gcc-arm-embedded/gcc-arm-none-eabi-4_8-2014q1/bin/../lib/gcc/arm-none-eabi/4.8.3/../../../../arm-none-eabi/lib/armv7-m/libc.a(lib_a-fputc.o)
                0x08016cc0                fputc
 *fill*         0x08016ce8        0x8 
 .text._fputs_r
                0x08016cf0       0x4c /homes/skollbach/Downloads/ASE/gcc-arm-embedded/gcc-arm-none-eabi-4_8-2014q1/bin/../lib/gcc/arm-none-eabi/4.8.3/../../../../arm-none-eabi/lib/armv7-m/libc.a(lib_a-fputs.o)
                0x08016cf0                _fputs_r
 *fill*         0x08016d3c        0x4 
 .text.fputs    0x08016d40       0x10 /homes/skollbach/Downloads/ASE/gcc-arm-embedded/gcc-arm-none-eabi-4_8-2014q1/bin/../lib/gcc/arm-none-eabi/4.8.3/../../../../arm-none-eabi/lib/armv7-m/libc.a(lib_a-fputs.o)
                0x08016d40                fputs
 .text.__sfvwrite_r
                0x08016d50      0x314 /homes/skollbach/Downloads/ASE/gcc-arm-embedded/gcc-arm-none-eabi-4_8-2014q1/bin/../lib/gcc/arm-none-eabi/4.8.3/../../../../arm-none-eabi/lib/armv7-m/libc.a(lib_a-fvwrite.o)
                0x08016d50                __sfvwrite_r
 *fill*         0x08017064        0xc 
 .text._fwrite_r
                0x08017070       0x64 /homes/skollbach/Downloads/ASE/gcc-arm-embedded/gcc-arm-none-eabi-4_8-2014q1/bin/../lib/gcc/arm-none-eabi/4.8.3/../../../../arm-none-eabi/lib/armv7-m/libc.a(lib_a-fwrite.o)
                0x08017070                _fwrite_r
 *fill*         0x080170d4        0xc 
 .text.fwrite   0x080170e0       0x24 /homes/skollbach/Downloads/ASE/gcc-arm-embedded/gcc-arm-none-eabi-4_8-2014q1/bin/../lib/gcc/arm-none-eabi/4.8.3/../../../../arm-none-eabi/lib/armv7-m/libc.a(lib_a-fwrite.o)
                0x080170e0                fwrite
 *fill*         0x08017104        0xc 
 .text.malloc   0x08017110       0x10 /homes/skollbach/Downloads/ASE/gcc-arm-embedded/gcc-arm-none-eabi-4_8-2014q1/bin/../lib/gcc/arm-none-eabi/4.8.3/../../../../arm-none-eabi/lib/armv7-m/libc.a(lib_a-malloc.o)
                0x08017110                malloc
 .text.free     0x08017120       0x10 /homes/skollbach/Downloads/ASE/gcc-arm-embedded/gcc-arm-none-eabi-4_8-2014q1/bin/../lib/gcc/arm-none-eabi/4.8.3/../../../../arm-none-eabi/lib/armv7-m/libc.a(lib_a-malloc.o)
                0x08017120                free
 .text._malloc_r
                0x08017130      0x538 /homes/skollbach/Downloads/ASE/gcc-arm-embedded/gcc-arm-none-eabi-4_8-2014q1/bin/../lib/gcc/arm-none-eabi/4.8.3/../../../../arm-none-eabi/lib/armv7-m/libc.a(lib_a-mallocr.o)
                0x08017130                _malloc_r
 *fill*         0x08017668        0x8 
 .text.memchr   0x08017670       0x94 /homes/skollbach/Downloads/ASE/gcc-arm-embedded/gcc-arm-none-eabi-4_8-2014q1/bin/../lib/gcc/arm-none-eabi/4.8.3/../../../../arm-none-eabi/lib/armv7-m/libc.a(lib_a-memchr-stub.o)
                0x08017670                memchr
 *fill*         0x08017704        0xc 
 .text.memcmp   0x08017710       0x68 /homes/skollbach/Downloads/ASE/gcc-arm-embedded/gcc-arm-none-eabi-4_8-2014q1/bin/../lib/gcc/arm-none-eabi/4.8.3/../../../../arm-none-eabi/lib/armv7-m/libc.a(lib_a-memcmp.o)
                0x08017710                memcmp
 *fill*         0x08017778        0x8 
 .text.memmove  0x08017780       0xcc /homes/skollbach/Downloads/ASE/gcc-arm-embedded/gcc-arm-none-eabi-4_8-2014q1/bin/../lib/gcc/arm-none-eabi/4.8.3/../../../../arm-none-eabi/lib/armv7-m/libc.a(lib_a-memmove.o)
                0x08017780                memmove
 *fill*         0x0801784c        0x4 
 .text.memset   0x08017850       0x94 /homes/skollbach/Downloads/ASE/gcc-arm-embedded/gcc-arm-none-eabi-4_8-2014q1/bin/../lib/gcc/arm-none-eabi/4.8.3/../../../../arm-none-eabi/lib/armv7-m/libc.a(lib_a-memset.o)
                0x08017850                memset
 *fill*         0x080178e4        0xc 
 .text.__malloc_lock
                0x080178f0        0x4 /homes/skollbach/Downloads/ASE/gcc-arm-embedded/gcc-arm-none-eabi-4_8-2014q1/bin/../lib/gcc/arm-none-eabi/4.8.3/../../../../arm-none-eabi/lib/armv7-m/libc.a(lib_a-mlock.o)
                0x080178f0                __malloc_lock
 *fill*         0x080178f4        0xc 
 .text.__malloc_unlock
                0x08017900        0x4 /homes/skollbach/Downloads/ASE/gcc-arm-embedded/gcc-arm-none-eabi-4_8-2014q1/bin/../lib/gcc/arm-none-eabi/4.8.3/../../../../arm-none-eabi/lib/armv7-m/libc.a(lib_a-mlock.o)
                0x08017900                __malloc_unlock
 *fill*         0x08017904        0xc 
 .text._putc_r  0x08017910       0x58 /homes/skollbach/Downloads/ASE/gcc-arm-embedded/gcc-arm-none-eabi-4_8-2014q1/bin/../lib/gcc/arm-none-eabi/4.8.3/../../../../arm-none-eabi/lib/armv7-m/libc.a(lib_a-putc.o)
                0x08017910                _putc_r
 *fill*         0x08017968        0x8 
 .text.realloc  0x08017970       0x10 /homes/skollbach/Downloads/ASE/gcc-arm-embedded/gcc-arm-none-eabi-4_8-2014q1/bin/../lib/gcc/arm-none-eabi/4.8.3/../../../../arm-none-eabi/lib/armv7-m/libc.a(lib_a-realloc.o)
                0x08017970                realloc
 .text._realloc_r
                0x08017980      0x3c0 /homes/skollbach/Downloads/ASE/gcc-arm-embedded/gcc-arm-none-eabi-4_8-2014q1/bin/../lib/gcc/arm-none-eabi/4.8.3/../../../../arm-none-eabi/lib/armv7-m/libc.a(lib_a-reallocr.o)
                0x08017980                _realloc_r
 .text._raise_r
                0x08017d40       0x58 /homes/skollbach/Downloads/ASE/gcc-arm-embedded/gcc-arm-none-eabi-4_8-2014q1/bin/../lib/gcc/arm-none-eabi/4.8.3/../../../../arm-none-eabi/lib/armv7-m/libc.a(lib_a-signal.o)
                0x08017d40                _raise_r
 *fill*         0x08017d98        0x8 
 .text.raise    0x08017da0       0x10 /homes/skollbach/Downloads/ASE/gcc-arm-embedded/gcc-arm-none-eabi-4_8-2014q1/bin/../lib/gcc/arm-none-eabi/4.8.3/../../../../arm-none-eabi/lib/armv7-m/libc.a(lib_a-signal.o)
                0x08017da0                raise
 .text._kill_r  0x08017db0       0x28 /homes/skollbach/Downloads/ASE/gcc-arm-embedded/gcc-arm-none-eabi-4_8-2014q1/bin/../lib/gcc/arm-none-eabi/4.8.3/../../../../arm-none-eabi/lib/armv7-m/libc.a(lib_a-signalr.o)
                0x08017db0                _kill_r
 *fill*         0x08017dd8        0x8 
 .text._getpid_r
                0x08017de0        0x4 /homes/skollbach/Downloads/ASE/gcc-arm-embedded/gcc-arm-none-eabi-4_8-2014q1/bin/../lib/gcc/arm-none-eabi/4.8.3/../../../../arm-none-eabi/lib/armv7-m/libc.a(lib_a-signalr.o)
                0x08017de0                _getpid_r
 *fill*         0x08017de4        0xc 
 .text.sprintf  0x08017df0       0x4c /homes/skollbach/Downloads/ASE/gcc-arm-embedded/gcc-arm-none-eabi-4_8-2014q1/bin/../lib/gcc/arm-none-eabi/4.8.3/../../../../arm-none-eabi/lib/armv7-m/libc.a(lib_a-sprintf.o)
                0x08017df0                sprintf
 *fill*         0x08017e3c        0x4 
 .text.strcasecmp
                0x08017e40       0x44 /homes/skollbach/Downloads/ASE/gcc-arm-embedded/gcc-arm-none-eabi-4_8-2014q1/bin/../lib/gcc/arm-none-eabi/4.8.3/../../../../arm-none-eabi/lib/armv7-m/libc.a(lib_a-strcasecmp.o)
                0x08017e40                strcasecmp
 *fill*         0x08017e84        0xc 
 .text.strlen   0x08017e90       0x60 /homes/skollbach/Downloads/ASE/gcc-arm-embedded/gcc-arm-none-eabi-4_8-2014q1/bin/../lib/gcc/arm-none-eabi/4.8.3/../../../../arm-none-eabi/lib/armv7-m/libc.a(lib_a-strlen.o)
                0x08017e90                strlen
 .text.strncmp  0x08017ef0       0xb4 /homes/skollbach/Downloads/ASE/gcc-arm-embedded/gcc-arm-none-eabi-4_8-2014q1/bin/../lib/gcc/arm-none-eabi/4.8.3/../../../../arm-none-eabi/lib/armv7-m/libc.a(lib_a-strncmp.o)
                0x08017ef0                strncmp
 *fill*         0x08017fa4        0xc 
 .text.strpbrk  0x08017fb0       0x50 /homes/skollbach/Downloads/ASE/gcc-arm-embedded/gcc-arm-none-eabi-4_8-2014q1/bin/../lib/gcc/arm-none-eabi/4.8.3/../../../../arm-none-eabi/lib/armv7-m/libc.a(lib_a-strpbrk.o)
                0x08017fb0                strpbrk
 .text.strspn   0x08018000       0x40 /homes/skollbach/Downloads/ASE/gcc-arm-embedded/gcc-arm-none-eabi-4_8-2014q1/bin/../lib/gcc/arm-none-eabi/4.8.3/../../../../arm-none-eabi/lib/armv7-m/libc.a(lib_a-strspn.o)
                0x08018000                strspn
 .text._strtol_r
                0x08018040      0x114 /homes/skollbach/Downloads/ASE/gcc-arm-embedded/gcc-arm-none-eabi-4_8-2014q1/bin/../lib/gcc/arm-none-eabi/4.8.3/../../../../arm-none-eabi/lib/armv7-m/libc.a(lib_a-strtol.o)
                0x08018040                _strtol_r
 *fill*         0x08018154        0xc 
 .text.strtol   0x08018160       0x18 /homes/skollbach/Downloads/ASE/gcc-arm-embedded/gcc-arm-none-eabi-4_8-2014q1/bin/../lib/gcc/arm-none-eabi/4.8.3/../../../../arm-none-eabi/lib/armv7-m/libc.a(lib_a-strtol.o)
                0x08018160                strtol
 *fill*         0x08018178        0x8 
 .text._svfprintf_r
                0x08018180     0x14e0 /homes/skollbach/Downloads/ASE/gcc-arm-embedded/gcc-arm-none-eabi-4_8-2014q1/bin/../lib/gcc/arm-none-eabi/4.8.3/../../../../arm-none-eabi/lib/armv7-m/libc.a(lib_a-svfprintf.o)
                0x08018180                _svfprintf_r
 .text.write    0x08019660       0x18 /homes/skollbach/Downloads/ASE/gcc-arm-embedded/gcc-arm-none-eabi-4_8-2014q1/bin/../lib/gcc/arm-none-eabi/4.8.3/../../../../arm-none-eabi/lib/armv7-m/libc.a(lib_a-syswrite.o)
                0x08019660                write
 *fill*         0x08019678        0x8 
 .text.__swbuf_r
                0x08019680       0xa8 /homes/skollbach/Downloads/ASE/gcc-arm-embedded/gcc-arm-none-eabi-4_8-2014q1/bin/../lib/gcc/arm-none-eabi/4.8.3/../../../../arm-none-eabi/lib/armv7-m/libc.a(lib_a-wbuf.o)
                0x08019680                __swbuf_r
 *fill*         0x08019728        0x8 
 .text.__swsetup_r
                0x08019730       0xc4 /homes/skollbach/Downloads/ASE/gcc-arm-embedded/gcc-arm-none-eabi-4_8-2014q1/bin/../lib/gcc/arm-none-eabi/4.8.3/../../../../arm-none-eabi/lib/armv7-m/libc.a(lib_a-wsetup.o)
                0x08019730                __swsetup_r
 *fill*         0x080197f4        0xc 
 .text.__register_exitproc
                0x08019800       0xa8 /homes/skollbach/Downloads/ASE/gcc-arm-embedded/gcc-arm-none-eabi-4_8-2014q1/bin/../lib/gcc/arm-none-eabi/4.8.3/../../../../arm-none-eabi/lib/armv7-m/libc.a(lib_a-__atexit.o)
                0x08019800                __register_exitproc
 *fill*         0x080198a8        0x8 
 .text.quorem   0x080198b0      0x134 /homes/skollbach/Downloads/ASE/gcc-arm-embedded/gcc-arm-none-eabi-4_8-2014q1/bin/../lib/gcc/arm-none-eabi/4.8.3/../../../../arm-none-eabi/lib/armv7-m/libc.a(lib_a-dtoa.o)
 *fill*         0x080199e4        0xc 
 .text._dtoa_r  0x080199f0      0xe38 /homes/skollbach/Downloads/ASE/gcc-arm-embedded/gcc-arm-none-eabi-4_8-2014q1/bin/../lib/gcc/arm-none-eabi/4.8.3/../../../../arm-none-eabi/lib/armv7-m/libc.a(lib_a-dtoa.o)
                0x080199f0                _dtoa_r
 *fill*         0x0801a828        0x8 
 .text.__sflush_r
                0x0801a830      0x148 /homes/skollbach/Downloads/ASE/gcc-arm-embedded/gcc-arm-none-eabi-4_8-2014q1/bin/../lib/gcc/arm-none-eabi/4.8.3/../../../../arm-none-eabi/lib/armv7-m/libc.a(lib_a-fflush.o)
                0x0801a830                __sflush_r
 *fill*         0x0801a978        0x8 
 .text._fflush_r
                0x0801a980       0x2c /homes/skollbach/Downloads/ASE/gcc-arm-embedded/gcc-arm-none-eabi-4_8-2014q1/bin/../lib/gcc/arm-none-eabi/4.8.3/../../../../arm-none-eabi/lib/armv7-m/libc.a(lib_a-fflush.o)
                0x0801a980                _fflush_r
 *fill*         0x0801a9ac        0x4 
 .text._cleanup_r
                0x0801a9b0        0xc /homes/skollbach/Downloads/ASE/gcc-arm-embedded/gcc-arm-none-eabi-4_8-2014q1/bin/../lib/gcc/arm-none-eabi/4.8.3/../../../../arm-none-eabi/lib/armv7-m/libc.a(lib_a-findfp.o)
                0x0801a9b0                _cleanup_r
 *fill*         0x0801a9bc        0x4 
 .text.__sinit  0x0801a9c0       0xf4 /homes/skollbach/Downloads/ASE/gcc-arm-embedded/gcc-arm-none-eabi-4_8-2014q1/bin/../lib/gcc/arm-none-eabi/4.8.3/../../../../arm-none-eabi/lib/armv7-m/libc.a(lib_a-findfp.o)
                0x0801a9c0                __sinit
 *fill*         0x0801aab4        0xc 
 .text.__sfp_lock_acquire
                0x0801aac0        0x4 /homes/skollbach/Downloads/ASE/gcc-arm-embedded/gcc-arm-none-eabi-4_8-2014q1/bin/../lib/gcc/arm-none-eabi/4.8.3/../../../../arm-none-eabi/lib/armv7-m/libc.a(lib_a-findfp.o)
                0x0801aac0                __sfp_lock_acquire
 *fill*         0x0801aac4        0xc 
 .text.__sfp_lock_release
                0x0801aad0        0x4 /homes/skollbach/Downloads/ASE/gcc-arm-embedded/gcc-arm-none-eabi-4_8-2014q1/bin/../lib/gcc/arm-none-eabi/4.8.3/../../../../arm-none-eabi/lib/armv7-m/libc.a(lib_a-findfp.o)
                0x0801aad0                __sfp_lock_release
 *fill*         0x0801aad4        0xc 
 .text._malloc_trim_r
                0x0801aae0       0x9c /homes/skollbach/Downloads/ASE/gcc-arm-embedded/gcc-arm-none-eabi-4_8-2014q1/bin/../lib/gcc/arm-none-eabi/4.8.3/../../../../arm-none-eabi/lib/armv7-m/libc.a(lib_a-freer.o)
                0x0801aae0                _malloc_trim_r
 *fill*         0x0801ab7c        0x4 
 .text._free_r  0x0801ab80      0x198 /homes/skollbach/Downloads/ASE/gcc-arm-embedded/gcc-arm-none-eabi-4_8-2014q1/bin/../lib/gcc/arm-none-eabi/4.8.3/../../../../arm-none-eabi/lib/armv7-m/libc.a(lib_a-freer.o)
                0x0801ab80                _free_r
 *fill*         0x0801ad18        0x8 
 .text._fwalk   0x0801ad20       0x48 /homes/skollbach/Downloads/ASE/gcc-arm-embedded/gcc-arm-none-eabi-4_8-2014q1/bin/../lib/gcc/arm-none-eabi/4.8.3/../../../../arm-none-eabi/lib/armv7-m/libc.a(lib_a-fwalk.o)
                0x0801ad20                _fwalk
 *fill*         0x0801ad68        0x8 
 .text._localeconv_r
                0x0801ad70        0x8 /homes/skollbach/Downloads/ASE/gcc-arm-embedded/gcc-arm-none-eabi-4_8-2014q1/bin/../lib/gcc/arm-none-eabi/4.8.3/../../../../arm-none-eabi/lib/armv7-m/libc.a(lib_a-locale.o)
                0x0801ad70                _localeconv_r
 *fill*         0x0801ad78        0x8 
 .text.__smakebuf_r
                0x0801ad80       0xe0 /homes/skollbach/Downloads/ASE/gcc-arm-embedded/gcc-arm-none-eabi-4_8-2014q1/bin/../lib/gcc/arm-none-eabi/4.8.3/../../../../arm-none-eabi/lib/armv7-m/libc.a(lib_a-makebuf.o)
                0x0801ad80                __smakebuf_r
 .text._Balloc  0x0801ae60       0x4c /homes/skollbach/Downloads/ASE/gcc-arm-embedded/gcc-arm-none-eabi-4_8-2014q1/bin/../lib/gcc/arm-none-eabi/4.8.3/../../../../arm-none-eabi/lib/armv7-m/libc.a(lib_a-mprec.o)
                0x0801ae60                _Balloc
 *fill*         0x0801aeac        0x4 
 .text._Bfree   0x0801aeb0       0x14 /homes/skollbach/Downloads/ASE/gcc-arm-embedded/gcc-arm-none-eabi-4_8-2014q1/bin/../lib/gcc/arm-none-eabi/4.8.3/../../../../arm-none-eabi/lib/armv7-m/libc.a(lib_a-mprec.o)
                0x0801aeb0                _Bfree
 *fill*         0x0801aec4        0xc 
 .text.__multadd
                0x0801aed0       0x94 /homes/skollbach/Downloads/ASE/gcc-arm-embedded/gcc-arm-none-eabi-4_8-2014q1/bin/../lib/gcc/arm-none-eabi/4.8.3/../../../../arm-none-eabi/lib/armv7-m/libc.a(lib_a-mprec.o)
                0x0801aed0                __multadd
 *fill*         0x0801af64        0xc 
 .text.__hi0bits
                0x0801af70       0x40 /homes/skollbach/Downloads/ASE/gcc-arm-embedded/gcc-arm-none-eabi-4_8-2014q1/bin/../lib/gcc/arm-none-eabi/4.8.3/../../../../arm-none-eabi/lib/armv7-m/libc.a(lib_a-mprec.o)
                0x0801af70                __hi0bits
 .text.__lo0bits
                0x0801afb0       0x5c /homes/skollbach/Downloads/ASE/gcc-arm-embedded/gcc-arm-none-eabi-4_8-2014q1/bin/../lib/gcc/arm-none-eabi/4.8.3/../../../../arm-none-eabi/lib/armv7-m/libc.a(lib_a-mprec.o)
                0x0801afb0                __lo0bits
 *fill*         0x0801b00c        0x4 
 .text.__i2b    0x0801b010       0x14 /homes/skollbach/Downloads/ASE/gcc-arm-embedded/gcc-arm-none-eabi-4_8-2014q1/bin/../lib/gcc/arm-none-eabi/4.8.3/../../../../arm-none-eabi/lib/armv7-m/libc.a(lib_a-mprec.o)
                0x0801b010                __i2b
 *fill*         0x0801b024        0xc 
 .text.__multiply
                0x0801b030      0x13c /homes/skollbach/Downloads/ASE/gcc-arm-embedded/gcc-arm-none-eabi-4_8-2014q1/bin/../lib/gcc/arm-none-eabi/4.8.3/../../../../arm-none-eabi/lib/armv7-m/libc.a(lib_a-mprec.o)
                0x0801b030                __multiply
 *fill*         0x0801b16c        0x4 
 .text.__pow5mult
                0x0801b170       0x9c /homes/skollbach/Downloads/ASE/gcc-arm-embedded/gcc-arm-none-eabi-4_8-2014q1/bin/../lib/gcc/arm-none-eabi/4.8.3/../../../../arm-none-eabi/lib/armv7-m/libc.a(lib_a-mprec.o)
                0x0801b170                __pow5mult
 *fill*         0x0801b20c        0x4 
 .text.__lshift
                0x0801b210       0xbc /homes/skollbach/Downloads/ASE/gcc-arm-embedded/gcc-arm-none-eabi-4_8-2014q1/bin/../lib/gcc/arm-none-eabi/4.8.3/../../../../arm-none-eabi/lib/armv7-m/libc.a(lib_a-mprec.o)
                0x0801b210                __lshift
 *fill*         0x0801b2cc        0x4 
 .text.__mcmp   0x0801b2d0       0x48 /homes/skollbach/Downloads/ASE/gcc-arm-embedded/gcc-arm-none-eabi-4_8-2014q1/bin/../lib/gcc/arm-none-eabi/4.8.3/../../../../arm-none-eabi/lib/armv7-m/libc.a(lib_a-mprec.o)
                0x0801b2d0                __mcmp
 *fill*         0x0801b318        0x8 
 .text.__mdiff  0x0801b320       0xd8 /homes/skollbach/Downloads/ASE/gcc-arm-embedded/gcc-arm-none-eabi-4_8-2014q1/bin/../lib/gcc/arm-none-eabi/4.8.3/../../../../arm-none-eabi/lib/armv7-m/libc.a(lib_a-mprec.o)
                0x0801b320                __mdiff
 *fill*         0x0801b3f8        0x8 
 .text.__d2b    0x0801b400       0xbc /homes/skollbach/Downloads/ASE/gcc-arm-embedded/gcc-arm-none-eabi-4_8-2014q1/bin/../lib/gcc/arm-none-eabi/4.8.3/../../../../arm-none-eabi/lib/armv7-m/libc.a(lib_a-mprec.o)
                0x0801b400                __d2b
 *fill*         0x0801b4bc        0x4 
 .text.__fpclassifyd
                0x0801b4c0       0x50 /homes/skollbach/Downloads/ASE/gcc-arm-embedded/gcc-arm-none-eabi-4_8-2014q1/bin/../lib/gcc/arm-none-eabi/4.8.3/../../../../arm-none-eabi/lib/armv7-m/libc.a(lib_a-s_fpclassify.o)
                0x0801b4c0                __fpclassifyd
 .text.__sread  0x0801b510       0x24 /homes/skollbach/Downloads/ASE/gcc-arm-embedded/gcc-arm-none-eabi-4_8-2014q1/bin/../lib/gcc/arm-none-eabi/4.8.3/../../../../arm-none-eabi/lib/armv7-m/libc.a(lib_a-stdio.o)
                0x0801b510                __sread
 *fill*         0x0801b534        0xc 
 .text.__swrite
                0x0801b540       0x38 /homes/skollbach/Downloads/ASE/gcc-arm-embedded/gcc-arm-none-eabi-4_8-2014q1/bin/../lib/gcc/arm-none-eabi/4.8.3/../../../../arm-none-eabi/lib/armv7-m/libc.a(lib_a-stdio.o)
                0x0801b540                __swrite
 *fill*         0x0801b578        0x8 
 .text.__sseek  0x0801b580       0x20 /homes/skollbach/Downloads/ASE/gcc-arm-embedded/gcc-arm-none-eabi-4_8-2014q1/bin/../lib/gcc/arm-none-eabi/4.8.3/../../../../arm-none-eabi/lib/armv7-m/libc.a(lib_a-stdio.o)
                0x0801b580                __sseek
 .text.__sclose
                0x0801b5a0        0x8 /homes/skollbach/Downloads/ASE/gcc-arm-embedded/gcc-arm-none-eabi-4_8-2014q1/bin/../lib/gcc/arm-none-eabi/4.8.3/../../../../arm-none-eabi/lib/armv7-m/libc.a(lib_a-stdio.o)
                0x0801b5a0                __sclose
 *fill*         0x0801b5a8        0x8 
 .text.__ssprint_r
                0x0801b5b0      0x100 /homes/skollbach/Downloads/ASE/gcc-arm-embedded/gcc-arm-none-eabi-4_8-2014q1/bin/../lib/gcc/arm-none-eabi/4.8.3/../../../../arm-none-eabi/lib/armv7-m/libc.a(lib_a-svfiprintf.o)
                0x0801b5b0                __ssprint_r
 .text._calloc_r
                0x0801b6b0       0x60 /homes/skollbach/Downloads/ASE/gcc-arm-embedded/gcc-arm-none-eabi-4_8-2014q1/bin/../lib/gcc/arm-none-eabi/4.8.3/../../../../arm-none-eabi/lib/armv7-m/libc.a(lib_a-callocr.o)
                0x0801b6b0                _calloc_r
 .text._fclose_r
                0x0801b710       0x80 /homes/skollbach/Downloads/ASE/gcc-arm-embedded/gcc-arm-none-eabi-4_8-2014q1/bin/../lib/gcc/arm-none-eabi/4.8.3/../../../../arm-none-eabi/lib/armv7-m/libc.a(lib_a-fclose.o)
                0x0801b710                _fclose_r
 .text.fclose   0x0801b790       0x10 /homes/skollbach/Downloads/ASE/gcc-arm-embedded/gcc-arm-none-eabi-4_8-2014q1/bin/../lib/gcc/arm-none-eabi/4.8.3/../../../../arm-none-eabi/lib/armv7-m/libc.a(lib_a-fclose.o)
                0x0801b790                fclose
 *(.rodata)
 .rodata        0x0801b7a0        0x8 build/obj/Lidar.o
 *fill*         0x0801b7a8        0x8 
 .rodata        0x0801b7b0        0x4 build/obj/serial_can_mux.o
 *fill*         0x0801b7b4        0xc 
 .rodata        0x0801b7c0       0x24 build/obj/main.o
 *fill*         0x0801b7e4        0xc 
 .rodata        0x0801b7f0      0x738 /homes/skollbach/Downloads/ASE/gcc-arm-embedded/gcc-arm-none-eabi-4_8-2014q1/bin/../lib/gcc/arm-none-eabi/4.8.3/../../../../arm-none-eabi/lib/armv7-m/libstdc++.a(cp-demangle.o)
 *(.rodata.*)
 *fill*         0x0801bf28        0x8 
 .rodata.str1.4
                0x0801bf30        0x5 build/obj/chsys.o
                                  0x8 (size before relaxing)
 *fill*         0x0801bf35        0xb 
 .rodata.str1.4
                0x0801bf40       0x56 build/obj/chdebug.o
                                 0x58 (size before relaxing)
 *fill*         0x0801bf96        0xa 
 .rodata.str1.4
                0x0801bfa0       0x31 build/obj/chvt.o
                                 0x34 (size before relaxing)
 *fill*         0x0801bfd1        0xf 
 .rodata.str1.4
                0x0801bfe0       0x23 build/obj/chschd.o
                                 0x24 (size before relaxing)
 *fill*         0x0801c003        0xd 
 .rodata.str1.4
                0x0801c010       0x94 build/obj/chthreads.o
 *fill*         0x0801c0a4        0xc 
 .rodata.str1.4
                0x0801c0b0       0x46 build/obj/chdynamic.o
                                 0x48 (size before relaxing)
 *fill*         0x0801c0f6        0xa 
 .rodata.ch_debug
                0x0801c100       0x18 build/obj/chregistry.o
                0x0801c100                ch_debug
 *fill*         0x0801c118        0x8 
 .rodata.str1.4
                0x0801c120      0x146 build/obj/chsem.o
                                0x148 (size before relaxing)
 *fill*         0x0801c266        0xa 
 .rodata.str1.4
                0x0801c270       0xab build/obj/chmtx.o
                                 0xac (size before relaxing)
 *fill*         0x0801c31b        0x5 
 .rodata.str1.4
                0x0801c320       0x90 build/obj/chevents.o
 .rodata.str1.4
                0x0801c3b0       0x29 build/obj/chqueues.o
                                 0x2c (size before relaxing)
 *fill*         0x0801c3d9        0x7 
 .rodata.str1.4
                0x0801c3e0       0x31 build/obj/chheap.o
                                 0x34 (size before relaxing)
 *fill*         0x0801c411        0xf 
 .rodata.str1.4
                0x0801c420       0x48 build/obj/chmempools.o
 *fill*         0x0801c468        0x8 
 .rodata.str1.4
                0x0801c470       0xc4 build/obj/can.o
 *fill*         0x0801c534        0xc 
 .rodata.str1.4
                0x0801c540       0xcd build/obj/ext.o
                                 0xd0 (size before relaxing)
 *fill*         0x0801c60d        0x3 
 .rodata.str1.4
                0x0801c610       0xea build/obj/i2c.o
                                 0xec (size before relaxing)
 *fill*         0x0801c6fa        0x6 
 .rodata.str1.4
                0x0801c700       0x5f build/obj/serial.o
                                 0x60 (size before relaxing)
 *fill*         0x0801c75f        0x1 
 .rodata.vmt    0x0801c760       0x20 build/obj/serial.o
 .rodata.str1.4
                0x0801c780      0x236 build/obj/spi.o
                                0x238 (size before relaxing)
 *fill*         0x0801c9b6        0xa 
 .rodata.str1.4
                0x0801c9c0       0x47 build/obj/stm32_dma.o
                                 0x48 (size before relaxing)
 *fill*         0x0801ca07        0x9 
 .rodata._stm32_dma_streams
                0x0801ca10       0x90 build/obj/stm32_dma.o
                0x0801ca10                _stm32_dma_streams
 .rodata.cfgtab.6513
                0x0801caa0       0x14 build/obj/pal_lld.o
 *fill*         0x0801cab4        0xc 
 .rodata.str1.4
                0x0801cac0      0x12c build/obj/i2c_lld.o
 *fill*         0x0801cbec        0x4 
 .rodata.str1.4
                0x0801cbf0       0x50 build/obj/spi_lld.o
 .rodata.default_config
                0x0801cc40        0xc build/obj/serial_lld.o
 *fill*         0x0801cc4c        0x4 
 .rodata.pal_default_config
                0x0801cc50       0x54 build/obj/board.o
                0x0801cc50                pal_default_config
 *fill*         0x0801cca4        0xc 
 .rodata.str1.4
                0x0801ccb0        0xc build/obj/syscalls.o
 *fill*         0x0801ccbc        0x4 
 .rodata.str1.4
                0x0801ccc0        0x7 build/obj/chprintf.o
                                  0x8 (size before relaxing)
 *fill*         0x0801ccc7        0x9 
 .rodata.str1.4
                0x0801ccd0      0x221 build/obj/shell.o
                                0x228 (size before relaxing)
 *fill*         0x0801cef1        0xf 
 .rodata.str1.4
                0x0801cf00       0x1a build/obj/Debug.o
                                 0x1c (size before relaxing)
 *fill*         0x0801cf1a        0x6 
 .rodata._ZTVN10chibios_rt10BaseThreadE
                0x0801cf20       0x18 build/obj/ch.o
                0x0801cf20                vtable for chibios_rt::BaseThread
 *fill*         0x0801cf38        0x8 
 .rodata.str1.4
                0x0801cf40      0x105 build/obj/ch.o
                                0x108 (size before relaxing)
 *fill*         0x0801d045        0xb 
 .rodata._ZTVN10chibios_rt15ThreadReferenceE
                0x0801d050       0x10 build/obj/ch.o
                0x0801d050                vtable for chibios_rt::ThreadReference
 .rodata._ZZN5amiro5ColorC1ENS0_11GlobalColorEE13global_colors
                0x0801d060      0x1bc build/obj/Color.o
 *fill*         0x0801d21c        0x4 
 .rodata._ZTVN5amiro11HWSPIDriverE
                0x0801d220       0x10 build/obj/HWSPIDriver.o
                0x0801d220                vtable for amiro::HWSPIDriver
 .rodata._ZTVN5amiro9I2CDriverE
                0x0801d230       0x30 build/obj/HWI2CDriver.o
                0x0801d230                vtable for amiro::I2CDriver
 .rodata._ZTVN5amiro11HWI2CDriverE
                0x0801d260       0x30 build/obj/HWI2CDriver.o
                0x0801d260                vtable for amiro::HWI2CDriver
 .rodata._ZTVN5amiro7TLC5947E
                0x0801d290       0x20 build/obj/tlc5947.o
                0x0801d290                vtable for amiro::TLC5947
 .rodata.str1.4
                0x0801d2b0        0x8 build/obj/tlc5947.o
 *fill*         0x0801d2b8        0x8 
 .rodata._ZTVN5amiro9A2500R24AE
                0x0801d2c0       0x20 build/obj/a2500r24a.o
                0x0801d2c0                vtable for amiro::A2500R24A
 .rodata._ZN5amiroL36eeprom_at24_base_file_stream_methodsE
                0x0801d2e0       0x24 build/obj/at24.o
 *fill*         0x0801d304        0xc 
 .rodata.str1.4
                0x0801d310       0x18 build/obj/ControllerAreaNetworkRx.o
 *fill*         0x0801d328        0x8 
 .rodata._ZTVN5amiro23ControllerAreaNetworkRxE
                0x0801d330       0x20 build/obj/ControllerAreaNetworkRx.o
                0x0801d330                vtable for amiro::ControllerAreaNetworkRx
 .rodata._ZTVN5amiro23ControllerAreaNetworkTxE
                0x0801d350       0x28 build/obj/ControllerAreaNetworkTx.o
                0x0801d350                vtable for amiro::ControllerAreaNetworkTx
 *fill*         0x0801d378        0x8 
 .rodata.str1.4
                0x0801d380       0x18 build/obj/ControllerAreaNetworkTx.o
 *fill*         0x0801d398        0x8 
 .rodata.str1.4
                0x0801d3a0       0xf4 build/obj/Lidar.o
 *fill*         0x0801d494        0xc 
 .rodata._ZTVN5amiro5LidarE
                0x0801d4a0       0x18 build/obj/Lidar.o
                0x0801d4a0                vtable for amiro::Lidar
 *fill*         0x0801d4b8        0x8 
 .rodata._ZTVN5amiro12SerialCanMuxE
                0x0801d4c0       0x20 build/obj/serial_can_mux.o
                0x0801d4c0                vtable for amiro::SerialCanMux
 .rodata.str1.4
                0x0801d4e0       0xdf build/obj/serial_can_mux.o
                                 0xe0 (size before relaxing)
 *fill*         0x0801d5bf        0x1 
 .rodata.str1.4
                0x0801d5c0        0xe build/obj/LightRing.o
                                 0x10 (size before relaxing)
 *fill*         0x0801d5ce        0x2 
 .rodata._ZTVN5amiro9LightRingE
                0x0801d5d0       0x48 build/obj/LightRing.o
                0x0801d5d0                vtable for amiro::LightRing
 *fill*         0x0801d618        0x8 
 .rodata._ZTVN5amiro10UserThreadE
                0x0801d620       0x20 build/obj/userthread.o
                0x0801d620                vtable for amiro::UserThread
 .rodata.CSWTCH.50
                0x0801d640       0x14 build/obj/main.o
 *fill*         0x0801d654        0xc 
 .rodata.CSWTCH.51
                0x0801d660       0x14 build/obj/main.o
 *fill*         0x0801d674        0xc 
 .rodata.CSWTCH.49
                0x0801d680       0x14 build/obj/main.o
 *fill*         0x0801d694        0xc 
 .rodata._ZL10shell_cfg1
                0x0801d6a0        0x8 build/obj/main.o
 *fill*         0x0801d6a8        0x8 
 .rodata.str1.4
                0x0801d6b0      0xb54 build/obj/main.o
                                0xb78 (size before relaxing)
 *fill*         0x0801e204        0xc 
 .rodata._ZL8commands
                0x0801e210       0x58 build/obj/main.o
 *fill*         0x0801e268        0x8 
 .rodata.str1.4
                0x0801e270       0x3b /homes/skollbach/Downloads/ASE/gcc-arm-embedded/gcc-arm-none-eabi-4_8-2014q1/bin/../lib/gcc/arm-none-eabi/4.8.3/../../../../arm-none-eabi/lib/armv7-m/libstdc++.a(pure.o)
                                 0x3c (size before relaxing)
 *fill*         0x0801e2ab        0x5 
 .rodata.str1.4
                0x0801e2b0       0x94 /homes/skollbach/Downloads/ASE/gcc-arm-embedded/gcc-arm-none-eabi-4_8-2014q1/bin/../lib/gcc/arm-none-eabi/4.8.3/../../../../arm-none-eabi/lib/armv7-m/libstdc++.a(vterminate.o)
 *fill*         0x0801e344        0xc 
 .rodata._ZTVSt9exception
                0x0801e350       0x18 /homes/skollbach/Downloads/ASE/gcc-arm-embedded/gcc-arm-none-eabi-4_8-2014q1/bin/../lib/gcc/arm-none-eabi/4.8.3/../../../../arm-none-eabi/lib/armv7-m/libstdc++.a(eh_exception.o)
                0x0801e350                vtable for std::exception
 *fill*         0x0801e368        0x8 
 .rodata._ZTIN10__cxxabiv115__forced_unwindE
                0x0801e370        0x8 /homes/skollbach/Downloads/ASE/gcc-arm-embedded/gcc-arm-none-eabi-4_8-2014q1/bin/../lib/gcc/arm-none-eabi/4.8.3/../../../../arm-none-eabi/lib/armv7-m/libstdc++.a(eh_exception.o)
                0x0801e370                typeinfo for __cxxabiv1::__forced_unwind
 *fill*         0x0801e378        0x8 
 .rodata._ZTISt9exception
                0x0801e380        0x8 /homes/skollbach/Downloads/ASE/gcc-arm-embedded/gcc-arm-none-eabi-4_8-2014q1/bin/../lib/gcc/arm-none-eabi/4.8.3/../../../../arm-none-eabi/lib/armv7-m/libstdc++.a(eh_exception.o)
                0x0801e380                typeinfo for std::exception
 *fill*         0x0801e388        0x8 
 .rodata._ZTSSt13bad_exception
                0x0801e390       0x14 /homes/skollbach/Downloads/ASE/gcc-arm-embedded/gcc-arm-none-eabi-4_8-2014q1/bin/../lib/gcc/arm-none-eabi/4.8.3/../../../../arm-none-eabi/lib/armv7-m/libstdc++.a(eh_exception.o)
                0x0801e390                typeinfo name for std::bad_exception
 *fill*         0x0801e3a4        0xc 
 .rodata.str1.4
                0x0801e3b0       0x23 /homes/skollbach/Downloads/ASE/gcc-arm-embedded/gcc-arm-none-eabi-4_8-2014q1/bin/../lib/gcc/arm-none-eabi/4.8.3/../../../../arm-none-eabi/lib/armv7-m/libstdc++.a(eh_exception.o)
                                 0x24 (size before relaxing)
 *fill*         0x0801e3d3        0xd 
 .rodata._ZTSN10__cxxabiv119__foreign_exceptionE
                0x0801e3e0       0x24 /homes/skollbach/Downloads/ASE/gcc-arm-embedded/gcc-arm-none-eabi-4_8-2014q1/bin/../lib/gcc/arm-none-eabi/4.8.3/../../../../arm-none-eabi/lib/armv7-m/libstdc++.a(eh_exception.o)
                0x0801e3e0                typeinfo name for __cxxabiv1::__foreign_exception
 *fill*         0x0801e404        0xc 
 .rodata._ZTIN10__cxxabiv119__foreign_exceptionE
                0x0801e410        0x8 /homes/skollbach/Downloads/ASE/gcc-arm-embedded/gcc-arm-none-eabi-4_8-2014q1/bin/../lib/gcc/arm-none-eabi/4.8.3/../../../../arm-none-eabi/lib/armv7-m/libstdc++.a(eh_exception.o)
                0x0801e410                typeinfo for __cxxabiv1::__foreign_exception
 *fill*         0x0801e418        0x8 
 .rodata._ZTVSt13bad_exception
                0x0801e420       0x18 /homes/skollbach/Downloads/ASE/gcc-arm-embedded/gcc-arm-none-eabi-4_8-2014q1/bin/../lib/gcc/arm-none-eabi/4.8.3/../../../../arm-none-eabi/lib/armv7-m/libstdc++.a(eh_exception.o)
                0x0801e420                vtable for std::bad_exception
 *fill*         0x0801e438        0x8 
 .rodata._ZTSSt9exception
                0x0801e440       0x10 /homes/skollbach/Downloads/ASE/gcc-arm-embedded/gcc-arm-none-eabi-4_8-2014q1/bin/../lib/gcc/arm-none-eabi/4.8.3/../../../../arm-none-eabi/lib/armv7-m/libstdc++.a(eh_exception.o)
                0x0801e440                typeinfo name for std::exception
 .rodata._ZTSN10__cxxabiv115__forced_unwindE
                0x0801e450       0x20 /homes/skollbach/Downloads/ASE/gcc-arm-embedded/gcc-arm-none-eabi-4_8-2014q1/bin/../lib/gcc/arm-none-eabi/4.8.3/../../../../arm-none-eabi/lib/armv7-m/libstdc++.a(eh_exception.o)
                0x0801e450                typeinfo name for __cxxabiv1::__forced_unwind
 .rodata._ZTISt13bad_exception
                0x0801e470        0xc /homes/skollbach/Downloads/ASE/gcc-arm-embedded/gcc-arm-none-eabi-4_8-2014q1/bin/../lib/gcc/arm-none-eabi/4.8.3/../../../../arm-none-eabi/lib/armv7-m/libstdc++.a(eh_exception.o)
                0x0801e470                typeinfo for std::bad_exception
 *fill*         0x0801e47c        0x4 
 .rodata._ZTVN10__cxxabiv117__class_type_infoE
                0x0801e480       0x30 /homes/skollbach/Downloads/ASE/gcc-arm-embedded/gcc-arm-none-eabi-4_8-2014q1/bin/../lib/gcc/arm-none-eabi/4.8.3/../../../../arm-none-eabi/lib/armv7-m/libstdc++.a(class_type_info.o)
                0x0801e480                vtable for __cxxabiv1::__class_type_info
 .rodata._ZTIN10__cxxabiv117__class_type_infoE
                0x0801e4b0        0xc /homes/skollbach/Downloads/ASE/gcc-arm-embedded/gcc-arm-none-eabi-4_8-2014q1/bin/../lib/gcc/arm-none-eabi/4.8.3/../../../../arm-none-eabi/lib/armv7-m/libstdc++.a(class_type_info.o)
                0x0801e4b0                typeinfo for __cxxabiv1::__class_type_info
 *fill*         0x0801e4bc        0x4 
 .rodata._ZTSN10__cxxabiv117__class_type_infoE
                0x0801e4c0       0x24 /homes/skollbach/Downloads/ASE/gcc-arm-embedded/gcc-arm-none-eabi-4_8-2014q1/bin/../lib/gcc/arm-none-eabi/4.8.3/../../../../arm-none-eabi/lib/armv7-m/libstdc++.a(class_type_info.o)
                0x0801e4c0                typeinfo name for __cxxabiv1::__class_type_info
 *fill*         0x0801e4e4        0xc 
 .rodata.str1.4
                0x0801e4f0      0x7ea /homes/skollbach/Downloads/ASE/gcc-arm-embedded/gcc-arm-none-eabi-4_8-2014q1/bin/../lib/gcc/arm-none-eabi/4.8.3/../../../../arm-none-eabi/lib/armv7-m/libstdc++.a(cp-demangle.o)
                                0x840 (size before relaxing)
 *fill*         0x0801ecda        0x6 
 .rodata._ZTVN10__cxxabiv120__si_class_type_infoE
                0x0801ece0       0x30 /homes/skollbach/Downloads/ASE/gcc-arm-embedded/gcc-arm-none-eabi-4_8-2014q1/bin/../lib/gcc/arm-none-eabi/4.8.3/../../../../arm-none-eabi/lib/armv7-m/libstdc++.a(si_class_type_info.o)
                0x0801ece0                vtable for __cxxabiv1::__si_class_type_info
 .rodata._ZTIN10__cxxabiv120__si_class_type_infoE
                0x0801ed10        0xc /homes/skollbach/Downloads/ASE/gcc-arm-embedded/gcc-arm-none-eabi-4_8-2014q1/bin/../lib/gcc/arm-none-eabi/4.8.3/../../../../arm-none-eabi/lib/armv7-m/libstdc++.a(si_class_type_info.o)
                0x0801ed10                typeinfo for __cxxabiv1::__si_class_type_info
 *fill*         0x0801ed1c        0x4 
 .rodata._ZTSN10__cxxabiv120__si_class_type_infoE
                0x0801ed20       0x28 /homes/skollbach/Downloads/ASE/gcc-arm-embedded/gcc-arm-none-eabi-4_8-2014q1/bin/../lib/gcc/arm-none-eabi/4.8.3/../../../../arm-none-eabi/lib/armv7-m/libstdc++.a(si_class_type_info.o)
                0x0801ed20                typeinfo name for __cxxabiv1::__si_class_type_info
 *fill*         0x0801ed48        0x8 
 .rodata._ZTISt9type_info
                0x0801ed50        0x8 /homes/skollbach/Downloads/ASE/gcc-arm-embedded/gcc-arm-none-eabi-4_8-2014q1/bin/../lib/gcc/arm-none-eabi/4.8.3/../../../../arm-none-eabi/lib/armv7-m/libstdc++.a(tinfo.o)
                0x0801ed50                typeinfo for std::type_info
 *fill*         0x0801ed58        0x8 
 .rodata._ZTSSt9type_info
                0x0801ed60       0x10 /homes/skollbach/Downloads/ASE/gcc-arm-embedded/gcc-arm-none-eabi-4_8-2014q1/bin/../lib/gcc/arm-none-eabi/4.8.3/../../../../arm-none-eabi/lib/armv7-m/libstdc++.a(tinfo.o)
                0x0801ed60                typeinfo name for std::type_info
 .rodata._ZTVSt9type_info
                0x0801ed70       0x20 /homes/skollbach/Downloads/ASE/gcc-arm-embedded/gcc-arm-none-eabi-4_8-2014q1/bin/../lib/gcc/arm-none-eabi/4.8.3/../../../../arm-none-eabi/lib/armv7-m/libstdc++.a(tinfo.o)
                0x0801ed70                vtable for std::type_info
 .rodata.str1.4
                0x0801ed90        0x2 /homes/skollbach/Downloads/ASE/gcc-arm-embedded/gcc-arm-none-eabi-4_8-2014q1/bin/../lib/gcc/arm-none-eabi/4.8.3/../../../../arm-none-eabi/lib/armv7-m/libc.a(lib_a-impure.o)
                                  0x4 (size before relaxing)
 *fill*         0x0801ed92        0xe 
 .rodata._global_impure_ptr
                0x0801eda0        0x4 /homes/skollbach/Downloads/ASE/gcc-arm-embedded/gcc-arm-none-eabi-4_8-2014q1/bin/../lib/gcc/arm-none-eabi/4.8.3/../../../../arm-none-eabi/lib/armv7-m/libc.a(lib_a-impure.o)
                0x0801eda0                _global_impure_ptr
 *fill*         0x0801eda4        0xc 
 .rodata.zeroes.6760
                0x0801edb0       0x10 /homes/skollbach/Downloads/ASE/gcc-arm-embedded/gcc-arm-none-eabi-4_8-2014q1/bin/../lib/gcc/arm-none-eabi/4.8.3/../../../../arm-none-eabi/lib/armv7-m/libc.a(lib_a-svfprintf.o)
 .rodata.str1.4
                0x0801edc0       0x35 /homes/skollbach/Downloads/ASE/gcc-arm-embedded/gcc-arm-none-eabi-4_8-2014q1/bin/../lib/gcc/arm-none-eabi/4.8.3/../../../../arm-none-eabi/lib/armv7-m/libc.a(lib_a-svfprintf.o)
                                 0x44 (size before relaxing)
 *fill*         0x0801edf5        0xb 
 .rodata.blanks.6759
                0x0801ee00       0x10 /homes/skollbach/Downloads/ASE/gcc-arm-embedded/gcc-arm-none-eabi-4_8-2014q1/bin/../lib/gcc/arm-none-eabi/4.8.3/../../../../arm-none-eabi/lib/armv7-m/libc.a(lib_a-svfprintf.o)
 .rodata._ctype_
                0x0801ee10      0x104 /homes/skollbach/Downloads/ASE/gcc-arm-embedded/gcc-arm-none-eabi-4_8-2014q1/bin/../lib/gcc/arm-none-eabi/4.8.3/../../../../arm-none-eabi/lib/armv7-m/libc.a(lib_a-ctype_.o)
                0x0801ee10                _ctype_
 *fill*         0x0801ef14        0xc 
 .rodata.str1.4
                0x0801ef20       0x10 /homes/skollbach/Downloads/ASE/gcc-arm-embedded/gcc-arm-none-eabi-4_8-2014q1/bin/../lib/gcc/arm-none-eabi/4.8.3/../../../../arm-none-eabi/lib/armv7-m/libc.a(lib_a-dtoa.o)
                                 0x14 (size before relaxing)
 .rodata.str1.4
                0x0801ef30        0x8 /homes/skollbach/Downloads/ASE/gcc-arm-embedded/gcc-arm-none-eabi-4_8-2014q1/bin/../lib/gcc/arm-none-eabi/4.8.3/../../../../arm-none-eabi/lib/armv7-m/libc.a(lib_a-locale.o)
                                 0x14 (size before relaxing)
 *fill*         0x0801ef38        0x8 
 .rodata.__mprec_tens
                0x0801ef40       0xc8 /homes/skollbach/Downloads/ASE/gcc-arm-embedded/gcc-arm-none-eabi-4_8-2014q1/bin/../lib/gcc/arm-none-eabi/4.8.3/../../../../arm-none-eabi/lib/armv7-m/libc.a(lib_a-mprec.o)
                0x0801ef40                __mprec_tens
 *fill*         0x0801f008        0x8 
 .rodata.__mprec_bigtens
                0x0801f010       0x28 /homes/skollbach/Downloads/ASE/gcc-arm-embedded/gcc-arm-none-eabi-4_8-2014q1/bin/../lib/gcc/arm-none-eabi/4.8.3/../../../../arm-none-eabi/lib/armv7-m/libc.a(lib_a-mprec.o)
                0x0801f010                __mprec_bigtens
 *fill*         0x0801f038        0x8 
 .rodata.p05.5266
                0x0801f040        0xc /homes/skollbach/Downloads/ASE/gcc-arm-embedded/gcc-arm-none-eabi-4_8-2014q1/bin/../lib/gcc/arm-none-eabi/4.8.3/../../../../arm-none-eabi/lib/armv7-m/libc.a(lib_a-mprec.o)
 *(.glue_7t)
 .glue_7t       0x00000000        0x0 linker stubs
 *(.glue_7)
 .glue_7        0x00000000        0x0 linker stubs
 *(.gcc*)

.vfp11_veneer   0x0801f04c        0x0
 .vfp11_veneer  0x00000000        0x0 linker stubs

.v4_bx          0x0801f04c        0x0
 .v4_bx         0x00000000        0x0 linker stubs

.iplt           0x0801f04c        0x0
 .iplt          0x00000000        0x0 build/obj/crt0.o

.ARM.extab      0x0801f04c      0x120
 *(.ARM.extab* .gnu.linkonce.armextab.*)
 .ARM.extab.text.__cxa_pure_virtual
                0x0801f04c        0xc /homes/skollbach/Downloads/ASE/gcc-arm-embedded/gcc-arm-none-eabi-4_8-2014q1/bin/../lib/gcc/arm-none-eabi/4.8.3/../../../../arm-none-eabi/lib/armv7-m/libstdc++.a(pure.o)
 .ARM.extab.text._ZN10__cxxabiv111__terminateEPFvvE
                0x0801f058       0x2c /homes/skollbach/Downloads/ASE/gcc-arm-embedded/gcc-arm-none-eabi-4_8-2014q1/bin/../lib/gcc/arm-none-eabi/4.8.3/../../../../arm-none-eabi/lib/armv7-m/libstdc++.a(eh_terminate.o)
 .ARM.extab.text._ZN10__cxxabiv112__unexpectedEPFvvE
                0x0801f084        0xc /homes/skollbach/Downloads/ASE/gcc-arm-embedded/gcc-arm-none-eabi-4_8-2014q1/bin/../lib/gcc/arm-none-eabi/4.8.3/../../../../arm-none-eabi/lib/armv7-m/libstdc++.a(eh_terminate.o)
 .ARM.extab.text._ZSt10unexpectedv
                0x0801f090        0xc /homes/skollbach/Downloads/ASE/gcc-arm-embedded/gcc-arm-none-eabi-4_8-2014q1/bin/../lib/gcc/arm-none-eabi/4.8.3/../../../../arm-none-eabi/lib/armv7-m/libstdc++.a(eh_terminate.o)
 .ARM.extab.text.__cxa_begin_catch
                0x0801f09c       0x20 /homes/skollbach/Downloads/ASE/gcc-arm-embedded/gcc-arm-none-eabi-4_8-2014q1/bin/../lib/gcc/arm-none-eabi/4.8.3/../../../../arm-none-eabi/lib/armv7-m/libstdc++.a(eh_catch.o)
 .ARM.extab.text.__cxa_call_unexpected
                0x0801f0bc       0x2c /homes/skollbach/Downloads/ASE/gcc-arm-embedded/gcc-arm-none-eabi-4_8-2014q1/bin/../lib/gcc/arm-none-eabi/4.8.3/../../../../arm-none-eabi/lib/armv7-m/libstdc++.a(eh_call.o)
 .ARM.extab.text._ZL21base_of_encoded_valuehP15_Unwind_Context
                0x0801f0e8        0xc /homes/skollbach/Downloads/ASE/gcc-arm-embedded/gcc-arm-none-eabi-4_8-2014q1/bin/../lib/gcc/arm-none-eabi/4.8.3/../../../../arm-none-eabi/lib/armv7-m/libstdc++.a(eh_personality.o)
 .ARM.extab.text.__gxx_personality_v0
                0x0801f0f4       0x20 /homes/skollbach/Downloads/ASE/gcc-arm-embedded/gcc-arm-none-eabi-4_8-2014q1/bin/../lib/gcc/arm-none-eabi/4.8.3/../../../../arm-none-eabi/lib/armv7-m/libstdc++.a(eh_personality.o)
 .ARM.extab.text._ZN9__gnu_cxx27__verbose_terminate_handlerEv
                0x0801f114       0x34 /homes/skollbach/Downloads/ASE/gcc-arm-embedded/gcc-arm-none-eabi-4_8-2014q1/bin/../lib/gcc/arm-none-eabi/4.8.3/../../../../arm-none-eabi/lib/armv7-m/libstdc++.a(vterminate.o)
 .ARM.extab     0x0801f148        0xc /homes/skollbach/Downloads/ASE/gcc-arm-embedded/gcc-arm-none-eabi-4_8-2014q1/bin/../lib/gcc/arm-none-eabi/4.8.3/armv7-m/libgcc.a(unwind-arm.o)
 .ARM.extab     0x0801f154       0x18 /homes/skollbach/Downloads/ASE/gcc-arm-embedded/gcc-arm-none-eabi-4_8-2014q1/bin/../lib/gcc/arm-none-eabi/4.8.3/armv7-m/libgcc.a(pr-support.o)

.ARM.exidx      0x0801f16c      0x1d8
                0x0801f16c                PROVIDE (__exidx_start, .)
 *(.ARM.exidx* .gnu.linkonce.armexidx.*)
 .ARM.exidx.text.__cxa_pure_virtual
                0x0801f234        0x8 /homes/skollbach/Downloads/ASE/gcc-arm-embedded/gcc-arm-none-eabi-4_8-2014q1/bin/../lib/gcc/arm-none-eabi/4.8.3/../../../../arm-none-eabi/lib/armv7-m/libstdc++.a(pure.o)
 .ARM.exidx.text._ZdlPv
                0x0801f23c        0x8 /homes/skollbach/Downloads/ASE/gcc-arm-embedded/gcc-arm-none-eabi-4_8-2014q1/bin/../lib/gcc/arm-none-eabi/4.8.3/../../../../arm-none-eabi/lib/armv7-m/libstdc++.a(del_op.o)
 .ARM.exidx.text._ZN10__cxxabiv111__terminateEPFvvE
                0x0801f244        0x8 /homes/skollbach/Downloads/ASE/gcc-arm-embedded/gcc-arm-none-eabi-4_8-2014q1/bin/../lib/gcc/arm-none-eabi/4.8.3/../../../../arm-none-eabi/lib/armv7-m/libstdc++.a(eh_terminate.o)
 .ARM.exidx.text._ZSt9terminatev
                0x0801f24c        0x8 /homes/skollbach/Downloads/ASE/gcc-arm-embedded/gcc-arm-none-eabi-4_8-2014q1/bin/../lib/gcc/arm-none-eabi/4.8.3/../../../../arm-none-eabi/lib/armv7-m/libstdc++.a(eh_terminate.o)
 .ARM.exidx.text._ZN10__cxxabiv112__unexpectedEPFvvE
                0x0801f254        0x8 /homes/skollbach/Downloads/ASE/gcc-arm-embedded/gcc-arm-none-eabi-4_8-2014q1/bin/../lib/gcc/arm-none-eabi/4.8.3/../../../../arm-none-eabi/lib/armv7-m/libstdc++.a(eh_terminate.o)
 .ARM.exidx.text._ZSt10unexpectedv
                0x0801f25c        0x8 /homes/skollbach/Downloads/ASE/gcc-arm-embedded/gcc-arm-none-eabi-4_8-2014q1/bin/../lib/gcc/arm-none-eabi/4.8.3/../../../../arm-none-eabi/lib/armv7-m/libstdc++.a(eh_terminate.o)
 .ARM.exidx.text.__cxa_begin_catch
                0x0801f264        0x8 /homes/skollbach/Downloads/ASE/gcc-arm-embedded/gcc-arm-none-eabi-4_8-2014q1/bin/../lib/gcc/arm-none-eabi/4.8.3/../../../../arm-none-eabi/lib/armv7-m/libstdc++.a(eh_catch.o)
 .ARM.exidx.text.__cxa_end_catch
                0x0801f26c        0x8 /homes/skollbach/Downloads/ASE/gcc-arm-embedded/gcc-arm-none-eabi-4_8-2014q1/bin/../lib/gcc/arm-none-eabi/4.8.3/../../../../arm-none-eabi/lib/armv7-m/libstdc++.a(eh_catch.o)
 .ARM.exidx.text.__aeabi_atexit
                0x0801f274        0x0 /homes/skollbach/Downloads/ASE/gcc-arm-embedded/gcc-arm-none-eabi-4_8-2014q1/bin/../lib/gcc/arm-none-eabi/4.8.3/../../../../arm-none-eabi/lib/armv7-m/libstdc++.a(atexit_arm.o)
                                  0x8 (size before relaxing)
 .ARM.exidx.text.__cxa_type_match
                0x0801f274        0x8 /homes/skollbach/Downloads/ASE/gcc-arm-embedded/gcc-arm-none-eabi-4_8-2014q1/bin/../lib/gcc/arm-none-eabi/4.8.3/../../../../arm-none-eabi/lib/armv7-m/libstdc++.a(eh_arm.o)
 .ARM.exidx.text.__cxa_begin_cleanup
                0x0801f27c        0x8 /homes/skollbach/Downloads/ASE/gcc-arm-embedded/gcc-arm-none-eabi-4_8-2014q1/bin/../lib/gcc/arm-none-eabi/4.8.3/../../../../arm-none-eabi/lib/armv7-m/libstdc++.a(eh_arm.o)
 .ARM.exidx.text.__gnu_end_cleanup
                0x0801f284        0x0 /homes/skollbach/Downloads/ASE/gcc-arm-embedded/gcc-arm-none-eabi-4_8-2014q1/bin/../lib/gcc/arm-none-eabi/4.8.3/../../../../arm-none-eabi/lib/armv7-m/libstdc++.a(eh_arm.o)
                                  0x8 (size before relaxing)
 .ARM.exidx.text._ZN10__cxxabiv1L24__is_gxx_exception_classEPc
                0x0801f284        0x0 /homes/skollbach/Downloads/ASE/gcc-arm-embedded/gcc-arm-none-eabi-4_8-2014q1/bin/../lib/gcc/arm-none-eabi/4.8.3/../../../../arm-none-eabi/lib/armv7-m/libstdc++.a(eh_call.o)
                                  0x8 (size before relaxing)
 .ARM.exidx.text.__cxa_call_terminate
                0x0801f284        0x0 /homes/skollbach/Downloads/ASE/gcc-arm-embedded/gcc-arm-none-eabi-4_8-2014q1/bin/../lib/gcc/arm-none-eabi/4.8.3/../../../../arm-none-eabi/lib/armv7-m/libstdc++.a(eh_call.o)
                                  0x8 (size before relaxing)
 .ARM.exidx.text.__cxa_call_unexpected
                0x0801f284        0x8 /homes/skollbach/Downloads/ASE/gcc-arm-embedded/gcc-arm-none-eabi-4_8-2014q1/bin/../lib/gcc/arm-none-eabi/4.8.3/../../../../arm-none-eabi/lib/armv7-m/libstdc++.a(eh_call.o)
 .ARM.exidx.text._ZL12read_sleb128PKhPl
                0x0801f28c        0x8 /homes/skollbach/Downloads/ASE/gcc-arm-embedded/gcc-arm-none-eabi-4_8-2014q1/bin/../lib/gcc/arm-none-eabi/4.8.3/../../../../arm-none-eabi/lib/armv7-m/libstdc++.a(eh_personality.o)
 .ARM.exidx.text._ZL28read_encoded_value_with_basehjPKhPj
                0x0801f294        0x8 /homes/skollbach/Downloads/ASE/gcc-arm-embedded/gcc-arm-none-eabi-4_8-2014q1/bin/../lib/gcc/arm-none-eabi/4.8.3/../../../../arm-none-eabi/lib/armv7-m/libstdc++.a(eh_personality.o)
 .ARM.exidx.text._ZL21base_of_encoded_valuehP15_Unwind_Context
                0x0801f29c        0x8 /homes/skollbach/Downloads/ASE/gcc-arm-embedded/gcc-arm-none-eabi-4_8-2014q1/bin/../lib/gcc/arm-none-eabi/4.8.3/../../../../arm-none-eabi/lib/armv7-m/libstdc++.a(eh_personality.o)
 .ARM.exidx.text._ZL17parse_lsda_headerP15_Unwind_ContextPKhP16lsda_header_info
                0x0801f2a4        0x8 /homes/skollbach/Downloads/ASE/gcc-arm-embedded/gcc-arm-none-eabi-4_8-2014q1/bin/../lib/gcc/arm-none-eabi/4.8.3/../../../../arm-none-eabi/lib/armv7-m/libstdc++.a(eh_personality.o)
 .ARM.exidx.text.__gxx_personality_v0
                0x0801f2ac        0x8 /homes/skollbach/Downloads/ASE/gcc-arm-embedded/gcc-arm-none-eabi-4_8-2014q1/bin/../lib/gcc/arm-none-eabi/4.8.3/../../../../arm-none-eabi/lib/armv7-m/libstdc++.a(eh_personality.o)
 .ARM.exidx.text.__cxa_get_globals_fast
                0x0801f2b4        0x8 /homes/skollbach/Downloads/ASE/gcc-arm-embedded/gcc-arm-none-eabi-4_8-2014q1/bin/../lib/gcc/arm-none-eabi/4.8.3/../../../../arm-none-eabi/lib/armv7-m/libstdc++.a(eh_globals.o)
 .ARM.exidx.text.__cxa_get_globals
                0x0801f2bc        0x0 /homes/skollbach/Downloads/ASE/gcc-arm-embedded/gcc-arm-none-eabi-4_8-2014q1/bin/../lib/gcc/arm-none-eabi/4.8.3/../../../../arm-none-eabi/lib/armv7-m/libstdc++.a(eh_globals.o)
                                  0x8 (size before relaxing)
 .ARM.exidx.text._ZN9__gnu_cxx27__verbose_terminate_handlerEv
                0x0801f2bc        0x8 /homes/skollbach/Downloads/ASE/gcc-arm-embedded/gcc-arm-none-eabi-4_8-2014q1/bin/../lib/gcc/arm-none-eabi/4.8.3/../../../../arm-none-eabi/lib/armv7-m/libstdc++.a(vterminate.o)
 .ARM.exidx.text._ZL23__gxx_exception_cleanup19_Unwind_Reason_CodeP21_Unwind_Control_Block
                0x0801f2c4        0x8 /homes/skollbach/Downloads/ASE/gcc-arm-embedded/gcc-arm-none-eabi-4_8-2014q1/bin/../lib/gcc/arm-none-eabi/4.8.3/../../../../arm-none-eabi/lib/armv7-m/libstdc++.a(eh_throw.o)
 .ARM.exidx.text.__cxa_throw
                0x0801f2cc        0x8 /homes/skollbach/Downloads/ASE/gcc-arm-embedded/gcc-arm-none-eabi-4_8-2014q1/bin/../lib/gcc/arm-none-eabi/4.8.3/../../../../arm-none-eabi/lib/armv7-m/libstdc++.a(eh_throw.o)
 .ARM.exidx.text.__cxa_rethrow
                0x0801f2d4        0x8 /homes/skollbach/Downloads/ASE/gcc-arm-embedded/gcc-arm-none-eabi-4_8-2014q1/bin/../lib/gcc/arm-none-eabi/4.8.3/../../../../arm-none-eabi/lib/armv7-m/libstdc++.a(eh_throw.o)
 .ARM.exidx.text._ZNSt9exceptionD2Ev
                0x0801f2dc        0x8 /homes/skollbach/Downloads/ASE/gcc-arm-embedded/gcc-arm-none-eabi-4_8-2014q1/bin/../lib/gcc/arm-none-eabi/4.8.3/../../../../arm-none-eabi/lib/armv7-m/libstdc++.a(eh_exception.o)
 .ARM.exidx.text._ZNSt13bad_exceptionD2Ev
                0x0801f2e4        0x0 /homes/skollbach/Downloads/ASE/gcc-arm-embedded/gcc-arm-none-eabi-4_8-2014q1/bin/../lib/gcc/arm-none-eabi/4.8.3/../../../../arm-none-eabi/lib/armv7-m/libstdc++.a(eh_exception.o)
                                  0x8 (size before relaxing)
 .ARM.exidx.text._ZNKSt9exception4whatEv
                0x0801f2e4        0x0 /homes/skollbach/Downloads/ASE/gcc-arm-embedded/gcc-arm-none-eabi-4_8-2014q1/bin/../lib/gcc/arm-none-eabi/4.8.3/../../../../arm-none-eabi/lib/armv7-m/libstdc++.a(eh_exception.o)
                                  0x8 (size before relaxing)
 .ARM.exidx.text._ZNKSt13bad_exception4whatEv
                0x0801f2e4        0x0 /homes/skollbach/Downloads/ASE/gcc-arm-embedded/gcc-arm-none-eabi-4_8-2014q1/bin/../lib/gcc/arm-none-eabi/4.8.3/../../../../arm-none-eabi/lib/armv7-m/libstdc++.a(eh_exception.o)
                                  0x8 (size before relaxing)
 .ARM.exidx.text._ZNSt9exceptionD0Ev
                0x0801f2e4        0x0 /homes/skollbach/Downloads/ASE/gcc-arm-embedded/gcc-arm-none-eabi-4_8-2014q1/bin/../lib/gcc/arm-none-eabi/4.8.3/../../../../arm-none-eabi/lib/armv7-m/libstdc++.a(eh_exception.o)
                                  0x8 (size before relaxing)
 .ARM.exidx.text._ZNSt13bad_exceptionD0Ev
                0x0801f2e4        0x0 /homes/skollbach/Downloads/ASE/gcc-arm-embedded/gcc-arm-none-eabi-4_8-2014q1/bin/../lib/gcc/arm-none-eabi/4.8.3/../../../../arm-none-eabi/lib/armv7-m/libstdc++.a(eh_exception.o)
                                  0x8 (size before relaxing)
 .ARM.exidx.text.__cxa_current_exception_type
                0x0801f2e4        0x0 /homes/skollbach/Downloads/ASE/gcc-arm-embedded/gcc-arm-none-eabi-4_8-2014q1/bin/../lib/gcc/arm-none-eabi/4.8.3/../../../../arm-none-eabi/lib/armv7-m/libstdc++.a(eh_type.o)
                                  0x8 (size before relaxing)
 .ARM.exidx.text._ZNK10__cxxabiv117__class_type_info11__do_upcastEPKS0_PPv
                0x0801f2e4        0x8 /homes/skollbach/Downloads/ASE/gcc-arm-embedded/gcc-arm-none-eabi-4_8-2014q1/bin/../lib/gcc/arm-none-eabi/4.8.3/../../../../arm-none-eabi/lib/armv7-m/libstdc++.a(class_type_info.o)
 .ARM.exidx.text._ZNK10__cxxabiv117__class_type_info20__do_find_public_srcEiPKvPKS0_S2_
                0x0801f2ec        0x8 /homes/skollbach/Downloads/ASE/gcc-arm-embedded/gcc-arm-none-eabi-4_8-2014q1/bin/../lib/gcc/arm-none-eabi/4.8.3/../../../../arm-none-eabi/lib/armv7-m/libstdc++.a(class_type_info.o)
 .ARM.exidx.text._ZN10__cxxabiv117__class_type_infoD2Ev
                0x0801f2f4        0x8 /homes/skollbach/Downloads/ASE/gcc-arm-embedded/gcc-arm-none-eabi-4_8-2014q1/bin/../lib/gcc/arm-none-eabi/4.8.3/../../../../arm-none-eabi/lib/armv7-m/libstdc++.a(class_type_info.o)
 .ARM.exidx.text._ZN10__cxxabiv117__class_type_infoD0Ev
                0x0801f2fc        0x0 /homes/skollbach/Downloads/ASE/gcc-arm-embedded/gcc-arm-none-eabi-4_8-2014q1/bin/../lib/gcc/arm-none-eabi/4.8.3/../../../../arm-none-eabi/lib/armv7-m/libstdc++.a(class_type_info.o)
                                  0x8 (size before relaxing)
 .ARM.exidx.text._ZNK10__cxxabiv117__class_type_info11__do_upcastEPKS0_PKvRNS0_15__upcast_resultE
                0x0801f2fc        0x8 /homes/skollbach/Downloads/ASE/gcc-arm-embedded/gcc-arm-none-eabi-4_8-2014q1/bin/../lib/gcc/arm-none-eabi/4.8.3/../../../../arm-none-eabi/lib/armv7-m/libstdc++.a(class_type_info.o)
 .ARM.exidx.text._ZNK10__cxxabiv117__class_type_info10__do_catchEPKSt9type_infoPPvj
                0x0801f304        0x8 /homes/skollbach/Downloads/ASE/gcc-arm-embedded/gcc-arm-none-eabi-4_8-2014q1/bin/../lib/gcc/arm-none-eabi/4.8.3/../../../../arm-none-eabi/lib/armv7-m/libstdc++.a(class_type_info.o)
 .ARM.exidx.text._ZNK10__cxxabiv117__class_type_info12__do_dyncastEiNS0_10__sub_kindEPKS0_PKvS3_S5_RNS0_16__dyncast_resultE
                0x0801f30c        0x8 /homes/skollbach/Downloads/ASE/gcc-arm-embedded/gcc-arm-none-eabi-4_8-2014q1/bin/../lib/gcc/arm-none-eabi/4.8.3/../../../../arm-none-eabi/lib/armv7-m/libstdc++.a(class_type_info.o)
 .ARM.exidx.text.__cxa_allocate_exception
                0x0801f314        0x8 /homes/skollbach/Downloads/ASE/gcc-arm-embedded/gcc-arm-none-eabi-4_8-2014q1/bin/../lib/gcc/arm-none-eabi/4.8.3/../../../../arm-none-eabi/lib/armv7-m/libstdc++.a(eh_alloc.o)
 .ARM.exidx.text.__cxa_free_exception
                0x0801f31c        0x0 /homes/skollbach/Downloads/ASE/gcc-arm-embedded/gcc-arm-none-eabi-4_8-2014q1/bin/../lib/gcc/arm-none-eabi/4.8.3/../../../../arm-none-eabi/lib/armv7-m/libstdc++.a(eh_alloc.o)
                                  0x8 (size before relaxing)
 .ARM.exidx.text._ZN10__cxxabiv120__si_class_type_infoD2Ev
                0x0801f31c        0x8 /homes/skollbach/Downloads/ASE/gcc-arm-embedded/gcc-arm-none-eabi-4_8-2014q1/bin/../lib/gcc/arm-none-eabi/4.8.3/../../../../arm-none-eabi/lib/armv7-m/libstdc++.a(si_class_type_info.o)
 .ARM.exidx.text._ZN10__cxxabiv120__si_class_type_infoD0Ev
                0x0801f324        0x0 /homes/skollbach/Downloads/ASE/gcc-arm-embedded/gcc-arm-none-eabi-4_8-2014q1/bin/../lib/gcc/arm-none-eabi/4.8.3/../../../../arm-none-eabi/lib/armv7-m/libstdc++.a(si_class_type_info.o)
                                  0x8 (size before relaxing)
 .ARM.exidx.text._ZNK10__cxxabiv120__si_class_type_info20__do_find_public_srcEiPKvPKNS_17__class_type_infoES2_
                0x0801f324        0x8 /homes/skollbach/Downloads/ASE/gcc-arm-embedded/gcc-arm-none-eabi-4_8-2014q1/bin/../lib/gcc/arm-none-eabi/4.8.3/../../../../arm-none-eabi/lib/armv7-m/libstdc++.a(si_class_type_info.o)
 .ARM.exidx.text._ZNK10__cxxabiv120__si_class_type_info12__do_dyncastEiNS_17__class_type_info10__sub_kindEPKS1_PKvS4_S6_RNS1_16__dyncast_resultE
                0x0801f32c        0x8 /homes/skollbach/Downloads/ASE/gcc-arm-embedded/gcc-arm-none-eabi-4_8-2014q1/bin/../lib/gcc/arm-none-eabi/4.8.3/../../../../arm-none-eabi/lib/armv7-m/libstdc++.a(si_class_type_info.o)
 .ARM.exidx.text._ZNK10__cxxabiv120__si_class_type_info11__do_upcastEPKNS_17__class_type_infoEPKvRNS1_15__upcast_resultE
                0x0801f334        0x8 /homes/skollbach/Downloads/ASE/gcc-arm-embedded/gcc-arm-none-eabi-4_8-2014q1/bin/../lib/gcc/arm-none-eabi/4.8.3/../../../../arm-none-eabi/lib/armv7-m/libstdc++.a(si_class_type_info.o)
 .ARM.exidx.text._ZNSt9type_infoD2Ev
                0x0801f33c        0x8 /homes/skollbach/Downloads/ASE/gcc-arm-embedded/gcc-arm-none-eabi-4_8-2014q1/bin/../lib/gcc/arm-none-eabi/4.8.3/../../../../arm-none-eabi/lib/armv7-m/libstdc++.a(tinfo.o)
 .ARM.exidx.text._ZNKSt9type_info14__is_pointer_pEv
                0x0801f344        0x0 /homes/skollbach/Downloads/ASE/gcc-arm-embedded/gcc-arm-none-eabi-4_8-2014q1/bin/../lib/gcc/arm-none-eabi/4.8.3/../../../../arm-none-eabi/lib/armv7-m/libstdc++.a(tinfo.o)
                                  0x8 (size before relaxing)
 .ARM.exidx.text._ZNKSt9type_info15__is_function_pEv
                0x0801f344        0x0 /homes/skollbach/Downloads/ASE/gcc-arm-embedded/gcc-arm-none-eabi-4_8-2014q1/bin/../lib/gcc/arm-none-eabi/4.8.3/../../../../arm-none-eabi/lib/armv7-m/libstdc++.a(tinfo.o)
                                  0x8 (size before relaxing)
 .ARM.exidx.text._ZNKSt9type_info11__do_upcastEPKN10__cxxabiv117__class_type_infoEPPv
                0x0801f344        0x0 /homes/skollbach/Downloads/ASE/gcc-arm-embedded/gcc-arm-none-eabi-4_8-2014q1/bin/../lib/gcc/arm-none-eabi/4.8.3/../../../../arm-none-eabi/lib/armv7-m/libstdc++.a(tinfo.o)
                                  0x8 (size before relaxing)
 .ARM.exidx.text._ZNSt9type_infoD0Ev
                0x0801f344        0x0 /homes/skollbach/Downloads/ASE/gcc-arm-embedded/gcc-arm-none-eabi-4_8-2014q1/bin/../lib/gcc/arm-none-eabi/4.8.3/../../../../arm-none-eabi/lib/armv7-m/libstdc++.a(tinfo.o)
                                  0x8 (size before relaxing)
 .ARM.exidx.text._ZNKSt9type_infoeqERKS_
                0x0801f344        0x0 /homes/skollbach/Downloads/ASE/gcc-arm-embedded/gcc-arm-none-eabi-4_8-2014q1/bin/../lib/gcc/arm-none-eabi/4.8.3/../../../../arm-none-eabi/lib/armv7-m/libstdc++.a(tinfo.o)
                                  0x8 (size before relaxing)
 .ARM.exidx.text._ZNKSt9type_info10__do_catchEPKS_PPvj
                0x0801f344        0x0 /homes/skollbach/Downloads/ASE/gcc-arm-embedded/gcc-arm-none-eabi-4_8-2014q1/bin/../lib/gcc/arm-none-eabi/4.8.3/../../../../arm-none-eabi/lib/armv7-m/libstdc++.a(tinfo.o)
                                  0x8 (size before relaxing)
 .ARM.exidx     0x0801f16c       0x90 /homes/skollbach/Downloads/ASE/gcc-arm-embedded/gcc-arm-none-eabi-4_8-2014q1/bin/../lib/gcc/arm-none-eabi/4.8.3/armv7-m/libgcc.a(unwind-arm.o)
                                 0xd8 (size before relaxing)
 .ARM.exidx     0x0801f1fc       0x38 /homes/skollbach/Downloads/ASE/gcc-arm-embedded/gcc-arm-none-eabi-4_8-2014q1/bin/../lib/gcc/arm-none-eabi/4.8.3/armv7-m/libgcc.a(pr-support.o)
                                 0x48 (size before relaxing)
 .ARM.exidx     0x0801f234        0x0 /homes/skollbach/Downloads/ASE/gcc-arm-embedded/gcc-arm-none-eabi-4_8-2014q1/bin/../lib/gcc/arm-none-eabi/4.8.3/armv7-m/libgcc.a(_divdi3.o)
                                  0x8 (size before relaxing)
 .ARM.exidx     0x0801f234        0x0 /homes/skollbach/Downloads/ASE/gcc-arm-embedded/gcc-arm-none-eabi-4_8-2014q1/bin/../lib/gcc/arm-none-eabi/4.8.3/armv7-m/libgcc.a(_udivdi3.o)
                                  0x8 (size before relaxing)
                0x0801f344                PROVIDE (__exidx_end, .)

.rel.dyn        0x0801f344        0x0
 .rel.iplt      0x00000000        0x0 build/obj/crt0.o

.eh_frame_hdr
 *(.eh_frame_hdr)

.eh_frame
 *(.eh_frame)

.textalign      0x0801f344        0x4
                0x0801f348                . = ALIGN (0x8)
 *fill*         0x0801f344        0x4 
                0x0801f348                . = ALIGN (0x4)
                0x0801f348                _etext = .
                0x0801f348                _textdata = _etext

.stacks         0x20000000      0x800
                0x20000000                . = ALIGN (0x8)
                0x20000000                __main_stack_base__ = .
                0x20000400                . = (. + __main_stack_size__)
 *fill*         0x20000000      0x400 
                0x20000400                . = ALIGN (0x8)
                0x20000400                __main_stack_end__ = .
                0x20000400                __process_stack_base__ = .
                0x20000400                __main_thread_stack_base__ = .
                0x20000800                . = (. + __process_stack_size__)
 *fill*         0x20000400      0x400 
                0x20000800                . = ALIGN (0x8)
                0x20000800                __process_stack_end__ = .
                0x20000800                __main_thread_stack_end__ = .

.data           0x20000800      0x930 load address 0x0801f348
                0x20000800                . = ALIGN (0x4)
                0x20000800                PROVIDE (_data, .)
 *(.data)
 *(.data.*)
 .data.local_commands
                0x20000800       0x18 build/obj/shell.o
 .data.extcfg   0x20000818       0x98 build/obj/exti.o
                0x20000818                extcfg
 .data._ZN10__cxxabiv120__unexpected_handlerE
                0x200008b0        0x4 /homes/skollbach/Downloads/ASE/gcc-arm-embedded/gcc-arm-none-eabi-4_8-2014q1/bin/../lib/gcc/arm-none-eabi/4.8.3/../../../../arm-none-eabi/lib/armv7-m/libstdc++.a(eh_unex_handler.o)
                0x200008b0                __cxxabiv1::__unexpected_handler
 .data._ZN10__cxxabiv119__terminate_handlerE
                0x200008b4        0x4 /homes/skollbach/Downloads/ASE/gcc-arm-embedded/gcc-arm-none-eabi-4_8-2014q1/bin/../lib/gcc/arm-none-eabi/4.8.3/../../../../arm-none-eabi/lib/armv7-m/libstdc++.a(eh_term_handler.o)
                0x200008b4                __cxxabiv1::__terminate_handler
 .data.impure_data
                0x200008b8      0x428 /homes/skollbach/Downloads/ASE/gcc-arm-embedded/gcc-arm-none-eabi-4_8-2014q1/bin/../lib/gcc/arm-none-eabi/4.8.3/../../../../arm-none-eabi/lib/armv7-m/libc.a(lib_a-impure.o)
 .data._impure_ptr
                0x20000ce0        0x4 /homes/skollbach/Downloads/ASE/gcc-arm-embedded/gcc-arm-none-eabi-4_8-2014q1/bin/../lib/gcc/arm-none-eabi/4.8.3/../../../../arm-none-eabi/lib/armv7-m/libc.a(lib_a-impure.o)
                0x20000ce0                _impure_ptr
 .data.__malloc_av_
                0x20000ce4      0x408 /homes/skollbach/Downloads/ASE/gcc-arm-embedded/gcc-arm-none-eabi-4_8-2014q1/bin/../lib/gcc/arm-none-eabi/4.8.3/../../../../arm-none-eabi/lib/armv7-m/libc.a(lib_a-mallocr.o)
                0x20000ce4                __malloc_av_
 .data.__malloc_trim_threshold
                0x200010ec        0x4 /homes/skollbach/Downloads/ASE/gcc-arm-embedded/gcc-arm-none-eabi-4_8-2014q1/bin/../lib/gcc/arm-none-eabi/4.8.3/../../../../arm-none-eabi/lib/armv7-m/libc.a(lib_a-mallocr.o)
                0x200010ec                __malloc_trim_threshold
 .data.__malloc_sbrk_base
                0x200010f0        0x4 /homes/skollbach/Downloads/ASE/gcc-arm-embedded/gcc-arm-none-eabi-4_8-2014q1/bin/../lib/gcc/arm-none-eabi/4.8.3/../../../../arm-none-eabi/lib/armv7-m/libc.a(lib_a-mallocr.o)
                0x200010f0                __malloc_sbrk_base
 .data.__ctype_ptr__
                0x200010f4        0x4 /homes/skollbach/Downloads/ASE/gcc-arm-embedded/gcc-arm-none-eabi-4_8-2014q1/bin/../lib/gcc/arm-none-eabi/4.8.3/../../../../arm-none-eabi/lib/armv7-m/libc.a(lib_a-ctype_.o)
                0x200010f4                __ctype_ptr__
 .data.lconv    0x200010f8       0x38 /homes/skollbach/Downloads/ASE/gcc-arm-embedded/gcc-arm-none-eabi-4_8-2014q1/bin/../lib/gcc/arm-none-eabi/4.8.3/../../../../arm-none-eabi/lib/armv7-m/libc.a(lib_a-locale.o)
 *(.ramtext)
                0x20001130                . = ALIGN (0x4)
                0x20001130                PROVIDE (_edata, .)

.igot.plt       0x20001130        0x0 load address 0x0801fc78
 .igot.plt      0x00000000        0x0 build/obj/crt0.o

.bss            0x20001130     0x2558
                0x20001130                . = ALIGN (0x4)
                0x20001130                PROVIDE (_bss_start, .)
 *(.bss)
 *(.bss.*)
 .bss.mainthread.4840
                0x20001130       0x4c build/obj/chsys.o
 *fill*         0x2000117c        0x4 
 .bss._idle_thread_wa
                0x20001180       0xe0 build/obj/chsys.o
                0x20001180                _idle_thread_wa
 .bss.dbg_isr_cnt
                0x20001260        0x4 build/obj/chdebug.o
                0x20001260                dbg_isr_cnt
 .bss.dbg_trace_buffer
                0x20001264      0x408 build/obj/chdebug.o
                0x20001264                dbg_trace_buffer
 .bss.dbg_lock_cnt
                0x2000166c        0x4 build/obj/chdebug.o
                0x2000166c                dbg_lock_cnt
 .bss.dbg_panic_msg
                0x20001670        0x4 build/obj/chdebug.o
                0x20001670                dbg_panic_msg
 .bss.vtlist    0x20001674       0x10 build/obj/chvt.o
                0x20001674                vtlist
 .bss.rlist     0x20001684       0x1c build/obj/chschd.o
                0x20001684                rlist
 .bss.endmem    0x200016a0        0x4 build/obj/chmemcore.o
 .bss.nextmem   0x200016a4        0x4 build/obj/chmemcore.o
 .bss.default_heap
                0x200016a8       0x20 build/obj/chheap.o
 .bss.measurement_offset
                0x200016c8        0x4 build/obj/tm.o
 .bss.dma_isr_redir
                0x200016cc       0x60 build/obj/stm32_dma.o
 .bss.dma_streams_mask
                0x2000172c        0x4 build/obj/stm32_dma.o
 .bss.CAND1     0x20001730       0x38 build/obj/can_lld.o
                0x20001730                CAND1
 .bss.EXTD1     0x20001768        0x8 build/obj/ext_lld.o
                0x20001768                EXTD1
 .bss.I2CD2     0x20001770       0x38 build/obj/i2c_lld.o
                0x20001770                I2CD2
 .bss.dummytx   0x200017a8        0x2 build/obj/spi_lld.o
 *fill*         0x200017aa        0x2 
 .bss.SPID1     0x200017ac       0x30 build/obj/spi_lld.o
                0x200017ac                SPID1
 .bss.SPID2     0x200017dc       0x30 build/obj/spi_lld.o
                0x200017dc                SPID2
 .bss.dummyrx   0x2000180c        0x2 build/obj/spi_lld.o
 *fill*         0x2000180e        0x2 
 .bss.SD1       0x20001810       0xd8 build/obj/serial_lld.o
                0x20001810                SD1
 .bss.SD2       0x200018e8       0xd8 build/obj/serial_lld.o
                0x200018e8                SD2
 .bss.shell_terminated
                0x200019c0        0x4 build/obj/shell.o
                0x200019c0                shell_terminated
 .bss.__dso_handle
                0x200019c4        0x4 build/obj/stubs.o
                0x200019c4                __dso_handle
 .bss._ZN5amiro9constants12DiWheelDriveL10wheelErrorE
                0x200019c8        0x8 build/obj/ControllerAreaNetworkRx.o
 .bss._ZN5amiro9constants12DiWheelDriveL10wheelErrorE
                0x200019d0        0x8 build/obj/ControllerAreaNetworkTx.o
 .bss._ZN5amiro9constants12DiWheelDriveL10wheelErrorE
                0x200019d8        0x8 build/obj/Lidar.o
 .bss._ZN5amiro5Lidar11scannedDataE
                0x200019e0      0x558 build/obj/Lidar.o
                0x200019e0                amiro::Lidar::scannedData
 .bss._ZN5amiro9constants12DiWheelDriveL10wheelErrorE
                0x20001f38        0x8 build/obj/serial_can_mux.o
 .bss._ZN5amiro9constants12DiWheelDriveL10wheelErrorE
                0x20001f40        0x8 build/obj/LightRing.o
 .bss._ZN5amiro9constants12DiWheelDriveL10wheelErrorE
                0x20001f48        0x8 build/obj/userthread.o
 .bss.global    0x20001f50      0xee0 build/obj/main.o
                0x20001f50                global
 .bss._ZN5amiro9constants12DiWheelDriveL10wheelErrorE
                0x20002e30        0x8 build/obj/main.o
 .bss.shutdown_now
                0x20002e38        0x4 build/obj/exti.o
                0x20002e38                shutdown_now
 .bss._ZL10eh_globals
                0x20002e3c        0xc /homes/skollbach/Downloads/ASE/gcc-arm-embedded/gcc-arm-none-eabi-4_8-2014q1/bin/../lib/gcc/arm-none-eabi/4.8.3/../../../../arm-none-eabi/lib/armv7-m/libstdc++.a(eh_globals.o)
 .bss._ZZN9__gnu_cxx27__verbose_terminate_handlerEvE11terminating
                0x20002e48        0x1 /homes/skollbach/Downloads/ASE/gcc-arm-embedded/gcc-arm-none-eabi-4_8-2014q1/bin/../lib/gcc/arm-none-eabi/4.8.3/../../../../arm-none-eabi/lib/armv7-m/libstdc++.a(vterminate.o)
 *fill*         0x20002e49        0x3 
 .bss._ZL14emergency_used
                0x20002e4c        0x4 /homes/skollbach/Downloads/ASE/gcc-arm-embedded/gcc-arm-none-eabi-4_8-2014q1/bin/../lib/gcc/arm-none-eabi/4.8.3/../../../../arm-none-eabi/lib/armv7-m/libstdc++.a(eh_alloc.o)
 .bss._ZL16emergency_buffer
                0x20002e50      0x800 /homes/skollbach/Downloads/ASE/gcc-arm-embedded/gcc-arm-none-eabi-4_8-2014q1/bin/../lib/gcc/arm-none-eabi/4.8.3/../../../../arm-none-eabi/lib/armv7-m/libstdc++.a(eh_alloc.o)
 .bss.__malloc_max_total_mem
                0x20003650        0x4 /homes/skollbach/Downloads/ASE/gcc-arm-embedded/gcc-arm-none-eabi-4_8-2014q1/bin/../lib/gcc/arm-none-eabi/4.8.3/../../../../arm-none-eabi/lib/armv7-m/libc.a(lib_a-mallocr.o)
                0x20003650                __malloc_max_total_mem
 .bss.__malloc_max_sbrked_mem
                0x20003654        0x4 /homes/skollbach/Downloads/ASE/gcc-arm-embedded/gcc-arm-none-eabi-4_8-2014q1/bin/../lib/gcc/arm-none-eabi/4.8.3/../../../../arm-none-eabi/lib/armv7-m/libc.a(lib_a-mallocr.o)
                0x20003654                __malloc_max_sbrked_mem
 .bss.__malloc_top_pad
                0x20003658        0x4 /homes/skollbach/Downloads/ASE/gcc-arm-embedded/gcc-arm-none-eabi-4_8-2014q1/bin/../lib/gcc/arm-none-eabi/4.8.3/../../../../arm-none-eabi/lib/armv7-m/libc.a(lib_a-mallocr.o)
                0x20003658                __malloc_top_pad
 .bss.__malloc_current_mallinfo
                0x2000365c       0x28 /homes/skollbach/Downloads/ASE/gcc-arm-embedded/gcc-arm-none-eabi-4_8-2014q1/bin/../lib/gcc/arm-none-eabi/4.8.3/../../../../arm-none-eabi/lib/armv7-m/libc.a(lib_a-mallocr.o)
                0x2000365c                __malloc_current_mallinfo
 *(COMMON)
 COMMON         0x20003684        0x4 /homes/skollbach/Downloads/ASE/gcc-arm-embedded/gcc-arm-none-eabi-4_8-2014q1/bin/../lib/gcc/arm-none-eabi/4.8.3/../../../../arm-none-eabi/lib/armv7-m/libc.a(lib_a-reent.o)
                0x20003684                errno
                0x20003688                . = ALIGN (0x4)
                0x20003688                PROVIDE (_bss_end, .)
                0x20003688                PROVIDE (end, .)
                0x20003688                _end = .
                0x20003688                __heap_base__ = _end
                0x20010000                __heap_end__ = __ram_end__
LOAD /homes/skollbach/Downloads/ASE/gcc-arm-embedded/gcc-arm-none-eabi-4_8-2014q1/bin/../lib/gcc/arm-none-eabi/4.8.3/../../../../arm-none-eabi/lib/armv7-m/libstdc++.a
LOAD /homes/skollbach/Downloads/ASE/gcc-arm-embedded/gcc-arm-none-eabi-4_8-2014q1/bin/../lib/gcc/arm-none-eabi/4.8.3/../../../../arm-none-eabi/lib/armv7-m/libm.a
START GROUP
LOAD /homes/skollbach/Downloads/ASE/gcc-arm-embedded/gcc-arm-none-eabi-4_8-2014q1/bin/../lib/gcc/arm-none-eabi/4.8.3/armv7-m/libgcc.a
LOAD /homes/skollbach/Downloads/ASE/gcc-arm-embedded/gcc-arm-none-eabi-4_8-2014q1/bin/../lib/gcc/arm-none-eabi/4.8.3/../../../../arm-none-eabi/lib/armv7-m/libc.a
END GROUP
OUTPUT(build/LightRing.elf elf32-littlearm)

.comment        0x00000000       0x70
 .comment       0x00000000       0x70 build/obj/crt0.o
                                 0x71 (size before relaxing)
 .comment       0x00000000       0x71 build/obj/vectors.o
 .comment       0x00000000       0x71 build/obj/chcore.o
 .comment       0x00000000       0x71 build/obj/chcore_v7m.o
 .comment       0x00000000       0x71 build/obj/nvic.o
 .comment       0x00000000       0x71 build/obj/chsys.o
 .comment       0x00000000       0x71 build/obj/chdebug.o
 .comment       0x00000000       0x71 build/obj/chvt.o
 .comment       0x00000000       0x71 build/obj/chschd.o
 .comment       0x00000000       0x71 build/obj/chthreads.o
 .comment       0x00000000       0x71 build/obj/chdynamic.o
 .comment       0x00000000       0x71 build/obj/chregistry.o
 .comment       0x00000000       0x71 build/obj/chsem.o
 .comment       0x00000000       0x71 build/obj/chmtx.o
 .comment       0x00000000       0x71 build/obj/chevents.o
 .comment       0x00000000       0x71 build/obj/chqueues.o
 .comment       0x00000000       0x71 build/obj/chmemcore.o
 .comment       0x00000000       0x71 build/obj/chheap.o
 .comment       0x00000000       0x71 build/obj/chmempools.o
 .comment       0x00000000       0x71 build/obj/hal.o
 .comment       0x00000000       0x71 build/obj/can.o
 .comment       0x00000000       0x71 build/obj/ext.o
 .comment       0x00000000       0x71 build/obj/i2c.o
 .comment       0x00000000       0x71 build/obj/serial.o
 .comment       0x00000000       0x71 build/obj/spi.o
 .comment       0x00000000       0x71 build/obj/tm.o
 .comment       0x00000000       0x71 build/obj/stm32_dma.o
 .comment       0x00000000       0x71 build/obj/hal_lld.o
 .comment       0x00000000       0x71 build/obj/ext_lld_isr.o
 .comment       0x00000000       0x71 build/obj/can_lld.o
 .comment       0x00000000       0x71 build/obj/ext_lld.o
 .comment       0x00000000       0x71 build/obj/pal_lld.o
 .comment       0x00000000       0x71 build/obj/i2c_lld.o
 .comment       0x00000000       0x71 build/obj/spi_lld.o
 .comment       0x00000000       0x71 build/obj/serial_lld.o
 .comment       0x00000000       0x71 build/obj/board.o
 .comment       0x00000000       0x71 build/obj/evtimer.o
 .comment       0x00000000       0x71 build/obj/syscalls.o
 .comment       0x00000000       0x71 build/obj/chprintf.o
 .comment       0x00000000       0x71 build/obj/shell.o
 .comment       0x00000000       0x71 build/obj/stubs.o
 .comment       0x00000000       0x71 build/obj/Debug.o
 .comment       0x00000000       0x71 build/obj/ch.o
 .comment       0x00000000       0x71 build/obj/Color.o
 .comment       0x00000000       0x71 build/obj/HWSPIDriver.o
 .comment       0x00000000       0x71 build/obj/HWI2CDriver.o
 .comment       0x00000000       0x71 build/obj/tlc5947.o
 .comment       0x00000000       0x71 build/obj/a2500r24a.o
 .comment       0x00000000       0x71 build/obj/eeprom.o
 .comment       0x00000000       0x71 build/obj/at24.o
 .comment       0x00000000       0x71 build/obj/FileSystemInputOutputBase.o
 .comment       0x00000000       0x71 build/obj/ControllerAreaNetworkRx.o
 .comment       0x00000000       0x71 build/obj/ControllerAreaNetworkTx.o
 .comment       0x00000000       0x71 build/obj/Lidar.o
 .comment       0x00000000       0x71 build/obj/serial_can_mux.o
 .comment       0x00000000       0x71 build/obj/LightRing.o
 .comment       0x00000000       0x71 build/obj/userthread.o
 .comment       0x00000000       0x71 build/obj/main.o
 .comment       0x00000000       0x71 build/obj/exti.o

.ARM.attributes
                0x00000000       0x31
 .ARM.attributes
                0x00000000       0x33 build/obj/crt0.o
 .ARM.attributes
                0x00000033       0x33 build/obj/vectors.o
 .ARM.attributes
                0x00000066       0x33 build/obj/chcore.o
 .ARM.attributes
                0x00000099       0x33 build/obj/chcore_v7m.o
 .ARM.attributes
                0x000000cc       0x33 build/obj/nvic.o
 .ARM.attributes
                0x000000ff       0x33 build/obj/chsys.o
 .ARM.attributes
                0x00000132       0x33 build/obj/chdebug.o
 .ARM.attributes
                0x00000165       0x33 build/obj/chvt.o
 .ARM.attributes
                0x00000198       0x33 build/obj/chschd.o
 .ARM.attributes
                0x000001cb       0x33 build/obj/chthreads.o
 .ARM.attributes
                0x000001fe       0x33 build/obj/chdynamic.o
 .ARM.attributes
                0x00000231       0x33 build/obj/chregistry.o
 .ARM.attributes
                0x00000264       0x33 build/obj/chsem.o
 .ARM.attributes
                0x00000297       0x33 build/obj/chmtx.o
 .ARM.attributes
                0x000002ca       0x33 build/obj/chevents.o
 .ARM.attributes
                0x000002fd       0x33 build/obj/chqueues.o
 .ARM.attributes
                0x00000330       0x33 build/obj/chmemcore.o
 .ARM.attributes
                0x00000363       0x33 build/obj/chheap.o
 .ARM.attributes
                0x00000396       0x33 build/obj/chmempools.o
 .ARM.attributes
                0x000003c9       0x33 build/obj/hal.o
 .ARM.attributes
                0x000003fc       0x33 build/obj/can.o
 .ARM.attributes
                0x0000042f       0x33 build/obj/ext.o
 .ARM.attributes
                0x00000462       0x33 build/obj/i2c.o
 .ARM.attributes
                0x00000495       0x33 build/obj/serial.o
 .ARM.attributes
                0x000004c8       0x33 build/obj/spi.o
 .ARM.attributes
                0x000004fb       0x33 build/obj/tm.o
 .ARM.attributes
                0x0000052e       0x33 build/obj/stm32_dma.o
 .ARM.attributes
                0x00000561       0x33 build/obj/hal_lld.o
 .ARM.attributes
                0x00000594       0x33 build/obj/ext_lld_isr.o
 .ARM.attributes
                0x000005c7       0x33 build/obj/can_lld.o
 .ARM.attributes
                0x000005fa       0x33 build/obj/ext_lld.o
 .ARM.attributes
                0x0000062d       0x33 build/obj/pal_lld.o
 .ARM.attributes
                0x00000660       0x33 build/obj/i2c_lld.o
 .ARM.attributes
                0x00000693       0x33 build/obj/spi_lld.o
 .ARM.attributes
                0x000006c6       0x33 build/obj/serial_lld.o
 .ARM.attributes
                0x000006f9       0x33 build/obj/board.o
 .ARM.attributes
                0x0000072c       0x33 build/obj/evtimer.o
 .ARM.attributes
                0x0000075f       0x33 build/obj/syscalls.o
 .ARM.attributes
                0x00000792       0x33 build/obj/chprintf.o
 .ARM.attributes
                0x000007c5       0x33 build/obj/shell.o
 .ARM.attributes
                0x000007f8       0x33 build/obj/stubs.o
 .ARM.attributes
                0x0000082b       0x33 build/obj/Debug.o
 .ARM.attributes
                0x0000085e       0x33 build/obj/ch.o
 .ARM.attributes
                0x00000891       0x33 build/obj/Color.o
 .ARM.attributes
                0x000008c4       0x33 build/obj/HWSPIDriver.o
 .ARM.attributes
                0x000008f7       0x33 build/obj/HWI2CDriver.o
 .ARM.attributes
                0x0000092a       0x33 build/obj/tlc5947.o
 .ARM.attributes
                0x0000095d       0x33 build/obj/a2500r24a.o
 .ARM.attributes
                0x00000990       0x33 build/obj/eeprom.o
 .ARM.attributes
                0x000009c3       0x33 build/obj/at24.o
 .ARM.attributes
                0x000009f6       0x33 build/obj/FileSystemInputOutputBase.o
 .ARM.attributes
                0x00000a29       0x33 build/obj/ControllerAreaNetworkRx.o
 .ARM.attributes
                0x00000a5c       0x33 build/obj/ControllerAreaNetworkTx.o
 .ARM.attributes
                0x00000a8f       0x33 build/obj/Lidar.o
 .ARM.attributes
                0x00000ac2       0x33 build/obj/serial_can_mux.o
 .ARM.attributes
                0x00000af5       0x33 build/obj/LightRing.o
 .ARM.attributes
                0x00000b28       0x33 build/obj/userthread.o
 .ARM.attributes
                0x00000b5b       0x33 build/obj/main.o
 .ARM.attributes
                0x00000b8e       0x33 build/obj/exti.o
 .ARM.attributes
                0x00000bc1       0x2d /homes/skollbach/Downloads/ASE/gcc-arm-embedded/gcc-arm-none-eabi-4_8-2014q1/bin/../lib/gcc/arm-none-eabi/4.8.3/../../../../arm-none-eabi/lib/armv7-m/libstdc++.a(pure.o)
 .ARM.attributes
                0x00000bee       0x2d /homes/skollbach/Downloads/ASE/gcc-arm-embedded/gcc-arm-none-eabi-4_8-2014q1/bin/../lib/gcc/arm-none-eabi/4.8.3/../../../../arm-none-eabi/lib/armv7-m/libstdc++.a(del_op.o)
 .ARM.attributes
                0x00000c1b       0x2d /homes/skollbach/Downloads/ASE/gcc-arm-embedded/gcc-arm-none-eabi-4_8-2014q1/bin/../lib/gcc/arm-none-eabi/4.8.3/../../../../arm-none-eabi/lib/armv7-m/libstdc++.a(eh_terminate.o)
 .ARM.attributes
                0x00000c48       0x2d /homes/skollbach/Downloads/ASE/gcc-arm-embedded/gcc-arm-none-eabi-4_8-2014q1/bin/../lib/gcc/arm-none-eabi/4.8.3/../../../../arm-none-eabi/lib/armv7-m/libstdc++.a(eh_unex_handler.o)
 .ARM.attributes
                0x00000c75       0x2d /homes/skollbach/Downloads/ASE/gcc-arm-embedded/gcc-arm-none-eabi-4_8-2014q1/bin/../lib/gcc/arm-none-eabi/4.8.3/../../../../arm-none-eabi/lib/armv7-m/libstdc++.a(eh_catch.o)
 .ARM.attributes
                0x00000ca2       0x2d /homes/skollbach/Downloads/ASE/gcc-arm-embedded/gcc-arm-none-eabi-4_8-2014q1/bin/../lib/gcc/arm-none-eabi/4.8.3/../../../../arm-none-eabi/lib/armv7-m/libstdc++.a(atexit_arm.o)
 .ARM.attributes
                0x00000ccf       0x2d /homes/skollbach/Downloads/ASE/gcc-arm-embedded/gcc-arm-none-eabi-4_8-2014q1/bin/../lib/gcc/arm-none-eabi/4.8.3/../../../../arm-none-eabi/lib/armv7-m/libstdc++.a(eh_term_handler.o)
 .ARM.attributes
                0x00000cfc       0x2d /homes/skollbach/Downloads/ASE/gcc-arm-embedded/gcc-arm-none-eabi-4_8-2014q1/bin/../lib/gcc/arm-none-eabi/4.8.3/../../../../arm-none-eabi/lib/armv7-m/libstdc++.a(eh_arm.o)
 .ARM.attributes
                0x00000d29       0x2d /homes/skollbach/Downloads/ASE/gcc-arm-embedded/gcc-arm-none-eabi-4_8-2014q1/bin/../lib/gcc/arm-none-eabi/4.8.3/../../../../arm-none-eabi/lib/armv7-m/libstdc++.a(eh_call.o)
 .ARM.attributes
                0x00000d56       0x2d /homes/skollbach/Downloads/ASE/gcc-arm-embedded/gcc-arm-none-eabi-4_8-2014q1/bin/../lib/gcc/arm-none-eabi/4.8.3/../../../../arm-none-eabi/lib/armv7-m/libstdc++.a(eh_globals.o)
 .ARM.attributes
                0x00000d83       0x2d /homes/skollbach/Downloads/ASE/gcc-arm-embedded/gcc-arm-none-eabi-4_8-2014q1/bin/../lib/gcc/arm-none-eabi/4.8.3/../../../../arm-none-eabi/lib/armv7-m/libstdc++.a(vterminate.o)
 .ARM.attributes
                0x00000db0       0x2d /homes/skollbach/Downloads/ASE/gcc-arm-embedded/gcc-arm-none-eabi-4_8-2014q1/bin/../lib/gcc/arm-none-eabi/4.8.3/../../../../arm-none-eabi/lib/armv7-m/libstdc++.a(eh_throw.o)
 .ARM.attributes
                0x00000ddd       0x2d /homes/skollbach/Downloads/ASE/gcc-arm-embedded/gcc-arm-none-eabi-4_8-2014q1/bin/../lib/gcc/arm-none-eabi/4.8.3/../../../../arm-none-eabi/lib/armv7-m/libstdc++.a(eh_exception.o)
 .ARM.attributes
                0x00000e0a       0x2d /homes/skollbach/Downloads/ASE/gcc-arm-embedded/gcc-arm-none-eabi-4_8-2014q1/bin/../lib/gcc/arm-none-eabi/4.8.3/../../../../arm-none-eabi/lib/armv7-m/libstdc++.a(eh_type.o)
 .ARM.attributes
                0x00000e37       0x2d /homes/skollbach/Downloads/ASE/gcc-arm-embedded/gcc-arm-none-eabi-4_8-2014q1/bin/../lib/gcc/arm-none-eabi/4.8.3/../../../../arm-none-eabi/lib/armv7-m/libstdc++.a(class_type_info.o)
 .ARM.attributes
                0x00000e64       0x2d /homes/skollbach/Downloads/ASE/gcc-arm-embedded/gcc-arm-none-eabi-4_8-2014q1/bin/../lib/gcc/arm-none-eabi/4.8.3/../../../../arm-none-eabi/lib/armv7-m/libstdc++.a(eh_alloc.o)
 .ARM.attributes
                0x00000e91       0x2d /homes/skollbach/Downloads/ASE/gcc-arm-embedded/gcc-arm-none-eabi-4_8-2014q1/bin/../lib/gcc/arm-none-eabi/4.8.3/../../../../arm-none-eabi/lib/armv7-m/libstdc++.a(cp-demangle.o)
 .ARM.attributes
                0x00000ebe       0x2d /homes/skollbach/Downloads/ASE/gcc-arm-embedded/gcc-arm-none-eabi-4_8-2014q1/bin/../lib/gcc/arm-none-eabi/4.8.3/../../../../arm-none-eabi/lib/armv7-m/libstdc++.a(si_class_type_info.o)
 .ARM.attributes
                0x00000eeb       0x2d /homes/skollbach/Downloads/ASE/gcc-arm-embedded/gcc-arm-none-eabi-4_8-2014q1/bin/../lib/gcc/arm-none-eabi/4.8.3/../../../../arm-none-eabi/lib/armv7-m/libstdc++.a(tinfo.o)
 .ARM.attributes
                0x00000f18       0x1d /homes/skollbach/Downloads/ASE/gcc-arm-embedded/gcc-arm-none-eabi-4_8-2014q1/bin/../lib/gcc/arm-none-eabi/4.8.3/armv7-m/libgcc.a(_arm_addsubdf3.o)
 .ARM.attributes
                0x00000f35       0x1d /homes/skollbach/Downloads/ASE/gcc-arm-embedded/gcc-arm-none-eabi-4_8-2014q1/bin/../lib/gcc/arm-none-eabi/4.8.3/armv7-m/libgcc.a(_arm_muldivdf3.o)
 .ARM.attributes
                0x00000f52       0x1d /homes/skollbach/Downloads/ASE/gcc-arm-embedded/gcc-arm-none-eabi-4_8-2014q1/bin/../lib/gcc/arm-none-eabi/4.8.3/armv7-m/libgcc.a(_arm_fixdfsi.o)
 .ARM.attributes
                0x00000f6f       0x1d /homes/skollbach/Downloads/ASE/gcc-arm-embedded/gcc-arm-none-eabi-4_8-2014q1/bin/../lib/gcc/arm-none-eabi/4.8.3/armv7-m/libgcc.a(_arm_truncdfsf2.o)
 .ARM.attributes
                0x00000f8c       0x1d /homes/skollbach/Downloads/ASE/gcc-arm-embedded/gcc-arm-none-eabi-4_8-2014q1/bin/../lib/gcc/arm-none-eabi/4.8.3/armv7-m/libgcc.a(_arm_addsubsf3.o)
 .ARM.attributes
                0x00000fa9       0x1d /homes/skollbach/Downloads/ASE/gcc-arm-embedded/gcc-arm-none-eabi-4_8-2014q1/bin/../lib/gcc/arm-none-eabi/4.8.3/armv7-m/libgcc.a(_arm_muldivsf3.o)
 .ARM.attributes
                0x00000fc6       0x1d /homes/skollbach/Downloads/ASE/gcc-arm-embedded/gcc-arm-none-eabi-4_8-2014q1/bin/../lib/gcc/arm-none-eabi/4.8.3/armv7-m/libgcc.a(_arm_cmpsf2.o)
 .ARM.attributes
                0x00000fe3       0x1d /homes/skollbach/Downloads/ASE/gcc-arm-embedded/gcc-arm-none-eabi-4_8-2014q1/bin/../lib/gcc/arm-none-eabi/4.8.3/armv7-m/libgcc.a(_arm_fixsfsi.o)
 .ARM.attributes
                0x00001000       0x2d /homes/skollbach/Downloads/ASE/gcc-arm-embedded/gcc-arm-none-eabi-4_8-2014q1/bin/../lib/gcc/arm-none-eabi/4.8.3/armv7-m/libgcc.a(unwind-arm.o)
 .ARM.attributes
                0x0000102d       0x1d /homes/skollbach/Downloads/ASE/gcc-arm-embedded/gcc-arm-none-eabi-4_8-2014q1/bin/../lib/gcc/arm-none-eabi/4.8.3/armv7-m/libgcc.a(libunwind.o)
 .ARM.attributes
                0x0000104a       0x2d /homes/skollbach/Downloads/ASE/gcc-arm-embedded/gcc-arm-none-eabi-4_8-2014q1/bin/../lib/gcc/arm-none-eabi/4.8.3/armv7-m/libgcc.a(pr-support.o)
 .ARM.attributes
                0x00001077       0x2d /homes/skollbach/Downloads/ASE/gcc-arm-embedded/gcc-arm-none-eabi-4_8-2014q1/bin/../lib/gcc/arm-none-eabi/4.8.3/../../../../arm-none-eabi/lib/armv7-m/libc.a(lib_a-abort.o)
 .ARM.attributes
                0x000010a4       0x2d /homes/skollbach/Downloads/ASE/gcc-arm-embedded/gcc-arm-none-eabi-4_8-2014q1/bin/../lib/gcc/arm-none-eabi/4.8.3/../../../../arm-none-eabi/lib/armv7-m/libc.a(lib_a-atoi.o)
 .ARM.attributes
                0x000010d1       0x2d /homes/skollbach/Downloads/ASE/gcc-arm-embedded/gcc-arm-none-eabi-4_8-2014q1/bin/../lib/gcc/arm-none-eabi/4.8.3/../../../../arm-none-eabi/lib/armv7-m/libc.a(lib_a-cxa_atexit.o)
 .ARM.attributes
                0x000010fe       0x2d /homes/skollbach/Downloads/ASE/gcc-arm-embedded/gcc-arm-none-eabi-4_8-2014q1/bin/../lib/gcc/arm-none-eabi/4.8.3/../../../../arm-none-eabi/lib/armv7-m/libc.a(lib_a-fputc.o)
 .ARM.attributes
                0x0000112b       0x2d /homes/skollbach/Downloads/ASE/gcc-arm-embedded/gcc-arm-none-eabi-4_8-2014q1/bin/../lib/gcc/arm-none-eabi/4.8.3/../../../../arm-none-eabi/lib/armv7-m/libc.a(lib_a-fputs.o)
 .ARM.attributes
                0x00001158       0x2d /homes/skollbach/Downloads/ASE/gcc-arm-embedded/gcc-arm-none-eabi-4_8-2014q1/bin/../lib/gcc/arm-none-eabi/4.8.3/../../../../arm-none-eabi/lib/armv7-m/libc.a(lib_a-fvwrite.o)
 .ARM.attributes
                0x00001185       0x2d /homes/skollbach/Downloads/ASE/gcc-arm-embedded/gcc-arm-none-eabi-4_8-2014q1/bin/../lib/gcc/arm-none-eabi/4.8.3/../../../../arm-none-eabi/lib/armv7-m/libc.a(lib_a-fwrite.o)
 .ARM.attributes
                0x000011b2       0x2d /homes/skollbach/Downloads/ASE/gcc-arm-embedded/gcc-arm-none-eabi-4_8-2014q1/bin/../lib/gcc/arm-none-eabi/4.8.3/../../../../arm-none-eabi/lib/armv7-m/libc.a(lib_a-impure.o)
 .ARM.attributes
                0x000011df       0x2d /homes/skollbach/Downloads/ASE/gcc-arm-embedded/gcc-arm-none-eabi-4_8-2014q1/bin/../lib/gcc/arm-none-eabi/4.8.3/../../../../arm-none-eabi/lib/armv7-m/libc.a(lib_a-malloc.o)
 .ARM.attributes
                0x0000120c       0x2d /homes/skollbach/Downloads/ASE/gcc-arm-embedded/gcc-arm-none-eabi-4_8-2014q1/bin/../lib/gcc/arm-none-eabi/4.8.3/../../../../arm-none-eabi/lib/armv7-m/libc.a(lib_a-mallocr.o)
 .ARM.attributes
                0x00001239       0x2d /homes/skollbach/Downloads/ASE/gcc-arm-embedded/gcc-arm-none-eabi-4_8-2014q1/bin/../lib/gcc/arm-none-eabi/4.8.3/../../../../arm-none-eabi/lib/armv7-m/libc.a(lib_a-memchr-stub.o)
 .ARM.attributes
                0x00001266       0x2d /homes/skollbach/Downloads/ASE/gcc-arm-embedded/gcc-arm-none-eabi-4_8-2014q1/bin/../lib/gcc/arm-none-eabi/4.8.3/../../../../arm-none-eabi/lib/armv7-m/libc.a(lib_a-memcmp.o)
 .ARM.attributes
                0x00001293       0x1b /homes/skollbach/Downloads/ASE/gcc-arm-embedded/gcc-arm-none-eabi-4_8-2014q1/bin/../lib/gcc/arm-none-eabi/4.8.3/../../../../arm-none-eabi/lib/armv7-m/libc.a(lib_a-memcpy.o)
 .ARM.attributes
                0x000012ae       0x2d /homes/skollbach/Downloads/ASE/gcc-arm-embedded/gcc-arm-none-eabi-4_8-2014q1/bin/../lib/gcc/arm-none-eabi/4.8.3/../../../../arm-none-eabi/lib/armv7-m/libc.a(lib_a-memmove.o)
 .ARM.attributes
                0x000012db       0x2d /homes/skollbach/Downloads/ASE/gcc-arm-embedded/gcc-arm-none-eabi-4_8-2014q1/bin/../lib/gcc/arm-none-eabi/4.8.3/../../../../arm-none-eabi/lib/armv7-m/libc.a(lib_a-memset.o)
 .ARM.attributes
                0x00001308       0x2d /homes/skollbach/Downloads/ASE/gcc-arm-embedded/gcc-arm-none-eabi-4_8-2014q1/bin/../lib/gcc/arm-none-eabi/4.8.3/../../../../arm-none-eabi/lib/armv7-m/libc.a(lib_a-mlock.o)
 .ARM.attributes
                0x00001335       0x2d /homes/skollbach/Downloads/ASE/gcc-arm-embedded/gcc-arm-none-eabi-4_8-2014q1/bin/../lib/gcc/arm-none-eabi/4.8.3/../../../../arm-none-eabi/lib/armv7-m/libc.a(lib_a-putc.o)
 .ARM.attributes
                0x00001362       0x2d /homes/skollbach/Downloads/ASE/gcc-arm-embedded/gcc-arm-none-eabi-4_8-2014q1/bin/../lib/gcc/arm-none-eabi/4.8.3/../../../../arm-none-eabi/lib/armv7-m/libc.a(lib_a-realloc.o)
 .ARM.attributes
                0x0000138f       0x2d /homes/skollbach/Downloads/ASE/gcc-arm-embedded/gcc-arm-none-eabi-4_8-2014q1/bin/../lib/gcc/arm-none-eabi/4.8.3/../../../../arm-none-eabi/lib/armv7-m/libc.a(lib_a-reallocr.o)
 .ARM.attributes
                0x000013bc       0x2d /homes/skollbach/Downloads/ASE/gcc-arm-embedded/gcc-arm-none-eabi-4_8-2014q1/bin/../lib/gcc/arm-none-eabi/4.8.3/../../../../arm-none-eabi/lib/armv7-m/libc.a(lib_a-reent.o)
 .ARM.attributes
                0x000013e9       0x2d /homes/skollbach/Downloads/ASE/gcc-arm-embedded/gcc-arm-none-eabi-4_8-2014q1/bin/../lib/gcc/arm-none-eabi/4.8.3/../../../../arm-none-eabi/lib/armv7-m/libc.a(lib_a-signal.o)
 .ARM.attributes
                0x00001416       0x2d /homes/skollbach/Downloads/ASE/gcc-arm-embedded/gcc-arm-none-eabi-4_8-2014q1/bin/../lib/gcc/arm-none-eabi/4.8.3/../../../../arm-none-eabi/lib/armv7-m/libc.a(lib_a-signalr.o)
 .ARM.attributes
                0x00001443       0x2d /homes/skollbach/Downloads/ASE/gcc-arm-embedded/gcc-arm-none-eabi-4_8-2014q1/bin/../lib/gcc/arm-none-eabi/4.8.3/../../../../arm-none-eabi/lib/armv7-m/libc.a(lib_a-sprintf.o)
 .ARM.attributes
                0x00001470       0x2d /homes/skollbach/Downloads/ASE/gcc-arm-embedded/gcc-arm-none-eabi-4_8-2014q1/bin/../lib/gcc/arm-none-eabi/4.8.3/../../../../arm-none-eabi/lib/armv7-m/libc.a(lib_a-strcasecmp.o)
 .ARM.attributes
                0x0000149d       0x1b /homes/skollbach/Downloads/ASE/gcc-arm-embedded/gcc-arm-none-eabi-4_8-2014q1/bin/../lib/gcc/arm-none-eabi/4.8.3/../../../../arm-none-eabi/lib/armv7-m/libc.a(lib_a-strcmp.o)
 .ARM.attributes
                0x000014b8       0x2d /homes/skollbach/Downloads/ASE/gcc-arm-embedded/gcc-arm-none-eabi-4_8-2014q1/bin/../lib/gcc/arm-none-eabi/4.8.3/../../../../arm-none-eabi/lib/armv7-m/libc.a(lib_a-strlen.o)
 .ARM.attributes
                0x000014e5       0x2d /homes/skollbach/Downloads/ASE/gcc-arm-embedded/gcc-arm-none-eabi-4_8-2014q1/bin/../lib/gcc/arm-none-eabi/4.8.3/../../../../arm-none-eabi/lib/armv7-m/libc.a(lib_a-strncmp.o)
 .ARM.attributes
                0x00001512       0x2d /homes/skollbach/Downloads/ASE/gcc-arm-embedded/gcc-arm-none-eabi-4_8-2014q1/bin/../lib/gcc/arm-none-eabi/4.8.3/../../../../arm-none-eabi/lib/armv7-m/libc.a(lib_a-strpbrk.o)
 .ARM.attributes
                0x0000153f       0x2d /homes/skollbach/Downloads/ASE/gcc-arm-embedded/gcc-arm-none-eabi-4_8-2014q1/bin/../lib/gcc/arm-none-eabi/4.8.3/../../../../arm-none-eabi/lib/armv7-m/libc.a(lib_a-strspn.o)
 .ARM.attributes
                0x0000156c       0x2d /homes/skollbach/Downloads/ASE/gcc-arm-embedded/gcc-arm-none-eabi-4_8-2014q1/bin/../lib/gcc/arm-none-eabi/4.8.3/../../../../arm-none-eabi/lib/armv7-m/libc.a(lib_a-strtol.o)
 .ARM.attributes
                0x00001599       0x2d /homes/skollbach/Downloads/ASE/gcc-arm-embedded/gcc-arm-none-eabi-4_8-2014q1/bin/../lib/gcc/arm-none-eabi/4.8.3/../../../../arm-none-eabi/lib/armv7-m/libc.a(lib_a-svfprintf.o)
 .ARM.attributes
                0x000015c6       0x2d /homes/skollbach/Downloads/ASE/gcc-arm-embedded/gcc-arm-none-eabi-4_8-2014q1/bin/../lib/gcc/arm-none-eabi/4.8.3/../../../../arm-none-eabi/lib/armv7-m/libc.a(lib_a-syswrite.o)
 .ARM.attributes
                0x000015f3       0x2d /homes/skollbach/Downloads/ASE/gcc-arm-embedded/gcc-arm-none-eabi-4_8-2014q1/bin/../lib/gcc/arm-none-eabi/4.8.3/../../../../arm-none-eabi/lib/armv7-m/libc.a(lib_a-wbuf.o)
 .ARM.attributes
                0x00001620       0x2d /homes/skollbach/Downloads/ASE/gcc-arm-embedded/gcc-arm-none-eabi-4_8-2014q1/bin/../lib/gcc/arm-none-eabi/4.8.3/../../../../arm-none-eabi/lib/armv7-m/libc.a(lib_a-wsetup.o)
 .ARM.attributes
                0x0000164d       0x2d /homes/skollbach/Downloads/ASE/gcc-arm-embedded/gcc-arm-none-eabi-4_8-2014q1/bin/../lib/gcc/arm-none-eabi/4.8.3/../../../../arm-none-eabi/lib/armv7-m/libc.a(lib_a-__atexit.o)
 .ARM.attributes
                0x0000167a       0x2d /homes/skollbach/Downloads/ASE/gcc-arm-embedded/gcc-arm-none-eabi-4_8-2014q1/bin/../lib/gcc/arm-none-eabi/4.8.3/../../../../arm-none-eabi/lib/armv7-m/libc.a(lib_a-ctype_.o)
 .ARM.attributes
                0x000016a7       0x2d /homes/skollbach/Downloads/ASE/gcc-arm-embedded/gcc-arm-none-eabi-4_8-2014q1/bin/../lib/gcc/arm-none-eabi/4.8.3/../../../../arm-none-eabi/lib/armv7-m/libc.a(lib_a-dtoa.o)
 .ARM.attributes
                0x000016d4       0x2d /homes/skollbach/Downloads/ASE/gcc-arm-embedded/gcc-arm-none-eabi-4_8-2014q1/bin/../lib/gcc/arm-none-eabi/4.8.3/../../../../arm-none-eabi/lib/armv7-m/libc.a(lib_a-fflush.o)
 .ARM.attributes
                0x00001701       0x2d /homes/skollbach/Downloads/ASE/gcc-arm-embedded/gcc-arm-none-eabi-4_8-2014q1/bin/../lib/gcc/arm-none-eabi/4.8.3/../../../../arm-none-eabi/lib/armv7-m/libc.a(lib_a-findfp.o)
 .ARM.attributes
                0x0000172e       0x2d /homes/skollbach/Downloads/ASE/gcc-arm-embedded/gcc-arm-none-eabi-4_8-2014q1/bin/../lib/gcc/arm-none-eabi/4.8.3/../../../../arm-none-eabi/lib/armv7-m/libc.a(lib_a-freer.o)
 .ARM.attributes
                0x0000175b       0x2d /homes/skollbach/Downloads/ASE/gcc-arm-embedded/gcc-arm-none-eabi-4_8-2014q1/bin/../lib/gcc/arm-none-eabi/4.8.3/../../../../arm-none-eabi/lib/armv7-m/libc.a(lib_a-fwalk.o)
 .ARM.attributes
                0x00001788       0x2d /homes/skollbach/Downloads/ASE/gcc-arm-embedded/gcc-arm-none-eabi-4_8-2014q1/bin/../lib/gcc/arm-none-eabi/4.8.3/../../../../arm-none-eabi/lib/armv7-m/libc.a(lib_a-locale.o)
 .ARM.attributes
                0x000017b5       0x2d /homes/skollbach/Downloads/ASE/gcc-arm-embedded/gcc-arm-none-eabi-4_8-2014q1/bin/../lib/gcc/arm-none-eabi/4.8.3/../../../../arm-none-eabi/lib/armv7-m/libc.a(lib_a-makebuf.o)
 .ARM.attributes
                0x000017e2       0x2d /homes/skollbach/Downloads/ASE/gcc-arm-embedded/gcc-arm-none-eabi-4_8-2014q1/bin/../lib/gcc/arm-none-eabi/4.8.3/../../../../arm-none-eabi/lib/armv7-m/libc.a(lib_a-mprec.o)
 .ARM.attributes
                0x0000180f       0x2d /homes/skollbach/Downloads/ASE/gcc-arm-embedded/gcc-arm-none-eabi-4_8-2014q1/bin/../lib/gcc/arm-none-eabi/4.8.3/../../../../arm-none-eabi/lib/armv7-m/libc.a(lib_a-s_fpclassify.o)
 .ARM.attributes
                0x0000183c       0x2d /homes/skollbach/Downloads/ASE/gcc-arm-embedded/gcc-arm-none-eabi-4_8-2014q1/bin/../lib/gcc/arm-none-eabi/4.8.3/../../../../arm-none-eabi/lib/armv7-m/libc.a(lib_a-stdio.o)
 .ARM.attributes
                0x00001869       0x2d /homes/skollbach/Downloads/ASE/gcc-arm-embedded/gcc-arm-none-eabi-4_8-2014q1/bin/../lib/gcc/arm-none-eabi/4.8.3/../../../../arm-none-eabi/lib/armv7-m/libc.a(lib_a-svfiprintf.o)
 .ARM.attributes
                0x00001896       0x2d /homes/skollbach/Downloads/ASE/gcc-arm-embedded/gcc-arm-none-eabi-4_8-2014q1/bin/../lib/gcc/arm-none-eabi/4.8.3/../../../../arm-none-eabi/lib/armv7-m/libc.a(lib_a-callocr.o)
 .ARM.attributes
                0x000018c3       0x2d /homes/skollbach/Downloads/ASE/gcc-arm-embedded/gcc-arm-none-eabi-4_8-2014q1/bin/../lib/gcc/arm-none-eabi/4.8.3/../../../../arm-none-eabi/lib/armv7-m/libc.a(lib_a-fclose.o)
 .ARM.attributes
                0x000018f0       0x1d /homes/skollbach/Downloads/ASE/gcc-arm-embedded/gcc-arm-none-eabi-4_8-2014q1/bin/../lib/gcc/arm-none-eabi/4.8.3/armv7-m/libgcc.a(_arm_cmpdf2.o)
 .ARM.attributes
                0x0000190d       0x1d /homes/skollbach/Downloads/ASE/gcc-arm-embedded/gcc-arm-none-eabi-4_8-2014q1/bin/../lib/gcc/arm-none-eabi/4.8.3/armv7-m/libgcc.a(_aeabi_uldivmod.o)
 .ARM.attributes
                0x0000192a       0x2d /homes/skollbach/Downloads/ASE/gcc-arm-embedded/gcc-arm-none-eabi-4_8-2014q1/bin/../lib/gcc/arm-none-eabi/4.8.3/armv7-m/libgcc.a(bpabi.o)
 .ARM.attributes
                0x00001957       0x1d /homes/skollbach/Downloads/ASE/gcc-arm-embedded/gcc-arm-none-eabi-4_8-2014q1/bin/../lib/gcc/arm-none-eabi/4.8.3/armv7-m/libgcc.a(_dvmd_tls.o)
 .ARM.attributes
                0x00001974       0x2d /homes/skollbach/Downloads/ASE/gcc-arm-embedded/gcc-arm-none-eabi-4_8-2014q1/bin/../lib/gcc/arm-none-eabi/4.8.3/armv7-m/libgcc.a(_divdi3.o)
 .ARM.attributes
                0x000019a1       0x2d /homes/skollbach/Downloads/ASE/gcc-arm-embedded/gcc-arm-none-eabi-4_8-2014q1/bin/../lib/gcc/arm-none-eabi/4.8.3/armv7-m/libgcc.a(_udivdi3.o)

.debug_frame    0x00000000     0x1dc4
 .debug_frame   0x00000000       0x40 /homes/skollbach/Downloads/ASE/gcc-arm-embedded/gcc-arm-none-eabi-4_8-2014q1/bin/../lib/gcc/arm-none-eabi/4.8.3/../../../../arm-none-eabi/lib/armv7-m/libstdc++.a(pure.o)
 .debug_frame   0x00000040       0x20 /homes/skollbach/Downloads/ASE/gcc-arm-embedded/gcc-arm-none-eabi-4_8-2014q1/bin/../lib/gcc/arm-none-eabi/4.8.3/../../../../arm-none-eabi/lib/armv7-m/libstdc++.a(del_op.o)
 .debug_frame   0x00000060       0x90 /homes/skollbach/Downloads/ASE/gcc-arm-embedded/gcc-arm-none-eabi-4_8-2014q1/bin/../lib/gcc/arm-none-eabi/4.8.3/../../../../arm-none-eabi/lib/armv7-m/libstdc++.a(eh_terminate.o)
 .debug_frame   0x000000f0       0x6c /homes/skollbach/Downloads/ASE/gcc-arm-embedded/gcc-arm-none-eabi-4_8-2014q1/bin/../lib/gcc/arm-none-eabi/4.8.3/../../../../arm-none-eabi/lib/armv7-m/libstdc++.a(eh_catch.o)
 .debug_frame   0x0000015c       0x20 /homes/skollbach/Downloads/ASE/gcc-arm-embedded/gcc-arm-none-eabi-4_8-2014q1/bin/../lib/gcc/arm-none-eabi/4.8.3/../../../../arm-none-eabi/lib/armv7-m/libstdc++.a(atexit_arm.o)
 .debug_frame   0x0000017c       0x60 /homes/skollbach/Downloads/ASE/gcc-arm-embedded/gcc-arm-none-eabi-4_8-2014q1/bin/../lib/gcc/arm-none-eabi/4.8.3/../../../../arm-none-eabi/lib/armv7-m/libstdc++.a(eh_arm.o)
 .debug_frame   0x000001dc       0x60 /homes/skollbach/Downloads/ASE/gcc-arm-embedded/gcc-arm-none-eabi-4_8-2014q1/bin/../lib/gcc/arm-none-eabi/4.8.3/../../../../arm-none-eabi/lib/armv7-m/libstdc++.a(eh_call.o)
 .debug_frame   0x0000023c       0x30 /homes/skollbach/Downloads/ASE/gcc-arm-embedded/gcc-arm-none-eabi-4_8-2014q1/bin/../lib/gcc/arm-none-eabi/4.8.3/../../../../arm-none-eabi/lib/armv7-m/libstdc++.a(eh_globals.o)
 .debug_frame   0x0000026c       0x30 /homes/skollbach/Downloads/ASE/gcc-arm-embedded/gcc-arm-none-eabi-4_8-2014q1/bin/../lib/gcc/arm-none-eabi/4.8.3/../../../../arm-none-eabi/lib/armv7-m/libstdc++.a(vterminate.o)
 .debug_frame   0x0000029c       0x68 /homes/skollbach/Downloads/ASE/gcc-arm-embedded/gcc-arm-none-eabi-4_8-2014q1/bin/../lib/gcc/arm-none-eabi/4.8.3/../../../../arm-none-eabi/lib/armv7-m/libstdc++.a(eh_throw.o)
 .debug_frame   0x00000304       0xd0 /homes/skollbach/Downloads/ASE/gcc-arm-embedded/gcc-arm-none-eabi-4_8-2014q1/bin/../lib/gcc/arm-none-eabi/4.8.3/../../../../arm-none-eabi/lib/armv7-m/libstdc++.a(eh_exception.o)
 .debug_frame   0x000003d4       0x28 /homes/skollbach/Downloads/ASE/gcc-arm-embedded/gcc-arm-none-eabi-4_8-2014q1/bin/../lib/gcc/arm-none-eabi/4.8.3/../../../../arm-none-eabi/lib/armv7-m/libstdc++.a(eh_type.o)
 .debug_frame   0x000003fc       0xcc /homes/skollbach/Downloads/ASE/gcc-arm-embedded/gcc-arm-none-eabi-4_8-2014q1/bin/../lib/gcc/arm-none-eabi/4.8.3/../../../../arm-none-eabi/lib/armv7-m/libstdc++.a(class_type_info.o)
 .debug_frame   0x000004c8       0x64 /homes/skollbach/Downloads/ASE/gcc-arm-embedded/gcc-arm-none-eabi-4_8-2014q1/bin/../lib/gcc/arm-none-eabi/4.8.3/../../../../arm-none-eabi/lib/armv7-m/libstdc++.a(eh_alloc.o)
 .debug_frame   0x0000052c      0x500 /homes/skollbach/Downloads/ASE/gcc-arm-embedded/gcc-arm-none-eabi-4_8-2014q1/bin/../lib/gcc/arm-none-eabi/4.8.3/../../../../arm-none-eabi/lib/armv7-m/libstdc++.a(cp-demangle.o)
 .debug_frame   0x00000a2c       0xa8 /homes/skollbach/Downloads/ASE/gcc-arm-embedded/gcc-arm-none-eabi-4_8-2014q1/bin/../lib/gcc/arm-none-eabi/4.8.3/../../../../arm-none-eabi/lib/armv7-m/libstdc++.a(si_class_type_info.o)
 .debug_frame   0x00000ad4       0x90 /homes/skollbach/Downloads/ASE/gcc-arm-embedded/gcc-arm-none-eabi-4_8-2014q1/bin/../lib/gcc/arm-none-eabi/4.8.3/../../../../arm-none-eabi/lib/armv7-m/libstdc++.a(tinfo.o)
 .debug_frame   0x00000b64      0x2ac /homes/skollbach/Downloads/ASE/gcc-arm-embedded/gcc-arm-none-eabi-4_8-2014q1/bin/../lib/gcc/arm-none-eabi/4.8.3/armv7-m/libgcc.a(unwind-arm.o)
 .debug_frame   0x00000e10       0xe8 /homes/skollbach/Downloads/ASE/gcc-arm-embedded/gcc-arm-none-eabi-4_8-2014q1/bin/../lib/gcc/arm-none-eabi/4.8.3/armv7-m/libgcc.a(pr-support.o)
 .debug_frame   0x00000ef8       0x28 /homes/skollbach/Downloads/ASE/gcc-arm-embedded/gcc-arm-none-eabi-4_8-2014q1/bin/../lib/gcc/arm-none-eabi/4.8.3/../../../../arm-none-eabi/lib/armv7-m/libc.a(lib_a-abort.o)
 .debug_frame   0x00000f20       0x30 /homes/skollbach/Downloads/ASE/gcc-arm-embedded/gcc-arm-none-eabi-4_8-2014q1/bin/../lib/gcc/arm-none-eabi/4.8.3/../../../../arm-none-eabi/lib/armv7-m/libc.a(lib_a-atoi.o)
 .debug_frame   0x00000f50       0x28 /homes/skollbach/Downloads/ASE/gcc-arm-embedded/gcc-arm-none-eabi-4_8-2014q1/bin/../lib/gcc/arm-none-eabi/4.8.3/../../../../arm-none-eabi/lib/armv7-m/libc.a(lib_a-cxa_atexit.o)
 .debug_frame   0x00000f78       0x48 /homes/skollbach/Downloads/ASE/gcc-arm-embedded/gcc-arm-none-eabi-4_8-2014q1/bin/../lib/gcc/arm-none-eabi/4.8.3/../../../../arm-none-eabi/lib/armv7-m/libc.a(lib_a-fputc.o)
 .debug_frame   0x00000fc0       0x3c /homes/skollbach/Downloads/ASE/gcc-arm-embedded/gcc-arm-none-eabi-4_8-2014q1/bin/../lib/gcc/arm-none-eabi/4.8.3/../../../../arm-none-eabi/lib/armv7-m/libc.a(lib_a-fputs.o)
 .debug_frame   0x00000ffc       0x38 /homes/skollbach/Downloads/ASE/gcc-arm-embedded/gcc-arm-none-eabi-4_8-2014q1/bin/../lib/gcc/arm-none-eabi/4.8.3/../../../../arm-none-eabi/lib/armv7-m/libc.a(lib_a-fvwrite.o)
 .debug_frame   0x00001034       0x54 /homes/skollbach/Downloads/ASE/gcc-arm-embedded/gcc-arm-none-eabi-4_8-2014q1/bin/../lib/gcc/arm-none-eabi/4.8.3/../../../../arm-none-eabi/lib/armv7-m/libc.a(lib_a-fwrite.o)
 .debug_frame   0x00001088       0x30 /homes/skollbach/Downloads/ASE/gcc-arm-embedded/gcc-arm-none-eabi-4_8-2014q1/bin/../lib/gcc/arm-none-eabi/4.8.3/../../../../arm-none-eabi/lib/armv7-m/libc.a(lib_a-malloc.o)
 .debug_frame   0x000010b8       0x38 /homes/skollbach/Downloads/ASE/gcc-arm-embedded/gcc-arm-none-eabi-4_8-2014q1/bin/../lib/gcc/arm-none-eabi/4.8.3/../../../../arm-none-eabi/lib/armv7-m/libc.a(lib_a-mallocr.o)
 .debug_frame   0x000010f0       0x2c /homes/skollbach/Downloads/ASE/gcc-arm-embedded/gcc-arm-none-eabi-4_8-2014q1/bin/../lib/gcc/arm-none-eabi/4.8.3/../../../../arm-none-eabi/lib/armv7-m/libc.a(lib_a-memchr-stub.o)
 .debug_frame   0x0000111c       0x2c /homes/skollbach/Downloads/ASE/gcc-arm-embedded/gcc-arm-none-eabi-4_8-2014q1/bin/../lib/gcc/arm-none-eabi/4.8.3/../../../../arm-none-eabi/lib/armv7-m/libc.a(lib_a-memcmp.o)
 .debug_frame   0x00001148       0x2c /homes/skollbach/Downloads/ASE/gcc-arm-embedded/gcc-arm-none-eabi-4_8-2014q1/bin/../lib/gcc/arm-none-eabi/4.8.3/../../../../arm-none-eabi/lib/armv7-m/libc.a(lib_a-memmove.o)
 .debug_frame   0x00001174       0x2c /homes/skollbach/Downloads/ASE/gcc-arm-embedded/gcc-arm-none-eabi-4_8-2014q1/bin/../lib/gcc/arm-none-eabi/4.8.3/../../../../arm-none-eabi/lib/armv7-m/libc.a(lib_a-memset.o)
 .debug_frame   0x000011a0       0x30 /homes/skollbach/Downloads/ASE/gcc-arm-embedded/gcc-arm-none-eabi-4_8-2014q1/bin/../lib/gcc/arm-none-eabi/4.8.3/../../../../arm-none-eabi/lib/armv7-m/libc.a(lib_a-mlock.o)
 .debug_frame   0x000011d0       0x48 /homes/skollbach/Downloads/ASE/gcc-arm-embedded/gcc-arm-none-eabi-4_8-2014q1/bin/../lib/gcc/arm-none-eabi/4.8.3/../../../../arm-none-eabi/lib/armv7-m/libc.a(lib_a-putc.o)
 .debug_frame   0x00001218       0x20 /homes/skollbach/Downloads/ASE/gcc-arm-embedded/gcc-arm-none-eabi-4_8-2014q1/bin/../lib/gcc/arm-none-eabi/4.8.3/../../../../arm-none-eabi/lib/armv7-m/libc.a(lib_a-realloc.o)
 .debug_frame   0x00001238       0x38 /homes/skollbach/Downloads/ASE/gcc-arm-embedded/gcc-arm-none-eabi-4_8-2014q1/bin/../lib/gcc/arm-none-eabi/4.8.3/../../../../arm-none-eabi/lib/armv7-m/libc.a(lib_a-reallocr.o)
 .debug_frame   0x00001270       0x48 /homes/skollbach/Downloads/ASE/gcc-arm-embedded/gcc-arm-none-eabi-4_8-2014q1/bin/../lib/gcc/arm-none-eabi/4.8.3/../../../../arm-none-eabi/lib/armv7-m/libc.a(lib_a-reent.o)
 .debug_frame   0x000012b8       0xc0 /homes/skollbach/Downloads/ASE/gcc-arm-embedded/gcc-arm-none-eabi-4_8-2014q1/bin/../lib/gcc/arm-none-eabi/4.8.3/../../../../arm-none-eabi/lib/armv7-m/libc.a(lib_a-signal.o)
 .debug_frame   0x00001378       0x3c /homes/skollbach/Downloads/ASE/gcc-arm-embedded/gcc-arm-none-eabi-4_8-2014q1/bin/../lib/gcc/arm-none-eabi/4.8.3/../../../../arm-none-eabi/lib/armv7-m/libc.a(lib_a-signalr.o)
 .debug_frame   0x000013b4       0x64 /homes/skollbach/Downloads/ASE/gcc-arm-embedded/gcc-arm-none-eabi-4_8-2014q1/bin/../lib/gcc/arm-none-eabi/4.8.3/../../../../arm-none-eabi/lib/armv7-m/libc.a(lib_a-sprintf.o)
 .debug_frame   0x00001418       0x28 /homes/skollbach/Downloads/ASE/gcc-arm-embedded/gcc-arm-none-eabi-4_8-2014q1/bin/../lib/gcc/arm-none-eabi/4.8.3/../../../../arm-none-eabi/lib/armv7-m/libc.a(lib_a-strcasecmp.o)
 .debug_frame   0x00001440       0x20 /homes/skollbach/Downloads/ASE/gcc-arm-embedded/gcc-arm-none-eabi-4_8-2014q1/bin/../lib/gcc/arm-none-eabi/4.8.3/../../../../arm-none-eabi/lib/armv7-m/libc.a(lib_a-strlen.o)
 .debug_frame   0x00001460       0x28 /homes/skollbach/Downloads/ASE/gcc-arm-embedded/gcc-arm-none-eabi-4_8-2014q1/bin/../lib/gcc/arm-none-eabi/4.8.3/../../../../arm-none-eabi/lib/armv7-m/libc.a(lib_a-strncmp.o)
 .debug_frame   0x00001488       0x2c /homes/skollbach/Downloads/ASE/gcc-arm-embedded/gcc-arm-none-eabi-4_8-2014q1/bin/../lib/gcc/arm-none-eabi/4.8.3/../../../../arm-none-eabi/lib/armv7-m/libc.a(lib_a-strpbrk.o)
 .debug_frame   0x000014b4       0x2c /homes/skollbach/Downloads/ASE/gcc-arm-embedded/gcc-arm-none-eabi-4_8-2014q1/bin/../lib/gcc/arm-none-eabi/4.8.3/../../../../arm-none-eabi/lib/armv7-m/libc.a(lib_a-strspn.o)
 .debug_frame   0x000014e0       0x50 /homes/skollbach/Downloads/ASE/gcc-arm-embedded/gcc-arm-none-eabi-4_8-2014q1/bin/../lib/gcc/arm-none-eabi/4.8.3/../../../../arm-none-eabi/lib/armv7-m/libc.a(lib_a-strtol.o)
 .debug_frame   0x00001530       0x3c /homes/skollbach/Downloads/ASE/gcc-arm-embedded/gcc-arm-none-eabi-4_8-2014q1/bin/../lib/gcc/arm-none-eabi/4.8.3/../../../../arm-none-eabi/lib/armv7-m/libc.a(lib_a-svfprintf.o)
 .debug_frame   0x0000156c       0x28 /homes/skollbach/Downloads/ASE/gcc-arm-embedded/gcc-arm-none-eabi-4_8-2014q1/bin/../lib/gcc/arm-none-eabi/4.8.3/../../../../arm-none-eabi/lib/armv7-m/libc.a(lib_a-syswrite.o)
 .debug_frame   0x00001594       0x40 /homes/skollbach/Downloads/ASE/gcc-arm-embedded/gcc-arm-none-eabi-4_8-2014q1/bin/../lib/gcc/arm-none-eabi/4.8.3/../../../../arm-none-eabi/lib/armv7-m/libc.a(lib_a-wbuf.o)
 .debug_frame   0x000015d4       0x2c /homes/skollbach/Downloads/ASE/gcc-arm-embedded/gcc-arm-none-eabi-4_8-2014q1/bin/../lib/gcc/arm-none-eabi/4.8.3/../../../../arm-none-eabi/lib/armv7-m/libc.a(lib_a-wsetup.o)
 .debug_frame   0x00001600       0x30 /homes/skollbach/Downloads/ASE/gcc-arm-embedded/gcc-arm-none-eabi-4_8-2014q1/bin/../lib/gcc/arm-none-eabi/4.8.3/../../../../arm-none-eabi/lib/armv7-m/libc.a(lib_a-__atexit.o)
 .debug_frame   0x00001630       0x64 /homes/skollbach/Downloads/ASE/gcc-arm-embedded/gcc-arm-none-eabi-4_8-2014q1/bin/../lib/gcc/arm-none-eabi/4.8.3/../../../../arm-none-eabi/lib/armv7-m/libc.a(lib_a-dtoa.o)
 .debug_frame   0x00001694       0x5c /homes/skollbach/Downloads/ASE/gcc-arm-embedded/gcc-arm-none-eabi-4_8-2014q1/bin/../lib/gcc/arm-none-eabi/4.8.3/../../../../arm-none-eabi/lib/armv7-m/libc.a(lib_a-fflush.o)
 .debug_frame   0x000016f0      0x110 /homes/skollbach/Downloads/ASE/gcc-arm-embedded/gcc-arm-none-eabi-4_8-2014q1/bin/../lib/gcc/arm-none-eabi/4.8.3/../../../../arm-none-eabi/lib/armv7-m/libc.a(lib_a-findfp.o)
 .debug_frame   0x00001800       0x50 /homes/skollbach/Downloads/ASE/gcc-arm-embedded/gcc-arm-none-eabi-4_8-2014q1/bin/../lib/gcc/arm-none-eabi/4.8.3/../../../../arm-none-eabi/lib/armv7-m/libc.a(lib_a-freer.o)
 .debug_frame   0x00001850       0x54 /homes/skollbach/Downloads/ASE/gcc-arm-embedded/gcc-arm-none-eabi-4_8-2014q1/bin/../lib/gcc/arm-none-eabi/4.8.3/../../../../arm-none-eabi/lib/armv7-m/libc.a(lib_a-fwalk.o)
 .debug_frame   0x000018a4       0x98 /homes/skollbach/Downloads/ASE/gcc-arm-embedded/gcc-arm-none-eabi-4_8-2014q1/bin/../lib/gcc/arm-none-eabi/4.8.3/../../../../arm-none-eabi/lib/armv7-m/libc.a(lib_a-locale.o)
 .debug_frame   0x0000193c       0x30 /homes/skollbach/Downloads/ASE/gcc-arm-embedded/gcc-arm-none-eabi-4_8-2014q1/bin/../lib/gcc/arm-none-eabi/4.8.3/../../../../arm-none-eabi/lib/armv7-m/libc.a(lib_a-makebuf.o)
 .debug_frame   0x0000196c      0x228 /homes/skollbach/Downloads/ASE/gcc-arm-embedded/gcc-arm-none-eabi-4_8-2014q1/bin/../lib/gcc/arm-none-eabi/4.8.3/../../../../arm-none-eabi/lib/armv7-m/libc.a(lib_a-mprec.o)
 .debug_frame   0x00001b94       0x28 /homes/skollbach/Downloads/ASE/gcc-arm-embedded/gcc-arm-none-eabi-4_8-2014q1/bin/../lib/gcc/arm-none-eabi/4.8.3/../../../../arm-none-eabi/lib/armv7-m/libc.a(lib_a-s_fpclassify.o)
 .debug_frame   0x00001bbc       0x80 /homes/skollbach/Downloads/ASE/gcc-arm-embedded/gcc-arm-none-eabi-4_8-2014q1/bin/../lib/gcc/arm-none-eabi/4.8.3/../../../../arm-none-eabi/lib/armv7-m/libc.a(lib_a-stdio.o)
 .debug_frame   0x00001c3c       0x64 /homes/skollbach/Downloads/ASE/gcc-arm-embedded/gcc-arm-none-eabi-4_8-2014q1/bin/../lib/gcc/arm-none-eabi/4.8.3/../../../../arm-none-eabi/lib/armv7-m/libc.a(lib_a-svfiprintf.o)
 .debug_frame   0x00001ca0       0x28 /homes/skollbach/Downloads/ASE/gcc-arm-embedded/gcc-arm-none-eabi-4_8-2014q1/bin/../lib/gcc/arm-none-eabi/4.8.3/../../../../arm-none-eabi/lib/armv7-m/libc.a(lib_a-callocr.o)
 .debug_frame   0x00001cc8       0x3c /homes/skollbach/Downloads/ASE/gcc-arm-embedded/gcc-arm-none-eabi-4_8-2014q1/bin/../lib/gcc/arm-none-eabi/4.8.3/../../../../arm-none-eabi/lib/armv7-m/libc.a(lib_a-fclose.o)
 .debug_frame   0x00001d04       0x58 /homes/skollbach/Downloads/ASE/gcc-arm-embedded/gcc-arm-none-eabi-4_8-2014q1/bin/../lib/gcc/arm-none-eabi/4.8.3/armv7-m/libgcc.a(bpabi.o)
 .debug_frame   0x00001d5c       0x34 /homes/skollbach/Downloads/ASE/gcc-arm-embedded/gcc-arm-none-eabi-4_8-2014q1/bin/../lib/gcc/arm-none-eabi/4.8.3/armv7-m/libgcc.a(_divdi3.o)
 .debug_frame   0x00001d90       0x34 /homes/skollbach/Downloads/ASE/gcc-arm-embedded/gcc-arm-none-eabi-4_8-2014q1/bin/../lib/gcc/arm-none-eabi/4.8.3/armv7-m/libgcc.a(_udivdi3.o)

Cross Reference Table

Symbol                                            File
BusFaultVector                                    build/obj/vectors.o
CAND1                                             build/obj/can_lld.o
                                                  build/obj/main.o
DebugMonitorVector                                build/obj/vectors.o
EXTD1                                             build/obj/ext_lld.o
                                                  build/obj/main.o
                                                  build/obj/ext_lld_isr.o
HardFaultVector                                   build/obj/vectors.o
I2CD2                                             build/obj/i2c_lld.o
                                                  build/obj/main.o
MemManageVector                                   build/obj/vectors.o
NMIVector                                         build/obj/vectors.o
PendSVVector                                      build/obj/vectors.o
ResetHandler                                      build/obj/crt0.o
                                                  build/obj/vectors.o
SD1                                               build/obj/serial_lld.o
                                                  build/obj/main.o
                                                  build/obj/LightRing.o
                                                  build/obj/Debug.o
SD2                                               build/obj/serial_lld.o
                                                  build/obj/main.o
                                                  build/obj/Lidar.o
SPID1                                             build/obj/spi_lld.o
                                                  build/obj/main.o
SPID2                                             build/obj/spi_lld.o
                                                  build/obj/main.o
SVCallVector                                      build/obj/chcore_v7m.o
                                                  build/obj/vectors.o
SysTickVector                                     build/obj/chcore_v7m.o
                                                  build/obj/vectors.o
UsageFaultVector                                  build/obj/vectors.o
Vector100                                         build/obj/vectors.o
Vector104                                         build/obj/vectors.o
Vector108                                         build/obj/vectors.o
Vector10C                                         build/obj/vectors.o
Vector110                                         build/obj/vectors.o
Vector114                                         build/obj/vectors.o
Vector118                                         build/obj/vectors.o
Vector11C                                         build/obj/vectors.o
Vector120                                         build/obj/stm32_dma.o
                                                  build/obj/vectors.o
Vector124                                         build/obj/stm32_dma.o
                                                  build/obj/vectors.o
Vector128                                         build/obj/stm32_dma.o
                                                  build/obj/vectors.o
Vector12C                                         build/obj/stm32_dma.o
                                                  build/obj/vectors.o
Vector1C                                          build/obj/vectors.o
Vector20                                          build/obj/vectors.o
Vector24                                          build/obj/vectors.o
Vector28                                          build/obj/vectors.o
Vector34                                          build/obj/vectors.o
Vector40                                          build/obj/vectors.o
Vector44                                          build/obj/ext_lld_isr.o
                                                  build/obj/vectors.o
Vector48                                          build/obj/vectors.o
Vector4C                                          build/obj/vectors.o
Vector50                                          build/obj/vectors.o
Vector54                                          build/obj/vectors.o
Vector58                                          build/obj/ext_lld_isr.o
                                                  build/obj/vectors.o
Vector5C                                          build/obj/ext_lld_isr.o
                                                  build/obj/vectors.o
Vector60                                          build/obj/ext_lld_isr.o
                                                  build/obj/vectors.o
Vector64                                          build/obj/ext_lld_isr.o
                                                  build/obj/vectors.o
Vector68                                          build/obj/ext_lld_isr.o
                                                  build/obj/vectors.o
Vector6C                                          build/obj/stm32_dma.o
                                                  build/obj/vectors.o
Vector70                                          build/obj/stm32_dma.o
                                                  build/obj/vectors.o
Vector74                                          build/obj/stm32_dma.o
                                                  build/obj/vectors.o
Vector78                                          build/obj/stm32_dma.o
                                                  build/obj/vectors.o
Vector7C                                          build/obj/stm32_dma.o
                                                  build/obj/vectors.o
Vector80                                          build/obj/stm32_dma.o
                                                  build/obj/vectors.o
Vector84                                          build/obj/stm32_dma.o
                                                  build/obj/vectors.o
Vector88                                          build/obj/vectors.o
Vector8C                                          build/obj/can_lld.o
                                                  build/obj/vectors.o
Vector90                                          build/obj/can_lld.o
                                                  build/obj/vectors.o
Vector94                                          build/obj/can_lld.o
                                                  build/obj/vectors.o
Vector98                                          build/obj/can_lld.o
                                                  build/obj/vectors.o
Vector9C                                          build/obj/ext_lld_isr.o
                                                  build/obj/vectors.o
VectorA0                                          build/obj/vectors.o
VectorA4                                          build/obj/vectors.o
VectorA8                                          build/obj/vectors.o
VectorAC                                          build/obj/vectors.o
VectorB0                                          build/obj/vectors.o
VectorB4                                          build/obj/vectors.o
VectorB8                                          build/obj/vectors.o
VectorBC                                          build/obj/vectors.o
VectorC0                                          build/obj/vectors.o
VectorC4                                          build/obj/i2c_lld.o
                                                  build/obj/vectors.o
VectorC8                                          build/obj/i2c_lld.o
                                                  build/obj/vectors.o
VectorCC                                          build/obj/vectors.o
VectorD0                                          build/obj/vectors.o
VectorD4                                          build/obj/serial_lld.o
                                                  build/obj/vectors.o
VectorD8                                          build/obj/serial_lld.o
                                                  build/obj/vectors.o
VectorDC                                          build/obj/vectors.o
VectorE0                                          build/obj/ext_lld_isr.o
                                                  build/obj/vectors.o
VectorE4                                          build/obj/ext_lld_isr.o
                                                  build/obj/vectors.o
VectorE8                                          build/obj/ext_lld_isr.o
                                                  build/obj/vectors.o
VectorEC                                          build/obj/vectors.o
VectorF0                                          build/obj/vectors.o
VectorF4                                          build/obj/vectors.o
VectorF8                                          build/obj/vectors.o
VectorFC                                          build/obj/vectors.o
_Balloc                                           /homes/skollbach/Downloads/ASE/gcc-arm-embedded/gcc-arm-none-eabi-4_8-2014q1/bin/../lib/gcc/arm-none-eabi/4.8.3/../../../../arm-none-eabi/lib/armv7-m/libc.a(lib_a-mprec.o)
                                                  /homes/skollbach/Downloads/ASE/gcc-arm-embedded/gcc-arm-none-eabi-4_8-2014q1/bin/../lib/gcc/arm-none-eabi/4.8.3/../../../../arm-none-eabi/lib/armv7-m/libc.a(lib_a-dtoa.o)
_Bfree                                            /homes/skollbach/Downloads/ASE/gcc-arm-embedded/gcc-arm-none-eabi-4_8-2014q1/bin/../lib/gcc/arm-none-eabi/4.8.3/../../../../arm-none-eabi/lib/armv7-m/libc.a(lib_a-mprec.o)
                                                  /homes/skollbach/Downloads/ASE/gcc-arm-embedded/gcc-arm-none-eabi-4_8-2014q1/bin/../lib/gcc/arm-none-eabi/4.8.3/../../../../arm-none-eabi/lib/armv7-m/libc.a(lib_a-dtoa.o)
_PathLocale                                       /homes/skollbach/Downloads/ASE/gcc-arm-embedded/gcc-arm-none-eabi-4_8-2014q1/bin/../lib/gcc/arm-none-eabi/4.8.3/../../../../arm-none-eabi/lib/armv7-m/libc.a(lib_a-locale.o)
_Unwind_Backtrace                                 /homes/skollbach/Downloads/ASE/gcc-arm-embedded/gcc-arm-none-eabi-4_8-2014q1/bin/../lib/gcc/arm-none-eabi/4.8.3/armv7-m/libgcc.a(libunwind.o)
_Unwind_Complete                                  /homes/skollbach/Downloads/ASE/gcc-arm-embedded/gcc-arm-none-eabi-4_8-2014q1/bin/../lib/gcc/arm-none-eabi/4.8.3/armv7-m/libgcc.a(unwind-arm.o)
                                                  /homes/skollbach/Downloads/ASE/gcc-arm-embedded/gcc-arm-none-eabi-4_8-2014q1/bin/../lib/gcc/arm-none-eabi/4.8.3/../../../../arm-none-eabi/lib/armv7-m/libstdc++.a(eh_catch.o)
_Unwind_DeleteException                           /homes/skollbach/Downloads/ASE/gcc-arm-embedded/gcc-arm-none-eabi-4_8-2014q1/bin/../lib/gcc/arm-none-eabi/4.8.3/armv7-m/libgcc.a(unwind-arm.o)
                                                  /homes/skollbach/Downloads/ASE/gcc-arm-embedded/gcc-arm-none-eabi-4_8-2014q1/bin/../lib/gcc/arm-none-eabi/4.8.3/../../../../arm-none-eabi/lib/armv7-m/libstdc++.a(eh_catch.o)
_Unwind_ForcedUnwind                              /homes/skollbach/Downloads/ASE/gcc-arm-embedded/gcc-arm-none-eabi-4_8-2014q1/bin/../lib/gcc/arm-none-eabi/4.8.3/armv7-m/libgcc.a(libunwind.o)
_Unwind_GetCFA                                    /homes/skollbach/Downloads/ASE/gcc-arm-embedded/gcc-arm-none-eabi-4_8-2014q1/bin/../lib/gcc/arm-none-eabi/4.8.3/armv7-m/libgcc.a(unwind-arm.o)
_Unwind_GetDataRelBase                            /homes/skollbach/Downloads/ASE/gcc-arm-embedded/gcc-arm-none-eabi-4_8-2014q1/bin/../lib/gcc/arm-none-eabi/4.8.3/armv7-m/libgcc.a(pr-support.o)
                                                  /homes/skollbach/Downloads/ASE/gcc-arm-embedded/gcc-arm-none-eabi-4_8-2014q1/bin/../lib/gcc/arm-none-eabi/4.8.3/../../../../arm-none-eabi/lib/armv7-m/libstdc++.a(eh_personality.o)
_Unwind_GetLanguageSpecificData                   /homes/skollbach/Downloads/ASE/gcc-arm-embedded/gcc-arm-none-eabi-4_8-2014q1/bin/../lib/gcc/arm-none-eabi/4.8.3/armv7-m/libgcc.a(pr-support.o)
                                                  /homes/skollbach/Downloads/ASE/gcc-arm-embedded/gcc-arm-none-eabi-4_8-2014q1/bin/../lib/gcc/arm-none-eabi/4.8.3/../../../../arm-none-eabi/lib/armv7-m/libstdc++.a(eh_personality.o)
_Unwind_GetRegionStart                            /homes/skollbach/Downloads/ASE/gcc-arm-embedded/gcc-arm-none-eabi-4_8-2014q1/bin/../lib/gcc/arm-none-eabi/4.8.3/armv7-m/libgcc.a(pr-support.o)
                                                  /homes/skollbach/Downloads/ASE/gcc-arm-embedded/gcc-arm-none-eabi-4_8-2014q1/bin/../lib/gcc/arm-none-eabi/4.8.3/../../../../arm-none-eabi/lib/armv7-m/libstdc++.a(eh_personality.o)
_Unwind_GetTextRelBase                            /homes/skollbach/Downloads/ASE/gcc-arm-embedded/gcc-arm-none-eabi-4_8-2014q1/bin/../lib/gcc/arm-none-eabi/4.8.3/armv7-m/libgcc.a(pr-support.o)
                                                  /homes/skollbach/Downloads/ASE/gcc-arm-embedded/gcc-arm-none-eabi-4_8-2014q1/bin/../lib/gcc/arm-none-eabi/4.8.3/../../../../arm-none-eabi/lib/armv7-m/libstdc++.a(eh_personality.o)
_Unwind_RaiseException                            /homes/skollbach/Downloads/ASE/gcc-arm-embedded/gcc-arm-none-eabi-4_8-2014q1/bin/../lib/gcc/arm-none-eabi/4.8.3/armv7-m/libgcc.a(libunwind.o)
                                                  /homes/skollbach/Downloads/ASE/gcc-arm-embedded/gcc-arm-none-eabi-4_8-2014q1/bin/../lib/gcc/arm-none-eabi/4.8.3/../../../../arm-none-eabi/lib/armv7-m/libstdc++.a(eh_throw.o)
_Unwind_Resume                                    /homes/skollbach/Downloads/ASE/gcc-arm-embedded/gcc-arm-none-eabi-4_8-2014q1/bin/../lib/gcc/arm-none-eabi/4.8.3/armv7-m/libgcc.a(libunwind.o)
                                                  /homes/skollbach/Downloads/ASE/gcc-arm-embedded/gcc-arm-none-eabi-4_8-2014q1/bin/../lib/gcc/arm-none-eabi/4.8.3/../../../../arm-none-eabi/lib/armv7-m/libstdc++.a(eh_arm.o)
_Unwind_Resume_or_Rethrow                         /homes/skollbach/Downloads/ASE/gcc-arm-embedded/gcc-arm-none-eabi-4_8-2014q1/bin/../lib/gcc/arm-none-eabi/4.8.3/armv7-m/libgcc.a(libunwind.o)
                                                  /homes/skollbach/Downloads/ASE/gcc-arm-embedded/gcc-arm-none-eabi-4_8-2014q1/bin/../lib/gcc/arm-none-eabi/4.8.3/../../../../arm-none-eabi/lib/armv7-m/libstdc++.a(eh_throw.o)
_Unwind_VRS_Get                                   /homes/skollbach/Downloads/ASE/gcc-arm-embedded/gcc-arm-none-eabi-4_8-2014q1/bin/../lib/gcc/arm-none-eabi/4.8.3/armv7-m/libgcc.a(unwind-arm.o)
                                                  /homes/skollbach/Downloads/ASE/gcc-arm-embedded/gcc-arm-none-eabi-4_8-2014q1/bin/../lib/gcc/arm-none-eabi/4.8.3/armv7-m/libgcc.a(pr-support.o)
                                                  /homes/skollbach/Downloads/ASE/gcc-arm-embedded/gcc-arm-none-eabi-4_8-2014q1/bin/../lib/gcc/arm-none-eabi/4.8.3/../../../../arm-none-eabi/lib/armv7-m/libstdc++.a(eh_personality.o)
_Unwind_VRS_Pop                                   /homes/skollbach/Downloads/ASE/gcc-arm-embedded/gcc-arm-none-eabi-4_8-2014q1/bin/../lib/gcc/arm-none-eabi/4.8.3/armv7-m/libgcc.a(unwind-arm.o)
                                                  /homes/skollbach/Downloads/ASE/gcc-arm-embedded/gcc-arm-none-eabi-4_8-2014q1/bin/../lib/gcc/arm-none-eabi/4.8.3/armv7-m/libgcc.a(pr-support.o)
_Unwind_VRS_Set                                   /homes/skollbach/Downloads/ASE/gcc-arm-embedded/gcc-arm-none-eabi-4_8-2014q1/bin/../lib/gcc/arm-none-eabi/4.8.3/armv7-m/libgcc.a(unwind-arm.o)
                                                  /homes/skollbach/Downloads/ASE/gcc-arm-embedded/gcc-arm-none-eabi-4_8-2014q1/bin/../lib/gcc/arm-none-eabi/4.8.3/armv7-m/libgcc.a(pr-support.o)
                                                  /homes/skollbach/Downloads/ASE/gcc-arm-embedded/gcc-arm-none-eabi-4_8-2014q1/bin/../lib/gcc/arm-none-eabi/4.8.3/../../../../arm-none-eabi/lib/armv7-m/libstdc++.a(eh_personality.o)
___Unwind_Backtrace                               /homes/skollbach/Downloads/ASE/gcc-arm-embedded/gcc-arm-none-eabi-4_8-2014q1/bin/../lib/gcc/arm-none-eabi/4.8.3/armv7-m/libgcc.a(libunwind.o)
___Unwind_ForcedUnwind                            /homes/skollbach/Downloads/ASE/gcc-arm-embedded/gcc-arm-none-eabi-4_8-2014q1/bin/../lib/gcc/arm-none-eabi/4.8.3/armv7-m/libgcc.a(libunwind.o)
___Unwind_RaiseException                          /homes/skollbach/Downloads/ASE/gcc-arm-embedded/gcc-arm-none-eabi-4_8-2014q1/bin/../lib/gcc/arm-none-eabi/4.8.3/armv7-m/libgcc.a(libunwind.o)
___Unwind_Resume                                  /homes/skollbach/Downloads/ASE/gcc-arm-embedded/gcc-arm-none-eabi-4_8-2014q1/bin/../lib/gcc/arm-none-eabi/4.8.3/armv7-m/libgcc.a(libunwind.o)
___Unwind_Resume_or_Rethrow                       /homes/skollbach/Downloads/ASE/gcc-arm-embedded/gcc-arm-none-eabi-4_8-2014q1/bin/../lib/gcc/arm-none-eabi/4.8.3/armv7-m/libgcc.a(libunwind.o)
__adddf3                                          /homes/skollbach/Downloads/ASE/gcc-arm-embedded/gcc-arm-none-eabi-4_8-2014q1/bin/../lib/gcc/arm-none-eabi/4.8.3/armv7-m/libgcc.a(_arm_addsubdf3.o)
__addsf3                                          /homes/skollbach/Downloads/ASE/gcc-arm-embedded/gcc-arm-none-eabi-4_8-2014q1/bin/../lib/gcc/arm-none-eabi/4.8.3/armv7-m/libgcc.a(_arm_addsubsf3.o)
__aeabi_atexit                                    /homes/skollbach/Downloads/ASE/gcc-arm-embedded/gcc-arm-none-eabi-4_8-2014q1/bin/../lib/gcc/arm-none-eabi/4.8.3/../../../../arm-none-eabi/lib/armv7-m/libstdc++.a(atexit_arm.o)
                                                  build/obj/main.o
__aeabi_cdcmpeq                                   /homes/skollbach/Downloads/ASE/gcc-arm-embedded/gcc-arm-none-eabi-4_8-2014q1/bin/../lib/gcc/arm-none-eabi/4.8.3/armv7-m/libgcc.a(_arm_cmpdf2.o)
__aeabi_cdcmple                                   /homes/skollbach/Downloads/ASE/gcc-arm-embedded/gcc-arm-none-eabi-4_8-2014q1/bin/../lib/gcc/arm-none-eabi/4.8.3/armv7-m/libgcc.a(_arm_cmpdf2.o)
__aeabi_cdrcmple                                  /homes/skollbach/Downloads/ASE/gcc-arm-embedded/gcc-arm-none-eabi-4_8-2014q1/bin/../lib/gcc/arm-none-eabi/4.8.3/armv7-m/libgcc.a(_arm_cmpdf2.o)
__aeabi_cfcmpeq                                   /homes/skollbach/Downloads/ASE/gcc-arm-embedded/gcc-arm-none-eabi-4_8-2014q1/bin/../lib/gcc/arm-none-eabi/4.8.3/armv7-m/libgcc.a(_arm_cmpsf2.o)
__aeabi_cfcmple                                   /homes/skollbach/Downloads/ASE/gcc-arm-embedded/gcc-arm-none-eabi-4_8-2014q1/bin/../lib/gcc/arm-none-eabi/4.8.3/armv7-m/libgcc.a(_arm_cmpsf2.o)
__aeabi_cfrcmple                                  /homes/skollbach/Downloads/ASE/gcc-arm-embedded/gcc-arm-none-eabi-4_8-2014q1/bin/../lib/gcc/arm-none-eabi/4.8.3/armv7-m/libgcc.a(_arm_cmpsf2.o)
__aeabi_d2f                                       /homes/skollbach/Downloads/ASE/gcc-arm-embedded/gcc-arm-none-eabi-4_8-2014q1/bin/../lib/gcc/arm-none-eabi/4.8.3/armv7-m/libgcc.a(_arm_truncdfsf2.o)
                                                  build/obj/chprintf.o
__aeabi_d2iz                                      /homes/skollbach/Downloads/ASE/gcc-arm-embedded/gcc-arm-none-eabi-4_8-2014q1/bin/../lib/gcc/arm-none-eabi/4.8.3/armv7-m/libgcc.a(_arm_fixdfsi.o)
                                                  /homes/skollbach/Downloads/ASE/gcc-arm-embedded/gcc-arm-none-eabi-4_8-2014q1/bin/../lib/gcc/arm-none-eabi/4.8.3/../../../../arm-none-eabi/lib/armv7-m/libc.a(lib_a-dtoa.o)
                                                  build/obj/chprintf.o
__aeabi_dadd                                      /homes/skollbach/Downloads/ASE/gcc-arm-embedded/gcc-arm-none-eabi-4_8-2014q1/bin/../lib/gcc/arm-none-eabi/4.8.3/armv7-m/libgcc.a(_arm_addsubdf3.o)
                                                  /homes/skollbach/Downloads/ASE/gcc-arm-embedded/gcc-arm-none-eabi-4_8-2014q1/bin/../lib/gcc/arm-none-eabi/4.8.3/../../../../arm-none-eabi/lib/armv7-m/libc.a(lib_a-dtoa.o)
__aeabi_dcmpeq                                    /homes/skollbach/Downloads/ASE/gcc-arm-embedded/gcc-arm-none-eabi-4_8-2014q1/bin/../lib/gcc/arm-none-eabi/4.8.3/armv7-m/libgcc.a(_arm_cmpdf2.o)
                                                  /homes/skollbach/Downloads/ASE/gcc-arm-embedded/gcc-arm-none-eabi-4_8-2014q1/bin/../lib/gcc/arm-none-eabi/4.8.3/../../../../arm-none-eabi/lib/armv7-m/libc.a(lib_a-dtoa.o)
                                                  /homes/skollbach/Downloads/ASE/gcc-arm-embedded/gcc-arm-none-eabi-4_8-2014q1/bin/../lib/gcc/arm-none-eabi/4.8.3/../../../../arm-none-eabi/lib/armv7-m/libc.a(lib_a-svfprintf.o)
__aeabi_dcmpge                                    /homes/skollbach/Downloads/ASE/gcc-arm-embedded/gcc-arm-none-eabi-4_8-2014q1/bin/../lib/gcc/arm-none-eabi/4.8.3/armv7-m/libgcc.a(_arm_cmpdf2.o)
                                                  /homes/skollbach/Downloads/ASE/gcc-arm-embedded/gcc-arm-none-eabi-4_8-2014q1/bin/../lib/gcc/arm-none-eabi/4.8.3/../../../../arm-none-eabi/lib/armv7-m/libc.a(lib_a-dtoa.o)
__aeabi_dcmpgt                                    /homes/skollbach/Downloads/ASE/gcc-arm-embedded/gcc-arm-none-eabi-4_8-2014q1/bin/../lib/gcc/arm-none-eabi/4.8.3/armv7-m/libgcc.a(_arm_cmpdf2.o)
                                                  /homes/skollbach/Downloads/ASE/gcc-arm-embedded/gcc-arm-none-eabi-4_8-2014q1/bin/../lib/gcc/arm-none-eabi/4.8.3/../../../../arm-none-eabi/lib/armv7-m/libc.a(lib_a-dtoa.o)
__aeabi_dcmple                                    /homes/skollbach/Downloads/ASE/gcc-arm-embedded/gcc-arm-none-eabi-4_8-2014q1/bin/../lib/gcc/arm-none-eabi/4.8.3/armv7-m/libgcc.a(_arm_cmpdf2.o)
__aeabi_dcmplt                                    /homes/skollbach/Downloads/ASE/gcc-arm-embedded/gcc-arm-none-eabi-4_8-2014q1/bin/../lib/gcc/arm-none-eabi/4.8.3/armv7-m/libgcc.a(_arm_cmpdf2.o)
                                                  /homes/skollbach/Downloads/ASE/gcc-arm-embedded/gcc-arm-none-eabi-4_8-2014q1/bin/../lib/gcc/arm-none-eabi/4.8.3/../../../../arm-none-eabi/lib/armv7-m/libc.a(lib_a-dtoa.o)
                                                  /homes/skollbach/Downloads/ASE/gcc-arm-embedded/gcc-arm-none-eabi-4_8-2014q1/bin/../lib/gcc/arm-none-eabi/4.8.3/../../../../arm-none-eabi/lib/armv7-m/libc.a(lib_a-svfprintf.o)
__aeabi_ddiv                                      /homes/skollbach/Downloads/ASE/gcc-arm-embedded/gcc-arm-none-eabi-4_8-2014q1/bin/../lib/gcc/arm-none-eabi/4.8.3/armv7-m/libgcc.a(_arm_muldivdf3.o)
                                                  /homes/skollbach/Downloads/ASE/gcc-arm-embedded/gcc-arm-none-eabi-4_8-2014q1/bin/../lib/gcc/arm-none-eabi/4.8.3/../../../../arm-none-eabi/lib/armv7-m/libc.a(lib_a-mprec.o)
                                                  /homes/skollbach/Downloads/ASE/gcc-arm-embedded/gcc-arm-none-eabi-4_8-2014q1/bin/../lib/gcc/arm-none-eabi/4.8.3/../../../../arm-none-eabi/lib/armv7-m/libc.a(lib_a-dtoa.o)
__aeabi_dmul                                      /homes/skollbach/Downloads/ASE/gcc-arm-embedded/gcc-arm-none-eabi-4_8-2014q1/bin/../lib/gcc/arm-none-eabi/4.8.3/armv7-m/libgcc.a(_arm_muldivdf3.o)
                                                  /homes/skollbach/Downloads/ASE/gcc-arm-embedded/gcc-arm-none-eabi-4_8-2014q1/bin/../lib/gcc/arm-none-eabi/4.8.3/../../../../arm-none-eabi/lib/armv7-m/libc.a(lib_a-mprec.o)
                                                  /homes/skollbach/Downloads/ASE/gcc-arm-embedded/gcc-arm-none-eabi-4_8-2014q1/bin/../lib/gcc/arm-none-eabi/4.8.3/../../../../arm-none-eabi/lib/armv7-m/libc.a(lib_a-dtoa.o)
                                                  build/obj/chprintf.o
__aeabi_drsub                                     /homes/skollbach/Downloads/ASE/gcc-arm-embedded/gcc-arm-none-eabi-4_8-2014q1/bin/../lib/gcc/arm-none-eabi/4.8.3/armv7-m/libgcc.a(_arm_addsubdf3.o)
__aeabi_dsub                                      /homes/skollbach/Downloads/ASE/gcc-arm-embedded/gcc-arm-none-eabi-4_8-2014q1/bin/../lib/gcc/arm-none-eabi/4.8.3/armv7-m/libgcc.a(_arm_addsubdf3.o)
                                                  /homes/skollbach/Downloads/ASE/gcc-arm-embedded/gcc-arm-none-eabi-4_8-2014q1/bin/../lib/gcc/arm-none-eabi/4.8.3/../../../../arm-none-eabi/lib/armv7-m/libc.a(lib_a-dtoa.o)
                                                  build/obj/chprintf.o
__aeabi_f2d                                       /homes/skollbach/Downloads/ASE/gcc-arm-embedded/gcc-arm-none-eabi-4_8-2014q1/bin/../lib/gcc/arm-none-eabi/4.8.3/armv7-m/libgcc.a(_arm_addsubdf3.o)
                                                  build/obj/main.o
                                                  build/obj/chprintf.o
__aeabi_f2iz                                      /homes/skollbach/Downloads/ASE/gcc-arm-embedded/gcc-arm-none-eabi-4_8-2014q1/bin/../lib/gcc/arm-none-eabi/4.8.3/armv7-m/libgcc.a(_arm_fixsfsi.o)
                                                  build/obj/chprintf.o
__aeabi_f2uiz                                     /homes/skollbach/Downloads/ASE/gcc-arm-embedded/gcc-arm-none-eabi-4_8-2014q1/bin/../lib/gcc/arm-none-eabi/4.8.3/armv7-m/libgcc.a(_arm_fixunssfsi.o)
                                                  build/obj/ControllerAreaNetworkTx.o
__aeabi_fadd                                      /homes/skollbach/Downloads/ASE/gcc-arm-embedded/gcc-arm-none-eabi-4_8-2014q1/bin/../lib/gcc/arm-none-eabi/4.8.3/armv7-m/libgcc.a(_arm_addsubsf3.o)
__aeabi_fcmpeq                                    /homes/skollbach/Downloads/ASE/gcc-arm-embedded/gcc-arm-none-eabi-4_8-2014q1/bin/../lib/gcc/arm-none-eabi/4.8.3/armv7-m/libgcc.a(_arm_cmpsf2.o)
__aeabi_fcmpge                                    /homes/skollbach/Downloads/ASE/gcc-arm-embedded/gcc-arm-none-eabi-4_8-2014q1/bin/../lib/gcc/arm-none-eabi/4.8.3/armv7-m/libgcc.a(_arm_cmpsf2.o)
__aeabi_fcmpgt                                    /homes/skollbach/Downloads/ASE/gcc-arm-embedded/gcc-arm-none-eabi-4_8-2014q1/bin/../lib/gcc/arm-none-eabi/4.8.3/armv7-m/libgcc.a(_arm_cmpsf2.o)
__aeabi_fcmple                                    /homes/skollbach/Downloads/ASE/gcc-arm-embedded/gcc-arm-none-eabi-4_8-2014q1/bin/../lib/gcc/arm-none-eabi/4.8.3/armv7-m/libgcc.a(_arm_cmpsf2.o)
__aeabi_fcmplt                                    /homes/skollbach/Downloads/ASE/gcc-arm-embedded/gcc-arm-none-eabi-4_8-2014q1/bin/../lib/gcc/arm-none-eabi/4.8.3/armv7-m/libgcc.a(_arm_cmpsf2.o)
                                                  build/obj/chprintf.o
__aeabi_fdiv                                      /homes/skollbach/Downloads/ASE/gcc-arm-embedded/gcc-arm-none-eabi-4_8-2014q1/bin/../lib/gcc/arm-none-eabi/4.8.3/armv7-m/libgcc.a(_arm_muldivsf3.o)
                                                  build/obj/main.o
__aeabi_fmul                                      /homes/skollbach/Downloads/ASE/gcc-arm-embedded/gcc-arm-none-eabi-4_8-2014q1/bin/../lib/gcc/arm-none-eabi/4.8.3/armv7-m/libgcc.a(_arm_muldivsf3.o)
                                                  build/obj/main.o
__aeabi_frsub                                     /homes/skollbach/Downloads/ASE/gcc-arm-embedded/gcc-arm-none-eabi-4_8-2014q1/bin/../lib/gcc/arm-none-eabi/4.8.3/armv7-m/libgcc.a(_arm_addsubsf3.o)
__aeabi_fsub                                      /homes/skollbach/Downloads/ASE/gcc-arm-embedded/gcc-arm-none-eabi-4_8-2014q1/bin/../lib/gcc/arm-none-eabi/4.8.3/armv7-m/libgcc.a(_arm_addsubsf3.o)
                                                  build/obj/main.o
__aeabi_i2d                                       /homes/skollbach/Downloads/ASE/gcc-arm-embedded/gcc-arm-none-eabi-4_8-2014q1/bin/../lib/gcc/arm-none-eabi/4.8.3/armv7-m/libgcc.a(_arm_addsubdf3.o)
                                                  /homes/skollbach/Downloads/ASE/gcc-arm-embedded/gcc-arm-none-eabi-4_8-2014q1/bin/../lib/gcc/arm-none-eabi/4.8.3/../../../../arm-none-eabi/lib/armv7-m/libc.a(lib_a-dtoa.o)
                                                  build/obj/chprintf.o
__aeabi_i2f                                       /homes/skollbach/Downloads/ASE/gcc-arm-embedded/gcc-arm-none-eabi-4_8-2014q1/bin/../lib/gcc/arm-none-eabi/4.8.3/armv7-m/libgcc.a(_arm_addsubsf3.o)
                                                  build/obj/main.o
__aeabi_idiv0                                     /homes/skollbach/Downloads/ASE/gcc-arm-embedded/gcc-arm-none-eabi-4_8-2014q1/bin/../lib/gcc/arm-none-eabi/4.8.3/armv7-m/libgcc.a(_dvmd_tls.o)
__aeabi_l2d                                       /homes/skollbach/Downloads/ASE/gcc-arm-embedded/gcc-arm-none-eabi-4_8-2014q1/bin/../lib/gcc/arm-none-eabi/4.8.3/armv7-m/libgcc.a(_arm_addsubdf3.o)
__aeabi_l2f                                       /homes/skollbach/Downloads/ASE/gcc-arm-embedded/gcc-arm-none-eabi-4_8-2014q1/bin/../lib/gcc/arm-none-eabi/4.8.3/armv7-m/libgcc.a(_arm_addsubsf3.o)
__aeabi_ldiv0                                     /homes/skollbach/Downloads/ASE/gcc-arm-embedded/gcc-arm-none-eabi-4_8-2014q1/bin/../lib/gcc/arm-none-eabi/4.8.3/armv7-m/libgcc.a(_dvmd_tls.o)
                                                  /homes/skollbach/Downloads/ASE/gcc-arm-embedded/gcc-arm-none-eabi-4_8-2014q1/bin/../lib/gcc/arm-none-eabi/4.8.3/armv7-m/libgcc.a(_aeabi_uldivmod.o)
__aeabi_ui2d                                      /homes/skollbach/Downloads/ASE/gcc-arm-embedded/gcc-arm-none-eabi-4_8-2014q1/bin/../lib/gcc/arm-none-eabi/4.8.3/armv7-m/libgcc.a(_arm_addsubdf3.o)
                                                  /homes/skollbach/Downloads/ASE/gcc-arm-embedded/gcc-arm-none-eabi-4_8-2014q1/bin/../lib/gcc/arm-none-eabi/4.8.3/../../../../arm-none-eabi/lib/armv7-m/libc.a(lib_a-dtoa.o)
__aeabi_ui2f                                      /homes/skollbach/Downloads/ASE/gcc-arm-embedded/gcc-arm-none-eabi-4_8-2014q1/bin/../lib/gcc/arm-none-eabi/4.8.3/armv7-m/libgcc.a(_arm_addsubsf3.o)
                                                  build/obj/main.o
__aeabi_ul2d                                      /homes/skollbach/Downloads/ASE/gcc-arm-embedded/gcc-arm-none-eabi-4_8-2014q1/bin/../lib/gcc/arm-none-eabi/4.8.3/armv7-m/libgcc.a(_arm_addsubdf3.o)
__aeabi_ul2f                                      /homes/skollbach/Downloads/ASE/gcc-arm-embedded/gcc-arm-none-eabi-4_8-2014q1/bin/../lib/gcc/arm-none-eabi/4.8.3/armv7-m/libgcc.a(_arm_addsubsf3.o)
__aeabi_uldivmod                                  /homes/skollbach/Downloads/ASE/gcc-arm-embedded/gcc-arm-none-eabi-4_8-2014q1/bin/../lib/gcc/arm-none-eabi/4.8.3/armv7-m/libgcc.a(_aeabi_uldivmod.o)
                                                  /homes/skollbach/Downloads/ASE/gcc-arm-embedded/gcc-arm-none-eabi-4_8-2014q1/bin/../lib/gcc/arm-none-eabi/4.8.3/../../../../arm-none-eabi/lib/armv7-m/libc.a(lib_a-svfiprintf.o)
                                                  /homes/skollbach/Downloads/ASE/gcc-arm-embedded/gcc-arm-none-eabi-4_8-2014q1/bin/../lib/gcc/arm-none-eabi/4.8.3/../../../../arm-none-eabi/lib/armv7-m/libc.a(lib_a-svfprintf.o)
__aeabi_unwind_cpp_pr0                            /homes/skollbach/Downloads/ASE/gcc-arm-embedded/gcc-arm-none-eabi-4_8-2014q1/bin/../lib/gcc/arm-none-eabi/4.8.3/armv7-m/libgcc.a(unwind-arm.o)
                                                  /homes/skollbach/Downloads/ASE/gcc-arm-embedded/gcc-arm-none-eabi-4_8-2014q1/bin/../lib/gcc/arm-none-eabi/4.8.3/armv7-m/libgcc.a(pr-support.o)
                                                  /homes/skollbach/Downloads/ASE/gcc-arm-embedded/gcc-arm-none-eabi-4_8-2014q1/bin/../lib/gcc/arm-none-eabi/4.8.3/../../../../arm-none-eabi/lib/armv7-m/libstdc++.a(si_class_type_info.o)
                                                  /homes/skollbach/Downloads/ASE/gcc-arm-embedded/gcc-arm-none-eabi-4_8-2014q1/bin/../lib/gcc/arm-none-eabi/4.8.3/../../../../arm-none-eabi/lib/armv7-m/libstdc++.a(class_type_info.o)
                                                  /homes/skollbach/Downloads/ASE/gcc-arm-embedded/gcc-arm-none-eabi-4_8-2014q1/bin/../lib/gcc/arm-none-eabi/4.8.3/../../../../arm-none-eabi/lib/armv7-m/libstdc++.a(eh_throw.o)
                                                  /homes/skollbach/Downloads/ASE/gcc-arm-embedded/gcc-arm-none-eabi-4_8-2014q1/bin/../lib/gcc/arm-none-eabi/4.8.3/../../../../arm-none-eabi/lib/armv7-m/libstdc++.a(eh_personality.o)
                                                  /homes/skollbach/Downloads/ASE/gcc-arm-embedded/gcc-arm-none-eabi-4_8-2014q1/bin/../lib/gcc/arm-none-eabi/4.8.3/../../../../arm-none-eabi/lib/armv7-m/libstdc++.a(eh_arm.o)
__aeabi_unwind_cpp_pr1                            /homes/skollbach/Downloads/ASE/gcc-arm-embedded/gcc-arm-none-eabi-4_8-2014q1/bin/../lib/gcc/arm-none-eabi/4.8.3/armv7-m/libgcc.a(unwind-arm.o)
                                                  /homes/skollbach/Downloads/ASE/gcc-arm-embedded/gcc-arm-none-eabi-4_8-2014q1/bin/../lib/gcc/arm-none-eabi/4.8.3/armv7-m/libgcc.a(pr-support.o)
                                                  /homes/skollbach/Downloads/ASE/gcc-arm-embedded/gcc-arm-none-eabi-4_8-2014q1/bin/../lib/gcc/arm-none-eabi/4.8.3/../../../../arm-none-eabi/lib/armv7-m/libstdc++.a(eh_personality.o)
                                                  /homes/skollbach/Downloads/ASE/gcc-arm-embedded/gcc-arm-none-eabi-4_8-2014q1/bin/../lib/gcc/arm-none-eabi/4.8.3/../../../../arm-none-eabi/lib/armv7-m/libstdc++.a(eh_terminate.o)
                                                  /homes/skollbach/Downloads/ASE/gcc-arm-embedded/gcc-arm-none-eabi-4_8-2014q1/bin/../lib/gcc/arm-none-eabi/4.8.3/../../../../arm-none-eabi/lib/armv7-m/libstdc++.a(pure.o)
__aeabi_unwind_cpp_pr2                            /homes/skollbach/Downloads/ASE/gcc-arm-embedded/gcc-arm-none-eabi-4_8-2014q1/bin/../lib/gcc/arm-none-eabi/4.8.3/armv7-m/libgcc.a(unwind-arm.o)
__any_on                                          /homes/skollbach/Downloads/ASE/gcc-arm-embedded/gcc-arm-none-eabi-4_8-2014q1/bin/../lib/gcc/arm-none-eabi/4.8.3/../../../../arm-none-eabi/lib/armv7-m/libc.a(lib_a-mprec.o)
__b2d                                             /homes/skollbach/Downloads/ASE/gcc-arm-embedded/gcc-arm-none-eabi-4_8-2014q1/bin/../lib/gcc/arm-none-eabi/4.8.3/../../../../arm-none-eabi/lib/armv7-m/libc.a(lib_a-mprec.o)
__cmpdf2                                          /homes/skollbach/Downloads/ASE/gcc-arm-embedded/gcc-arm-none-eabi-4_8-2014q1/bin/../lib/gcc/arm-none-eabi/4.8.3/armv7-m/libgcc.a(_arm_cmpdf2.o)
__cmpsf2                                          /homes/skollbach/Downloads/ASE/gcc-arm-embedded/gcc-arm-none-eabi-4_8-2014q1/bin/../lib/gcc/arm-none-eabi/4.8.3/armv7-m/libgcc.a(_arm_cmpsf2.o)
__copybits                                        /homes/skollbach/Downloads/ASE/gcc-arm-embedded/gcc-arm-none-eabi-4_8-2014q1/bin/../lib/gcc/arm-none-eabi/4.8.3/../../../../arm-none-eabi/lib/armv7-m/libc.a(lib_a-mprec.o)
__ctype_ptr__                                     /homes/skollbach/Downloads/ASE/gcc-arm-embedded/gcc-arm-none-eabi-4_8-2014q1/bin/../lib/gcc/arm-none-eabi/4.8.3/../../../../arm-none-eabi/lib/armv7-m/libc.a(lib_a-ctype_.o)
                                                  /homes/skollbach/Downloads/ASE/gcc-arm-embedded/gcc-arm-none-eabi-4_8-2014q1/bin/../lib/gcc/arm-none-eabi/4.8.3/../../../../arm-none-eabi/lib/armv7-m/libc.a(lib_a-strtol.o)
                                                  /homes/skollbach/Downloads/ASE/gcc-arm-embedded/gcc-arm-none-eabi-4_8-2014q1/bin/../lib/gcc/arm-none-eabi/4.8.3/../../../../arm-none-eabi/lib/armv7-m/libc.a(lib_a-strcasecmp.o)
__cxa_allocate_dependent_exception                /homes/skollbach/Downloads/ASE/gcc-arm-embedded/gcc-arm-none-eabi-4_8-2014q1/bin/../lib/gcc/arm-none-eabi/4.8.3/../../../../arm-none-eabi/lib/armv7-m/libstdc++.a(eh_alloc.o)
__cxa_allocate_exception                          /homes/skollbach/Downloads/ASE/gcc-arm-embedded/gcc-arm-none-eabi-4_8-2014q1/bin/../lib/gcc/arm-none-eabi/4.8.3/../../../../arm-none-eabi/lib/armv7-m/libstdc++.a(eh_alloc.o)
                                                  /homes/skollbach/Downloads/ASE/gcc-arm-embedded/gcc-arm-none-eabi-4_8-2014q1/bin/../lib/gcc/arm-none-eabi/4.8.3/../../../../arm-none-eabi/lib/armv7-m/libstdc++.a(eh_call.o)
__cxa_atexit                                      /homes/skollbach/Downloads/ASE/gcc-arm-embedded/gcc-arm-none-eabi-4_8-2014q1/bin/../lib/gcc/arm-none-eabi/4.8.3/../../../../arm-none-eabi/lib/armv7-m/libc.a(lib_a-cxa_atexit.o)
                                                  /homes/skollbach/Downloads/ASE/gcc-arm-embedded/gcc-arm-none-eabi-4_8-2014q1/bin/../lib/gcc/arm-none-eabi/4.8.3/../../../../arm-none-eabi/lib/armv7-m/libstdc++.a(atexit_arm.o)
__cxa_begin_catch                                 /homes/skollbach/Downloads/ASE/gcc-arm-embedded/gcc-arm-none-eabi-4_8-2014q1/bin/../lib/gcc/arm-none-eabi/4.8.3/../../../../arm-none-eabi/lib/armv7-m/libstdc++.a(eh_catch.o)
                                                  /homes/skollbach/Downloads/ASE/gcc-arm-embedded/gcc-arm-none-eabi-4_8-2014q1/bin/../lib/gcc/arm-none-eabi/4.8.3/../../../../arm-none-eabi/lib/armv7-m/libstdc++.a(eh_throw.o)
                                                  /homes/skollbach/Downloads/ASE/gcc-arm-embedded/gcc-arm-none-eabi-4_8-2014q1/bin/../lib/gcc/arm-none-eabi/4.8.3/../../../../arm-none-eabi/lib/armv7-m/libstdc++.a(vterminate.o)
                                                  /homes/skollbach/Downloads/ASE/gcc-arm-embedded/gcc-arm-none-eabi-4_8-2014q1/bin/../lib/gcc/arm-none-eabi/4.8.3/../../../../arm-none-eabi/lib/armv7-m/libstdc++.a(eh_personality.o)
                                                  /homes/skollbach/Downloads/ASE/gcc-arm-embedded/gcc-arm-none-eabi-4_8-2014q1/bin/../lib/gcc/arm-none-eabi/4.8.3/../../../../arm-none-eabi/lib/armv7-m/libstdc++.a(eh_call.o)
                                                  /homes/skollbach/Downloads/ASE/gcc-arm-embedded/gcc-arm-none-eabi-4_8-2014q1/bin/../lib/gcc/arm-none-eabi/4.8.3/../../../../arm-none-eabi/lib/armv7-m/libstdc++.a(eh_terminate.o)
__cxa_begin_cleanup                               /homes/skollbach/Downloads/ASE/gcc-arm-embedded/gcc-arm-none-eabi-4_8-2014q1/bin/../lib/gcc/arm-none-eabi/4.8.3/../../../../arm-none-eabi/lib/armv7-m/libstdc++.a(eh_arm.o)
                                                  /homes/skollbach/Downloads/ASE/gcc-arm-embedded/gcc-arm-none-eabi-4_8-2014q1/bin/../lib/gcc/arm-none-eabi/4.8.3/armv7-m/libgcc.a(unwind-arm.o)
                                                  /homes/skollbach/Downloads/ASE/gcc-arm-embedded/gcc-arm-none-eabi-4_8-2014q1/bin/../lib/gcc/arm-none-eabi/4.8.3/../../../../arm-none-eabi/lib/armv7-m/libstdc++.a(eh_personality.o)
__cxa_call_terminate                              /homes/skollbach/Downloads/ASE/gcc-arm-embedded/gcc-arm-none-eabi-4_8-2014q1/bin/../lib/gcc/arm-none-eabi/4.8.3/../../../../arm-none-eabi/lib/armv7-m/libstdc++.a(eh_call.o)
                                                  /homes/skollbach/Downloads/ASE/gcc-arm-embedded/gcc-arm-none-eabi-4_8-2014q1/bin/../lib/gcc/arm-none-eabi/4.8.3/../../../../arm-none-eabi/lib/armv7-m/libstdc++.a(eh_personality.o)
__cxa_call_unexpected                             /homes/skollbach/Downloads/ASE/gcc-arm-embedded/gcc-arm-none-eabi-4_8-2014q1/bin/../lib/gcc/arm-none-eabi/4.8.3/../../../../arm-none-eabi/lib/armv7-m/libstdc++.a(eh_call.o)
                                                  /homes/skollbach/Downloads/ASE/gcc-arm-embedded/gcc-arm-none-eabi-4_8-2014q1/bin/../lib/gcc/arm-none-eabi/4.8.3/armv7-m/libgcc.a(unwind-arm.o)
                                                  /homes/skollbach/Downloads/ASE/gcc-arm-embedded/gcc-arm-none-eabi-4_8-2014q1/bin/../lib/gcc/arm-none-eabi/4.8.3/../../../../arm-none-eabi/lib/armv7-m/libstdc++.a(eh_catch.o)
                                                  /homes/skollbach/Downloads/ASE/gcc-arm-embedded/gcc-arm-none-eabi-4_8-2014q1/bin/../lib/gcc/arm-none-eabi/4.8.3/../../../../arm-none-eabi/lib/armv7-m/libstdc++.a(eh_terminate.o)
__cxa_current_exception_type                      /homes/skollbach/Downloads/ASE/gcc-arm-embedded/gcc-arm-none-eabi-4_8-2014q1/bin/../lib/gcc/arm-none-eabi/4.8.3/../../../../arm-none-eabi/lib/armv7-m/libstdc++.a(eh_type.o)
                                                  /homes/skollbach/Downloads/ASE/gcc-arm-embedded/gcc-arm-none-eabi-4_8-2014q1/bin/../lib/gcc/arm-none-eabi/4.8.3/../../../../arm-none-eabi/lib/armv7-m/libstdc++.a(vterminate.o)
__cxa_deleted_virtual                             /homes/skollbach/Downloads/ASE/gcc-arm-embedded/gcc-arm-none-eabi-4_8-2014q1/bin/../lib/gcc/arm-none-eabi/4.8.3/../../../../arm-none-eabi/lib/armv7-m/libstdc++.a(pure.o)
__cxa_demangle                                    /homes/skollbach/Downloads/ASE/gcc-arm-embedded/gcc-arm-none-eabi-4_8-2014q1/bin/../lib/gcc/arm-none-eabi/4.8.3/../../../../arm-none-eabi/lib/armv7-m/libstdc++.a(cp-demangle.o)
                                                  /homes/skollbach/Downloads/ASE/gcc-arm-embedded/gcc-arm-none-eabi-4_8-2014q1/bin/../lib/gcc/arm-none-eabi/4.8.3/../../../../arm-none-eabi/lib/armv7-m/libstdc++.a(vterminate.o)
__cxa_end_catch                                   /homes/skollbach/Downloads/ASE/gcc-arm-embedded/gcc-arm-none-eabi-4_8-2014q1/bin/../lib/gcc/arm-none-eabi/4.8.3/../../../../arm-none-eabi/lib/armv7-m/libstdc++.a(eh_catch.o)
                                                  /homes/skollbach/Downloads/ASE/gcc-arm-embedded/gcc-arm-none-eabi-4_8-2014q1/bin/../lib/gcc/arm-none-eabi/4.8.3/../../../../arm-none-eabi/lib/armv7-m/libstdc++.a(vterminate.o)
                                                  /homes/skollbach/Downloads/ASE/gcc-arm-embedded/gcc-arm-none-eabi-4_8-2014q1/bin/../lib/gcc/arm-none-eabi/4.8.3/../../../../arm-none-eabi/lib/armv7-m/libstdc++.a(eh_call.o)
                                                  /homes/skollbach/Downloads/ASE/gcc-arm-embedded/gcc-arm-none-eabi-4_8-2014q1/bin/../lib/gcc/arm-none-eabi/4.8.3/../../../../arm-none-eabi/lib/armv7-m/libstdc++.a(eh_terminate.o)
__cxa_end_cleanup                                 /homes/skollbach/Downloads/ASE/gcc-arm-embedded/gcc-arm-none-eabi-4_8-2014q1/bin/../lib/gcc/arm-none-eabi/4.8.3/../../../../arm-none-eabi/lib/armv7-m/libstdc++.a(eh_arm.o)
                                                  /homes/skollbach/Downloads/ASE/gcc-arm-embedded/gcc-arm-none-eabi-4_8-2014q1/bin/../lib/gcc/arm-none-eabi/4.8.3/../../../../arm-none-eabi/lib/armv7-m/libstdc++.a(vterminate.o)
                                                  /homes/skollbach/Downloads/ASE/gcc-arm-embedded/gcc-arm-none-eabi-4_8-2014q1/bin/../lib/gcc/arm-none-eabi/4.8.3/../../../../arm-none-eabi/lib/armv7-m/libstdc++.a(eh_call.o)
                                                  /homes/skollbach/Downloads/ASE/gcc-arm-embedded/gcc-arm-none-eabi-4_8-2014q1/bin/../lib/gcc/arm-none-eabi/4.8.3/../../../../arm-none-eabi/lib/armv7-m/libstdc++.a(eh_catch.o)
                                                  /homes/skollbach/Downloads/ASE/gcc-arm-embedded/gcc-arm-none-eabi-4_8-2014q1/bin/../lib/gcc/arm-none-eabi/4.8.3/../../../../arm-none-eabi/lib/armv7-m/libstdc++.a(eh_terminate.o)
__cxa_free_dependent_exception                    /homes/skollbach/Downloads/ASE/gcc-arm-embedded/gcc-arm-none-eabi-4_8-2014q1/bin/../lib/gcc/arm-none-eabi/4.8.3/../../../../arm-none-eabi/lib/armv7-m/libstdc++.a(eh_alloc.o)
__cxa_free_exception                              /homes/skollbach/Downloads/ASE/gcc-arm-embedded/gcc-arm-none-eabi-4_8-2014q1/bin/../lib/gcc/arm-none-eabi/4.8.3/../../../../arm-none-eabi/lib/armv7-m/libstdc++.a(eh_alloc.o)
                                                  /homes/skollbach/Downloads/ASE/gcc-arm-embedded/gcc-arm-none-eabi-4_8-2014q1/bin/../lib/gcc/arm-none-eabi/4.8.3/../../../../arm-none-eabi/lib/armv7-m/libstdc++.a(eh_throw.o)
__cxa_get_exception_ptr                           /homes/skollbach/Downloads/ASE/gcc-arm-embedded/gcc-arm-none-eabi-4_8-2014q1/bin/../lib/gcc/arm-none-eabi/4.8.3/../../../../arm-none-eabi/lib/armv7-m/libstdc++.a(eh_catch.o)
__cxa_get_globals                                 /homes/skollbach/Downloads/ASE/gcc-arm-embedded/gcc-arm-none-eabi-4_8-2014q1/bin/../lib/gcc/arm-none-eabi/4.8.3/../../../../arm-none-eabi/lib/armv7-m/libstdc++.a(eh_globals.o)
                                                  /homes/skollbach/Downloads/ASE/gcc-arm-embedded/gcc-arm-none-eabi-4_8-2014q1/bin/../lib/gcc/arm-none-eabi/4.8.3/../../../../arm-none-eabi/lib/armv7-m/libstdc++.a(eh_type.o)
                                                  /homes/skollbach/Downloads/ASE/gcc-arm-embedded/gcc-arm-none-eabi-4_8-2014q1/bin/../lib/gcc/arm-none-eabi/4.8.3/../../../../arm-none-eabi/lib/armv7-m/libstdc++.a(eh_throw.o)
                                                  /homes/skollbach/Downloads/ASE/gcc-arm-embedded/gcc-arm-none-eabi-4_8-2014q1/bin/../lib/gcc/arm-none-eabi/4.8.3/../../../../arm-none-eabi/lib/armv7-m/libstdc++.a(eh_arm.o)
                                                  /homes/skollbach/Downloads/ASE/gcc-arm-embedded/gcc-arm-none-eabi-4_8-2014q1/bin/../lib/gcc/arm-none-eabi/4.8.3/../../../../arm-none-eabi/lib/armv7-m/libstdc++.a(eh_catch.o)
__cxa_get_globals_fast                            /homes/skollbach/Downloads/ASE/gcc-arm-embedded/gcc-arm-none-eabi-4_8-2014q1/bin/../lib/gcc/arm-none-eabi/4.8.3/../../../../arm-none-eabi/lib/armv7-m/libstdc++.a(eh_globals.o)
                                                  /homes/skollbach/Downloads/ASE/gcc-arm-embedded/gcc-arm-none-eabi-4_8-2014q1/bin/../lib/gcc/arm-none-eabi/4.8.3/../../../../arm-none-eabi/lib/armv7-m/libstdc++.a(eh_call.o)
                                                  /homes/skollbach/Downloads/ASE/gcc-arm-embedded/gcc-arm-none-eabi-4_8-2014q1/bin/../lib/gcc/arm-none-eabi/4.8.3/../../../../arm-none-eabi/lib/armv7-m/libstdc++.a(eh_catch.o)
__cxa_pure_virtual                                /homes/skollbach/Downloads/ASE/gcc-arm-embedded/gcc-arm-none-eabi-4_8-2014q1/bin/../lib/gcc/arm-none-eabi/4.8.3/../../../../arm-none-eabi/lib/armv7-m/libstdc++.a(pure.o)
                                                  /homes/skollbach/Downloads/ASE/gcc-arm-embedded/gcc-arm-none-eabi-4_8-2014q1/bin/../lib/gcc/arm-none-eabi/4.8.3/../../../../arm-none-eabi/lib/armv7-m/libstdc++.a(eh_exception.o)
                                                  build/obj/main.o
                                                  build/obj/serial_can_mux.o
                                                  build/obj/ControllerAreaNetworkTx.o
                                                  build/obj/ControllerAreaNetworkRx.o
                                                  build/obj/HWI2CDriver.o
__cxa_rethrow                                     /homes/skollbach/Downloads/ASE/gcc-arm-embedded/gcc-arm-none-eabi-4_8-2014q1/bin/../lib/gcc/arm-none-eabi/4.8.3/../../../../arm-none-eabi/lib/armv7-m/libstdc++.a(eh_throw.o)
                                                  /homes/skollbach/Downloads/ASE/gcc-arm-embedded/gcc-arm-none-eabi-4_8-2014q1/bin/../lib/gcc/arm-none-eabi/4.8.3/../../../../arm-none-eabi/lib/armv7-m/libstdc++.a(vterminate.o)
                                                  /homes/skollbach/Downloads/ASE/gcc-arm-embedded/gcc-arm-none-eabi-4_8-2014q1/bin/../lib/gcc/arm-none-eabi/4.8.3/../../../../arm-none-eabi/lib/armv7-m/libstdc++.a(eh_call.o)
__cxa_throw                                       /homes/skollbach/Downloads/ASE/gcc-arm-embedded/gcc-arm-none-eabi-4_8-2014q1/bin/../lib/gcc/arm-none-eabi/4.8.3/../../../../arm-none-eabi/lib/armv7-m/libstdc++.a(eh_throw.o)
                                                  /homes/skollbach/Downloads/ASE/gcc-arm-embedded/gcc-arm-none-eabi-4_8-2014q1/bin/../lib/gcc/arm-none-eabi/4.8.3/../../../../arm-none-eabi/lib/armv7-m/libstdc++.a(eh_call.o)
__cxa_type_match                                  /homes/skollbach/Downloads/ASE/gcc-arm-embedded/gcc-arm-none-eabi-4_8-2014q1/bin/../lib/gcc/arm-none-eabi/4.8.3/../../../../arm-none-eabi/lib/armv7-m/libstdc++.a(eh_arm.o)
                                                  /homes/skollbach/Downloads/ASE/gcc-arm-embedded/gcc-arm-none-eabi-4_8-2014q1/bin/../lib/gcc/arm-none-eabi/4.8.3/armv7-m/libgcc.a(unwind-arm.o)
                                                  /homes/skollbach/Downloads/ASE/gcc-arm-embedded/gcc-arm-none-eabi-4_8-2014q1/bin/../lib/gcc/arm-none-eabi/4.8.3/../../../../arm-none-eabi/lib/armv7-m/libstdc++.a(eh_personality.o)
                                                  /homes/skollbach/Downloads/ASE/gcc-arm-embedded/gcc-arm-none-eabi-4_8-2014q1/bin/../lib/gcc/arm-none-eabi/4.8.3/../../../../arm-none-eabi/lib/armv7-m/libstdc++.a(eh_call.o)
__cxxabiv1::__class_type_info::__do_catch(std::type_info const*, void**, unsigned int) const /homes/skollbach/Downloads/ASE/gcc-arm-embedded/gcc-arm-none-eabi-4_8-2014q1/bin/../lib/gcc/arm-none-eabi/4.8.3/../../../../arm-none-eabi/lib/armv7-m/libstdc++.a(class_type_info.o)
                                                  /homes/skollbach/Downloads/ASE/gcc-arm-embedded/gcc-arm-none-eabi-4_8-2014q1/bin/../lib/gcc/arm-none-eabi/4.8.3/../../../../arm-none-eabi/lib/armv7-m/libstdc++.a(si_class_type_info.o)
__cxxabiv1::__class_type_info::__do_dyncast(int, __cxxabiv1::__class_type_info::__sub_kind, __cxxabiv1::__class_type_info const*, void const*, __cxxabiv1::__class_type_info const*, void const*, __cxxabiv1::__class_type_info::__dyncast_result&) const /homes/skollbach/Downloads/ASE/gcc-arm-embedded/gcc-arm-none-eabi-4_8-2014q1/bin/../lib/gcc/arm-none-eabi/4.8.3/../../../../arm-none-eabi/lib/armv7-m/libstdc++.a(class_type_info.o)
__cxxabiv1::__class_type_info::__do_find_public_src(int, void const*, __cxxabiv1::__class_type_info const*, void const*) const /homes/skollbach/Downloads/ASE/gcc-arm-embedded/gcc-arm-none-eabi-4_8-2014q1/bin/../lib/gcc/arm-none-eabi/4.8.3/../../../../arm-none-eabi/lib/armv7-m/libstdc++.a(class_type_info.o)
__cxxabiv1::__class_type_info::__do_upcast(__cxxabiv1::__class_type_info const*, void const*, __cxxabiv1::__class_type_info::__upcast_result&) const /homes/skollbach/Downloads/ASE/gcc-arm-embedded/gcc-arm-none-eabi-4_8-2014q1/bin/../lib/gcc/arm-none-eabi/4.8.3/../../../../arm-none-eabi/lib/armv7-m/libstdc++.a(class_type_info.o)
                                                  /homes/skollbach/Downloads/ASE/gcc-arm-embedded/gcc-arm-none-eabi-4_8-2014q1/bin/../lib/gcc/arm-none-eabi/4.8.3/../../../../arm-none-eabi/lib/armv7-m/libstdc++.a(si_class_type_info.o)
__cxxabiv1::__class_type_info::__do_upcast(__cxxabiv1::__class_type_info const*, void**) const /homes/skollbach/Downloads/ASE/gcc-arm-embedded/gcc-arm-none-eabi-4_8-2014q1/bin/../lib/gcc/arm-none-eabi/4.8.3/../../../../arm-none-eabi/lib/armv7-m/libstdc++.a(class_type_info.o)
                                                  /homes/skollbach/Downloads/ASE/gcc-arm-embedded/gcc-arm-none-eabi-4_8-2014q1/bin/../lib/gcc/arm-none-eabi/4.8.3/../../../../arm-none-eabi/lib/armv7-m/libstdc++.a(si_class_type_info.o)
__cxxabiv1::__class_type_info::~__class_type_info() /homes/skollbach/Downloads/ASE/gcc-arm-embedded/gcc-arm-none-eabi-4_8-2014q1/bin/../lib/gcc/arm-none-eabi/4.8.3/../../../../arm-none-eabi/lib/armv7-m/libstdc++.a(class_type_info.o)
__cxxabiv1::__class_type_info::~__class_type_info() /homes/skollbach/Downloads/ASE/gcc-arm-embedded/gcc-arm-none-eabi-4_8-2014q1/bin/../lib/gcc/arm-none-eabi/4.8.3/../../../../arm-none-eabi/lib/armv7-m/libstdc++.a(class_type_info.o)
                                                  /homes/skollbach/Downloads/ASE/gcc-arm-embedded/gcc-arm-none-eabi-4_8-2014q1/bin/../lib/gcc/arm-none-eabi/4.8.3/../../../../arm-none-eabi/lib/armv7-m/libstdc++.a(si_class_type_info.o)
__cxxabiv1::__class_type_info::~__class_type_info() /homes/skollbach/Downloads/ASE/gcc-arm-embedded/gcc-arm-none-eabi-4_8-2014q1/bin/../lib/gcc/arm-none-eabi/4.8.3/../../../../arm-none-eabi/lib/armv7-m/libstdc++.a(class_type_info.o)
__cxxabiv1::__forced_unwind::~__forced_unwind()   /homes/skollbach/Downloads/ASE/gcc-arm-embedded/gcc-arm-none-eabi-4_8-2014q1/bin/../lib/gcc/arm-none-eabi/4.8.3/../../../../arm-none-eabi/lib/armv7-m/libstdc++.a(eh_exception.o)
__cxxabiv1::__forced_unwind::~__forced_unwind()   /homes/skollbach/Downloads/ASE/gcc-arm-embedded/gcc-arm-none-eabi-4_8-2014q1/bin/../lib/gcc/arm-none-eabi/4.8.3/../../../../arm-none-eabi/lib/armv7-m/libstdc++.a(eh_exception.o)
__cxxabiv1::__forced_unwind::~__forced_unwind()   /homes/skollbach/Downloads/ASE/gcc-arm-embedded/gcc-arm-none-eabi-4_8-2014q1/bin/../lib/gcc/arm-none-eabi/4.8.3/../../../../arm-none-eabi/lib/armv7-m/libstdc++.a(eh_exception.o)
__cxxabiv1::__foreign_exception::~__foreign_exception() /homes/skollbach/Downloads/ASE/gcc-arm-embedded/gcc-arm-none-eabi-4_8-2014q1/bin/../lib/gcc/arm-none-eabi/4.8.3/../../../../arm-none-eabi/lib/armv7-m/libstdc++.a(eh_exception.o)
__cxxabiv1::__foreign_exception::~__foreign_exception() /homes/skollbach/Downloads/ASE/gcc-arm-embedded/gcc-arm-none-eabi-4_8-2014q1/bin/../lib/gcc/arm-none-eabi/4.8.3/../../../../arm-none-eabi/lib/armv7-m/libstdc++.a(eh_exception.o)
__cxxabiv1::__foreign_exception::~__foreign_exception() /homes/skollbach/Downloads/ASE/gcc-arm-embedded/gcc-arm-none-eabi-4_8-2014q1/bin/../lib/gcc/arm-none-eabi/4.8.3/../../../../arm-none-eabi/lib/armv7-m/libstdc++.a(eh_exception.o)
__cxxabiv1::__si_class_type_info::__do_dyncast(int, __cxxabiv1::__class_type_info::__sub_kind, __cxxabiv1::__class_type_info const*, void const*, __cxxabiv1::__class_type_info const*, void const*, __cxxabiv1::__class_type_info::__dyncast_result&) const /homes/skollbach/Downloads/ASE/gcc-arm-embedded/gcc-arm-none-eabi-4_8-2014q1/bin/../lib/gcc/arm-none-eabi/4.8.3/../../../../arm-none-eabi/lib/armv7-m/libstdc++.a(si_class_type_info.o)
__cxxabiv1::__si_class_type_info::__do_find_public_src(int, void const*, __cxxabiv1::__class_type_info const*, void const*) const /homes/skollbach/Downloads/ASE/gcc-arm-embedded/gcc-arm-none-eabi-4_8-2014q1/bin/../lib/gcc/arm-none-eabi/4.8.3/../../../../arm-none-eabi/lib/armv7-m/libstdc++.a(si_class_type_info.o)
__cxxabiv1::__si_class_type_info::__do_upcast(__cxxabiv1::__class_type_info const*, void const*, __cxxabiv1::__class_type_info::__upcast_result&) const /homes/skollbach/Downloads/ASE/gcc-arm-embedded/gcc-arm-none-eabi-4_8-2014q1/bin/../lib/gcc/arm-none-eabi/4.8.3/../../../../arm-none-eabi/lib/armv7-m/libstdc++.a(si_class_type_info.o)
__cxxabiv1::__si_class_type_info::~__si_class_type_info() /homes/skollbach/Downloads/ASE/gcc-arm-embedded/gcc-arm-none-eabi-4_8-2014q1/bin/../lib/gcc/arm-none-eabi/4.8.3/../../../../arm-none-eabi/lib/armv7-m/libstdc++.a(si_class_type_info.o)
__cxxabiv1::__si_class_type_info::~__si_class_type_info() /homes/skollbach/Downloads/ASE/gcc-arm-embedded/gcc-arm-none-eabi-4_8-2014q1/bin/../lib/gcc/arm-none-eabi/4.8.3/../../../../arm-none-eabi/lib/armv7-m/libstdc++.a(si_class_type_info.o)
__cxxabiv1::__si_class_type_info::~__si_class_type_info() /homes/skollbach/Downloads/ASE/gcc-arm-embedded/gcc-arm-none-eabi-4_8-2014q1/bin/../lib/gcc/arm-none-eabi/4.8.3/../../../../arm-none-eabi/lib/armv7-m/libstdc++.a(si_class_type_info.o)
__cxxabiv1::__terminate(void (*)())               /homes/skollbach/Downloads/ASE/gcc-arm-embedded/gcc-arm-none-eabi-4_8-2014q1/bin/../lib/gcc/arm-none-eabi/4.8.3/../../../../arm-none-eabi/lib/armv7-m/libstdc++.a(eh_terminate.o)
                                                  /homes/skollbach/Downloads/ASE/gcc-arm-embedded/gcc-arm-none-eabi-4_8-2014q1/bin/../lib/gcc/arm-none-eabi/4.8.3/../../../../arm-none-eabi/lib/armv7-m/libstdc++.a(eh_throw.o)
                                                  /homes/skollbach/Downloads/ASE/gcc-arm-embedded/gcc-arm-none-eabi-4_8-2014q1/bin/../lib/gcc/arm-none-eabi/4.8.3/../../../../arm-none-eabi/lib/armv7-m/libstdc++.a(eh_call.o)
__cxxabiv1::__terminate_handler                   /homes/skollbach/Downloads/ASE/gcc-arm-embedded/gcc-arm-none-eabi-4_8-2014q1/bin/../lib/gcc/arm-none-eabi/4.8.3/../../../../arm-none-eabi/lib/armv7-m/libstdc++.a(eh_term_handler.o)
                                                  /homes/skollbach/Downloads/ASE/gcc-arm-embedded/gcc-arm-none-eabi-4_8-2014q1/bin/../lib/gcc/arm-none-eabi/4.8.3/../../../../arm-none-eabi/lib/armv7-m/libstdc++.a(eh_throw.o)
                                                  /homes/skollbach/Downloads/ASE/gcc-arm-embedded/gcc-arm-none-eabi-4_8-2014q1/bin/../lib/gcc/arm-none-eabi/4.8.3/../../../../arm-none-eabi/lib/armv7-m/libstdc++.a(eh_terminate.o)
__cxxabiv1::__unexpected(void (*)())              /homes/skollbach/Downloads/ASE/gcc-arm-embedded/gcc-arm-none-eabi-4_8-2014q1/bin/../lib/gcc/arm-none-eabi/4.8.3/../../../../arm-none-eabi/lib/armv7-m/libstdc++.a(eh_terminate.o)
                                                  /homes/skollbach/Downloads/ASE/gcc-arm-embedded/gcc-arm-none-eabi-4_8-2014q1/bin/../lib/gcc/arm-none-eabi/4.8.3/../../../../arm-none-eabi/lib/armv7-m/libstdc++.a(eh_call.o)
__cxxabiv1::__unexpected_handler                  /homes/skollbach/Downloads/ASE/gcc-arm-embedded/gcc-arm-none-eabi-4_8-2014q1/bin/../lib/gcc/arm-none-eabi/4.8.3/../../../../arm-none-eabi/lib/armv7-m/libstdc++.a(eh_unex_handler.o)
                                                  /homes/skollbach/Downloads/ASE/gcc-arm-embedded/gcc-arm-none-eabi-4_8-2014q1/bin/../lib/gcc/arm-none-eabi/4.8.3/../../../../arm-none-eabi/lib/armv7-m/libstdc++.a(eh_throw.o)
                                                  /homes/skollbach/Downloads/ASE/gcc-arm-embedded/gcc-arm-none-eabi-4_8-2014q1/bin/../lib/gcc/arm-none-eabi/4.8.3/../../../../arm-none-eabi/lib/armv7-m/libstdc++.a(eh_terminate.o)
__d2b                                             /homes/skollbach/Downloads/ASE/gcc-arm-embedded/gcc-arm-none-eabi-4_8-2014q1/bin/../lib/gcc/arm-none-eabi/4.8.3/../../../../arm-none-eabi/lib/armv7-m/libc.a(lib_a-mprec.o)
                                                  /homes/skollbach/Downloads/ASE/gcc-arm-embedded/gcc-arm-none-eabi-4_8-2014q1/bin/../lib/gcc/arm-none-eabi/4.8.3/../../../../arm-none-eabi/lib/armv7-m/libc.a(lib_a-dtoa.o)
__divdf3                                          /homes/skollbach/Downloads/ASE/gcc-arm-embedded/gcc-arm-none-eabi-4_8-2014q1/bin/../lib/gcc/arm-none-eabi/4.8.3/armv7-m/libgcc.a(_arm_muldivdf3.o)
__divdi3                                          /homes/skollbach/Downloads/ASE/gcc-arm-embedded/gcc-arm-none-eabi-4_8-2014q1/bin/../lib/gcc/arm-none-eabi/4.8.3/armv7-m/libgcc.a(_divdi3.o)
                                                  /homes/skollbach/Downloads/ASE/gcc-arm-embedded/gcc-arm-none-eabi-4_8-2014q1/bin/../lib/gcc/arm-none-eabi/4.8.3/armv7-m/libgcc.a(bpabi.o)
__divsf3                                          /homes/skollbach/Downloads/ASE/gcc-arm-embedded/gcc-arm-none-eabi-4_8-2014q1/bin/../lib/gcc/arm-none-eabi/4.8.3/armv7-m/libgcc.a(_arm_muldivsf3.o)
__dso_handle                                      build/obj/stubs.o
                                                  build/obj/main.o
__early_init                                      build/obj/board.o
                                                  build/obj/crt0.o
__eqdf2                                           /homes/skollbach/Downloads/ASE/gcc-arm-embedded/gcc-arm-none-eabi-4_8-2014q1/bin/../lib/gcc/arm-none-eabi/4.8.3/armv7-m/libgcc.a(_arm_cmpdf2.o)
__eqsf2                                           /homes/skollbach/Downloads/ASE/gcc-arm-embedded/gcc-arm-none-eabi-4_8-2014q1/bin/../lib/gcc/arm-none-eabi/4.8.3/armv7-m/libgcc.a(_arm_cmpsf2.o)
__exidx_end                                       /homes/skollbach/Downloads/ASE/gcc-arm-embedded/gcc-arm-none-eabi-4_8-2014q1/bin/../lib/gcc/arm-none-eabi/4.8.3/armv7-m/libgcc.a(unwind-arm.o)
__exidx_start                                     /homes/skollbach/Downloads/ASE/gcc-arm-embedded/gcc-arm-none-eabi-4_8-2014q1/bin/../lib/gcc/arm-none-eabi/4.8.3/armv7-m/libgcc.a(unwind-arm.o)
__extendsfdf2                                     /homes/skollbach/Downloads/ASE/gcc-arm-embedded/gcc-arm-none-eabi-4_8-2014q1/bin/../lib/gcc/arm-none-eabi/4.8.3/armv7-m/libgcc.a(_arm_addsubdf3.o)
__fini_array_end                                  build/obj/crt0.o
__fini_array_start                                build/obj/crt0.o
__fixdfsi                                         /homes/skollbach/Downloads/ASE/gcc-arm-embedded/gcc-arm-none-eabi-4_8-2014q1/bin/../lib/gcc/arm-none-eabi/4.8.3/armv7-m/libgcc.a(_arm_fixdfsi.o)
__fixsfsi                                         /homes/skollbach/Downloads/ASE/gcc-arm-embedded/gcc-arm-none-eabi-4_8-2014q1/bin/../lib/gcc/arm-none-eabi/4.8.3/armv7-m/libgcc.a(_arm_fixsfsi.o)
__fixunssfsi                                      /homes/skollbach/Downloads/ASE/gcc-arm-embedded/gcc-arm-none-eabi-4_8-2014q1/bin/../lib/gcc/arm-none-eabi/4.8.3/armv7-m/libgcc.a(_arm_fixunssfsi.o)
__floatdidf                                       /homes/skollbach/Downloads/ASE/gcc-arm-embedded/gcc-arm-none-eabi-4_8-2014q1/bin/../lib/gcc/arm-none-eabi/4.8.3/armv7-m/libgcc.a(_arm_addsubdf3.o)
__floatdisf                                       /homes/skollbach/Downloads/ASE/gcc-arm-embedded/gcc-arm-none-eabi-4_8-2014q1/bin/../lib/gcc/arm-none-eabi/4.8.3/armv7-m/libgcc.a(_arm_addsubsf3.o)
__floatsidf                                       /homes/skollbach/Downloads/ASE/gcc-arm-embedded/gcc-arm-none-eabi-4_8-2014q1/bin/../lib/gcc/arm-none-eabi/4.8.3/armv7-m/libgcc.a(_arm_addsubdf3.o)
__floatsisf                                       /homes/skollbach/Downloads/ASE/gcc-arm-embedded/gcc-arm-none-eabi-4_8-2014q1/bin/../lib/gcc/arm-none-eabi/4.8.3/armv7-m/libgcc.a(_arm_addsubsf3.o)
__floatundidf                                     /homes/skollbach/Downloads/ASE/gcc-arm-embedded/gcc-arm-none-eabi-4_8-2014q1/bin/../lib/gcc/arm-none-eabi/4.8.3/armv7-m/libgcc.a(_arm_addsubdf3.o)
__floatundisf                                     /homes/skollbach/Downloads/ASE/gcc-arm-embedded/gcc-arm-none-eabi-4_8-2014q1/bin/../lib/gcc/arm-none-eabi/4.8.3/armv7-m/libgcc.a(_arm_addsubsf3.o)
__floatunsidf                                     /homes/skollbach/Downloads/ASE/gcc-arm-embedded/gcc-arm-none-eabi-4_8-2014q1/bin/../lib/gcc/arm-none-eabi/4.8.3/armv7-m/libgcc.a(_arm_addsubdf3.o)
__floatunsisf                                     /homes/skollbach/Downloads/ASE/gcc-arm-embedded/gcc-arm-none-eabi-4_8-2014q1/bin/../lib/gcc/arm-none-eabi/4.8.3/armv7-m/libgcc.a(_arm_addsubsf3.o)
__fp_lock_all                                     /homes/skollbach/Downloads/ASE/gcc-arm-embedded/gcc-arm-none-eabi-4_8-2014q1/bin/../lib/gcc/arm-none-eabi/4.8.3/../../../../arm-none-eabi/lib/armv7-m/libc.a(lib_a-findfp.o)
__fp_unlock_all                                   /homes/skollbach/Downloads/ASE/gcc-arm-embedded/gcc-arm-none-eabi-4_8-2014q1/bin/../lib/gcc/arm-none-eabi/4.8.3/../../../../arm-none-eabi/lib/armv7-m/libc.a(lib_a-findfp.o)
__fpclassifyd                                     /homes/skollbach/Downloads/ASE/gcc-arm-embedded/gcc-arm-none-eabi-4_8-2014q1/bin/../lib/gcc/arm-none-eabi/4.8.3/../../../../arm-none-eabi/lib/armv7-m/libc.a(lib_a-s_fpclassify.o)
                                                  /homes/skollbach/Downloads/ASE/gcc-arm-embedded/gcc-arm-none-eabi-4_8-2014q1/bin/../lib/gcc/arm-none-eabi/4.8.3/../../../../arm-none-eabi/lib/armv7-m/libc.a(lib_a-svfprintf.o)
__gcclibcxx_demangle_callback                     /homes/skollbach/Downloads/ASE/gcc-arm-embedded/gcc-arm-none-eabi-4_8-2014q1/bin/../lib/gcc/arm-none-eabi/4.8.3/../../../../arm-none-eabi/lib/armv7-m/libstdc++.a(cp-demangle.o)
__gedf2                                           /homes/skollbach/Downloads/ASE/gcc-arm-embedded/gcc-arm-none-eabi-4_8-2014q1/bin/../lib/gcc/arm-none-eabi/4.8.3/armv7-m/libgcc.a(_arm_cmpdf2.o)
__gesf2                                           /homes/skollbach/Downloads/ASE/gcc-arm-embedded/gcc-arm-none-eabi-4_8-2014q1/bin/../lib/gcc/arm-none-eabi/4.8.3/armv7-m/libgcc.a(_arm_cmpsf2.o)
__gnu_Unwind_Backtrace                            /homes/skollbach/Downloads/ASE/gcc-arm-embedded/gcc-arm-none-eabi-4_8-2014q1/bin/../lib/gcc/arm-none-eabi/4.8.3/armv7-m/libgcc.a(unwind-arm.o)
                                                  /homes/skollbach/Downloads/ASE/gcc-arm-embedded/gcc-arm-none-eabi-4_8-2014q1/bin/../lib/gcc/arm-none-eabi/4.8.3/armv7-m/libgcc.a(libunwind.o)
__gnu_Unwind_Find_exidx                           /homes/skollbach/Downloads/ASE/gcc-arm-embedded/gcc-arm-none-eabi-4_8-2014q1/bin/../lib/gcc/arm-none-eabi/4.8.3/armv7-m/libgcc.a(unwind-arm.o)
__gnu_Unwind_ForcedUnwind                         /homes/skollbach/Downloads/ASE/gcc-arm-embedded/gcc-arm-none-eabi-4_8-2014q1/bin/../lib/gcc/arm-none-eabi/4.8.3/armv7-m/libgcc.a(unwind-arm.o)
                                                  /homes/skollbach/Downloads/ASE/gcc-arm-embedded/gcc-arm-none-eabi-4_8-2014q1/bin/../lib/gcc/arm-none-eabi/4.8.3/armv7-m/libgcc.a(libunwind.o)
__gnu_Unwind_RaiseException                       /homes/skollbach/Downloads/ASE/gcc-arm-embedded/gcc-arm-none-eabi-4_8-2014q1/bin/../lib/gcc/arm-none-eabi/4.8.3/armv7-m/libgcc.a(unwind-arm.o)
                                                  /homes/skollbach/Downloads/ASE/gcc-arm-embedded/gcc-arm-none-eabi-4_8-2014q1/bin/../lib/gcc/arm-none-eabi/4.8.3/armv7-m/libgcc.a(libunwind.o)
__gnu_Unwind_Restore_VFP                          /homes/skollbach/Downloads/ASE/gcc-arm-embedded/gcc-arm-none-eabi-4_8-2014q1/bin/../lib/gcc/arm-none-eabi/4.8.3/armv7-m/libgcc.a(libunwind.o)
                                                  /homes/skollbach/Downloads/ASE/gcc-arm-embedded/gcc-arm-none-eabi-4_8-2014q1/bin/../lib/gcc/arm-none-eabi/4.8.3/armv7-m/libgcc.a(unwind-arm.o)
__gnu_Unwind_Restore_VFP_D                        /homes/skollbach/Downloads/ASE/gcc-arm-embedded/gcc-arm-none-eabi-4_8-2014q1/bin/../lib/gcc/arm-none-eabi/4.8.3/armv7-m/libgcc.a(libunwind.o)
                                                  /homes/skollbach/Downloads/ASE/gcc-arm-embedded/gcc-arm-none-eabi-4_8-2014q1/bin/../lib/gcc/arm-none-eabi/4.8.3/armv7-m/libgcc.a(unwind-arm.o)
__gnu_Unwind_Restore_VFP_D_16_to_31               /homes/skollbach/Downloads/ASE/gcc-arm-embedded/gcc-arm-none-eabi-4_8-2014q1/bin/../lib/gcc/arm-none-eabi/4.8.3/armv7-m/libgcc.a(libunwind.o)
                                                  /homes/skollbach/Downloads/ASE/gcc-arm-embedded/gcc-arm-none-eabi-4_8-2014q1/bin/../lib/gcc/arm-none-eabi/4.8.3/armv7-m/libgcc.a(unwind-arm.o)
__gnu_Unwind_Restore_WMMXC                        /homes/skollbach/Downloads/ASE/gcc-arm-embedded/gcc-arm-none-eabi-4_8-2014q1/bin/../lib/gcc/arm-none-eabi/4.8.3/armv7-m/libgcc.a(libunwind.o)
                                                  /homes/skollbach/Downloads/ASE/gcc-arm-embedded/gcc-arm-none-eabi-4_8-2014q1/bin/../lib/gcc/arm-none-eabi/4.8.3/armv7-m/libgcc.a(unwind-arm.o)
__gnu_Unwind_Restore_WMMXD                        /homes/skollbach/Downloads/ASE/gcc-arm-embedded/gcc-arm-none-eabi-4_8-2014q1/bin/../lib/gcc/arm-none-eabi/4.8.3/armv7-m/libgcc.a(libunwind.o)
                                                  /homes/skollbach/Downloads/ASE/gcc-arm-embedded/gcc-arm-none-eabi-4_8-2014q1/bin/../lib/gcc/arm-none-eabi/4.8.3/armv7-m/libgcc.a(unwind-arm.o)
__gnu_Unwind_Resume                               /homes/skollbach/Downloads/ASE/gcc-arm-embedded/gcc-arm-none-eabi-4_8-2014q1/bin/../lib/gcc/arm-none-eabi/4.8.3/armv7-m/libgcc.a(unwind-arm.o)
                                                  /homes/skollbach/Downloads/ASE/gcc-arm-embedded/gcc-arm-none-eabi-4_8-2014q1/bin/../lib/gcc/arm-none-eabi/4.8.3/armv7-m/libgcc.a(libunwind.o)
__gnu_Unwind_Resume_or_Rethrow                    /homes/skollbach/Downloads/ASE/gcc-arm-embedded/gcc-arm-none-eabi-4_8-2014q1/bin/../lib/gcc/arm-none-eabi/4.8.3/armv7-m/libgcc.a(unwind-arm.o)
                                                  /homes/skollbach/Downloads/ASE/gcc-arm-embedded/gcc-arm-none-eabi-4_8-2014q1/bin/../lib/gcc/arm-none-eabi/4.8.3/armv7-m/libgcc.a(libunwind.o)
__gnu_Unwind_Save_VFP                             /homes/skollbach/Downloads/ASE/gcc-arm-embedded/gcc-arm-none-eabi-4_8-2014q1/bin/../lib/gcc/arm-none-eabi/4.8.3/armv7-m/libgcc.a(libunwind.o)
                                                  /homes/skollbach/Downloads/ASE/gcc-arm-embedded/gcc-arm-none-eabi-4_8-2014q1/bin/../lib/gcc/arm-none-eabi/4.8.3/armv7-m/libgcc.a(unwind-arm.o)
__gnu_Unwind_Save_VFP_D                           /homes/skollbach/Downloads/ASE/gcc-arm-embedded/gcc-arm-none-eabi-4_8-2014q1/bin/../lib/gcc/arm-none-eabi/4.8.3/armv7-m/libgcc.a(libunwind.o)
                                                  /homes/skollbach/Downloads/ASE/gcc-arm-embedded/gcc-arm-none-eabi-4_8-2014q1/bin/../lib/gcc/arm-none-eabi/4.8.3/armv7-m/libgcc.a(unwind-arm.o)
__gnu_Unwind_Save_VFP_D_16_to_31                  /homes/skollbach/Downloads/ASE/gcc-arm-embedded/gcc-arm-none-eabi-4_8-2014q1/bin/../lib/gcc/arm-none-eabi/4.8.3/armv7-m/libgcc.a(libunwind.o)
                                                  /homes/skollbach/Downloads/ASE/gcc-arm-embedded/gcc-arm-none-eabi-4_8-2014q1/bin/../lib/gcc/arm-none-eabi/4.8.3/armv7-m/libgcc.a(unwind-arm.o)
__gnu_Unwind_Save_WMMXC                           /homes/skollbach/Downloads/ASE/gcc-arm-embedded/gcc-arm-none-eabi-4_8-2014q1/bin/../lib/gcc/arm-none-eabi/4.8.3/armv7-m/libgcc.a(libunwind.o)
                                                  /homes/skollbach/Downloads/ASE/gcc-arm-embedded/gcc-arm-none-eabi-4_8-2014q1/bin/../lib/gcc/arm-none-eabi/4.8.3/armv7-m/libgcc.a(unwind-arm.o)
__gnu_Unwind_Save_WMMXD                           /homes/skollbach/Downloads/ASE/gcc-arm-embedded/gcc-arm-none-eabi-4_8-2014q1/bin/../lib/gcc/arm-none-eabi/4.8.3/armv7-m/libgcc.a(libunwind.o)
                                                  /homes/skollbach/Downloads/ASE/gcc-arm-embedded/gcc-arm-none-eabi-4_8-2014q1/bin/../lib/gcc/arm-none-eabi/4.8.3/armv7-m/libgcc.a(unwind-arm.o)
__gnu_cxx::__verbose_terminate_handler()          /homes/skollbach/Downloads/ASE/gcc-arm-embedded/gcc-arm-none-eabi-4_8-2014q1/bin/../lib/gcc/arm-none-eabi/4.8.3/../../../../arm-none-eabi/lib/armv7-m/libstdc++.a(vterminate.o)
                                                  /homes/skollbach/Downloads/ASE/gcc-arm-embedded/gcc-arm-none-eabi-4_8-2014q1/bin/../lib/gcc/arm-none-eabi/4.8.3/../../../../arm-none-eabi/lib/armv7-m/libstdc++.a(eh_term_handler.o)
__gnu_end_cleanup                                 /homes/skollbach/Downloads/ASE/gcc-arm-embedded/gcc-arm-none-eabi-4_8-2014q1/bin/../lib/gcc/arm-none-eabi/4.8.3/../../../../arm-none-eabi/lib/armv7-m/libstdc++.a(eh_arm.o)
__gnu_ldivmod_helper                              /homes/skollbach/Downloads/ASE/gcc-arm-embedded/gcc-arm-none-eabi-4_8-2014q1/bin/../lib/gcc/arm-none-eabi/4.8.3/armv7-m/libgcc.a(bpabi.o)
__gnu_uldivmod_helper                             /homes/skollbach/Downloads/ASE/gcc-arm-embedded/gcc-arm-none-eabi-4_8-2014q1/bin/../lib/gcc/arm-none-eabi/4.8.3/armv7-m/libgcc.a(bpabi.o)
                                                  /homes/skollbach/Downloads/ASE/gcc-arm-embedded/gcc-arm-none-eabi-4_8-2014q1/bin/../lib/gcc/arm-none-eabi/4.8.3/armv7-m/libgcc.a(_aeabi_uldivmod.o)
__gnu_unwind_execute                              /homes/skollbach/Downloads/ASE/gcc-arm-embedded/gcc-arm-none-eabi-4_8-2014q1/bin/../lib/gcc/arm-none-eabi/4.8.3/armv7-m/libgcc.a(pr-support.o)
                                                  /homes/skollbach/Downloads/ASE/gcc-arm-embedded/gcc-arm-none-eabi-4_8-2014q1/bin/../lib/gcc/arm-none-eabi/4.8.3/armv7-m/libgcc.a(unwind-arm.o)
__gnu_unwind_frame                                /homes/skollbach/Downloads/ASE/gcc-arm-embedded/gcc-arm-none-eabi-4_8-2014q1/bin/../lib/gcc/arm-none-eabi/4.8.3/armv7-m/libgcc.a(pr-support.o)
                                                  /homes/skollbach/Downloads/ASE/gcc-arm-embedded/gcc-arm-none-eabi-4_8-2014q1/bin/../lib/gcc/arm-none-eabi/4.8.3/../../../../arm-none-eabi/lib/armv7-m/libstdc++.a(eh_personality.o)
__gtdf2                                           /homes/skollbach/Downloads/ASE/gcc-arm-embedded/gcc-arm-none-eabi-4_8-2014q1/bin/../lib/gcc/arm-none-eabi/4.8.3/armv7-m/libgcc.a(_arm_cmpdf2.o)
__gtsf2                                           /homes/skollbach/Downloads/ASE/gcc-arm-embedded/gcc-arm-none-eabi-4_8-2014q1/bin/../lib/gcc/arm-none-eabi/4.8.3/armv7-m/libgcc.a(_arm_cmpsf2.o)
__gxx_personality_v0                              /homes/skollbach/Downloads/ASE/gcc-arm-embedded/gcc-arm-none-eabi-4_8-2014q1/bin/../lib/gcc/arm-none-eabi/4.8.3/../../../../arm-none-eabi/lib/armv7-m/libstdc++.a(eh_personality.o)
                                                  /homes/skollbach/Downloads/ASE/gcc-arm-embedded/gcc-arm-none-eabi-4_8-2014q1/bin/../lib/gcc/arm-none-eabi/4.8.3/../../../../arm-none-eabi/lib/armv7-m/libstdc++.a(vterminate.o)
                                                  /homes/skollbach/Downloads/ASE/gcc-arm-embedded/gcc-arm-none-eabi-4_8-2014q1/bin/../lib/gcc/arm-none-eabi/4.8.3/../../../../arm-none-eabi/lib/armv7-m/libstdc++.a(eh_call.o)
                                                  /homes/skollbach/Downloads/ASE/gcc-arm-embedded/gcc-arm-none-eabi-4_8-2014q1/bin/../lib/gcc/arm-none-eabi/4.8.3/../../../../arm-none-eabi/lib/armv7-m/libstdc++.a(eh_catch.o)
                                                  /homes/skollbach/Downloads/ASE/gcc-arm-embedded/gcc-arm-none-eabi-4_8-2014q1/bin/../lib/gcc/arm-none-eabi/4.8.3/../../../../arm-none-eabi/lib/armv7-m/libstdc++.a(eh_terminate.o)
__heap_base__                                     build/obj/chmemcore.o
__heap_end__                                      build/obj/chmemcore.o
__hi0bits                                         /homes/skollbach/Downloads/ASE/gcc-arm-embedded/gcc-arm-none-eabi-4_8-2014q1/bin/../lib/gcc/arm-none-eabi/4.8.3/../../../../arm-none-eabi/lib/armv7-m/libc.a(lib_a-mprec.o)
                                                  /homes/skollbach/Downloads/ASE/gcc-arm-embedded/gcc-arm-none-eabi-4_8-2014q1/bin/../lib/gcc/arm-none-eabi/4.8.3/../../../../arm-none-eabi/lib/armv7-m/libc.a(lib_a-dtoa.o)
__i2b                                             /homes/skollbach/Downloads/ASE/gcc-arm-embedded/gcc-arm-none-eabi-4_8-2014q1/bin/../lib/gcc/arm-none-eabi/4.8.3/../../../../arm-none-eabi/lib/armv7-m/libc.a(lib_a-mprec.o)
                                                  /homes/skollbach/Downloads/ASE/gcc-arm-embedded/gcc-arm-none-eabi-4_8-2014q1/bin/../lib/gcc/arm-none-eabi/4.8.3/../../../../arm-none-eabi/lib/armv7-m/libc.a(lib_a-dtoa.o)
__init_array_end                                  build/obj/crt0.o
__init_array_start                                build/obj/crt0.o
__late_init                                       build/obj/crt0.o
__ledf2                                           /homes/skollbach/Downloads/ASE/gcc-arm-embedded/gcc-arm-none-eabi-4_8-2014q1/bin/../lib/gcc/arm-none-eabi/4.8.3/armv7-m/libgcc.a(_arm_cmpdf2.o)
__lesf2                                           /homes/skollbach/Downloads/ASE/gcc-arm-embedded/gcc-arm-none-eabi-4_8-2014q1/bin/../lib/gcc/arm-none-eabi/4.8.3/armv7-m/libgcc.a(_arm_cmpsf2.o)
__lo0bits                                         /homes/skollbach/Downloads/ASE/gcc-arm-embedded/gcc-arm-none-eabi-4_8-2014q1/bin/../lib/gcc/arm-none-eabi/4.8.3/../../../../arm-none-eabi/lib/armv7-m/libc.a(lib_a-mprec.o)
__locale_charset                                  /homes/skollbach/Downloads/ASE/gcc-arm-embedded/gcc-arm-none-eabi-4_8-2014q1/bin/../lib/gcc/arm-none-eabi/4.8.3/../../../../arm-none-eabi/lib/armv7-m/libc.a(lib_a-locale.o)
__locale_cjk_lang                                 /homes/skollbach/Downloads/ASE/gcc-arm-embedded/gcc-arm-none-eabi-4_8-2014q1/bin/../lib/gcc/arm-none-eabi/4.8.3/../../../../arm-none-eabi/lib/armv7-m/libc.a(lib_a-locale.o)
__locale_mb_cur_max                               /homes/skollbach/Downloads/ASE/gcc-arm-embedded/gcc-arm-none-eabi-4_8-2014q1/bin/../lib/gcc/arm-none-eabi/4.8.3/../../../../arm-none-eabi/lib/armv7-m/libc.a(lib_a-locale.o)
__locale_msgcharset                               /homes/skollbach/Downloads/ASE/gcc-arm-embedded/gcc-arm-none-eabi-4_8-2014q1/bin/../lib/gcc/arm-none-eabi/4.8.3/../../../../arm-none-eabi/lib/armv7-m/libc.a(lib_a-locale.o)
__lshift                                          /homes/skollbach/Downloads/ASE/gcc-arm-embedded/gcc-arm-none-eabi-4_8-2014q1/bin/../lib/gcc/arm-none-eabi/4.8.3/../../../../arm-none-eabi/lib/armv7-m/libc.a(lib_a-mprec.o)
                                                  /homes/skollbach/Downloads/ASE/gcc-arm-embedded/gcc-arm-none-eabi-4_8-2014q1/bin/../lib/gcc/arm-none-eabi/4.8.3/../../../../arm-none-eabi/lib/armv7-m/libc.a(lib_a-dtoa.o)
__ltdf2                                           /homes/skollbach/Downloads/ASE/gcc-arm-embedded/gcc-arm-none-eabi-4_8-2014q1/bin/../lib/gcc/arm-none-eabi/4.8.3/armv7-m/libgcc.a(_arm_cmpdf2.o)
__ltsf2                                           /homes/skollbach/Downloads/ASE/gcc-arm-embedded/gcc-arm-none-eabi-4_8-2014q1/bin/../lib/gcc/arm-none-eabi/4.8.3/armv7-m/libgcc.a(_arm_cmpsf2.o)
__main_stack_base__                               build/obj/crt0.o
__main_stack_end__                                build/obj/vectors.o
                                                  build/obj/crt0.o
__main_thread_stack_base__                        build/obj/chsys.o
__malloc_av_                                      /homes/skollbach/Downloads/ASE/gcc-arm-embedded/gcc-arm-none-eabi-4_8-2014q1/bin/../lib/gcc/arm-none-eabi/4.8.3/../../../../arm-none-eabi/lib/armv7-m/libc.a(lib_a-mallocr.o)
                                                  /homes/skollbach/Downloads/ASE/gcc-arm-embedded/gcc-arm-none-eabi-4_8-2014q1/bin/../lib/gcc/arm-none-eabi/4.8.3/../../../../arm-none-eabi/lib/armv7-m/libc.a(lib_a-freer.o)
                                                  /homes/skollbach/Downloads/ASE/gcc-arm-embedded/gcc-arm-none-eabi-4_8-2014q1/bin/../lib/gcc/arm-none-eabi/4.8.3/../../../../arm-none-eabi/lib/armv7-m/libc.a(lib_a-reallocr.o)
__malloc_current_mallinfo                         /homes/skollbach/Downloads/ASE/gcc-arm-embedded/gcc-arm-none-eabi-4_8-2014q1/bin/../lib/gcc/arm-none-eabi/4.8.3/../../../../arm-none-eabi/lib/armv7-m/libc.a(lib_a-mallocr.o)
                                                  /homes/skollbach/Downloads/ASE/gcc-arm-embedded/gcc-arm-none-eabi-4_8-2014q1/bin/../lib/gcc/arm-none-eabi/4.8.3/../../../../arm-none-eabi/lib/armv7-m/libc.a(lib_a-freer.o)
__malloc_lock                                     /homes/skollbach/Downloads/ASE/gcc-arm-embedded/gcc-arm-none-eabi-4_8-2014q1/bin/../lib/gcc/arm-none-eabi/4.8.3/../../../../arm-none-eabi/lib/armv7-m/libc.a(lib_a-mlock.o)
                                                  /homes/skollbach/Downloads/ASE/gcc-arm-embedded/gcc-arm-none-eabi-4_8-2014q1/bin/../lib/gcc/arm-none-eabi/4.8.3/../../../../arm-none-eabi/lib/armv7-m/libc.a(lib_a-freer.o)
                                                  /homes/skollbach/Downloads/ASE/gcc-arm-embedded/gcc-arm-none-eabi-4_8-2014q1/bin/../lib/gcc/arm-none-eabi/4.8.3/../../../../arm-none-eabi/lib/armv7-m/libc.a(lib_a-reallocr.o)
                                                  /homes/skollbach/Downloads/ASE/gcc-arm-embedded/gcc-arm-none-eabi-4_8-2014q1/bin/../lib/gcc/arm-none-eabi/4.8.3/../../../../arm-none-eabi/lib/armv7-m/libc.a(lib_a-mallocr.o)
__malloc_max_sbrked_mem                           /homes/skollbach/Downloads/ASE/gcc-arm-embedded/gcc-arm-none-eabi-4_8-2014q1/bin/../lib/gcc/arm-none-eabi/4.8.3/../../../../arm-none-eabi/lib/armv7-m/libc.a(lib_a-mallocr.o)
__malloc_max_total_mem                            /homes/skollbach/Downloads/ASE/gcc-arm-embedded/gcc-arm-none-eabi-4_8-2014q1/bin/../lib/gcc/arm-none-eabi/4.8.3/../../../../arm-none-eabi/lib/armv7-m/libc.a(lib_a-mallocr.o)
__malloc_sbrk_base                                /homes/skollbach/Downloads/ASE/gcc-arm-embedded/gcc-arm-none-eabi-4_8-2014q1/bin/../lib/gcc/arm-none-eabi/4.8.3/../../../../arm-none-eabi/lib/armv7-m/libc.a(lib_a-mallocr.o)
                                                  /homes/skollbach/Downloads/ASE/gcc-arm-embedded/gcc-arm-none-eabi-4_8-2014q1/bin/../lib/gcc/arm-none-eabi/4.8.3/../../../../arm-none-eabi/lib/armv7-m/libc.a(lib_a-freer.o)
__malloc_top_pad                                  /homes/skollbach/Downloads/ASE/gcc-arm-embedded/gcc-arm-none-eabi-4_8-2014q1/bin/../lib/gcc/arm-none-eabi/4.8.3/../../../../arm-none-eabi/lib/armv7-m/libc.a(lib_a-mallocr.o)
                                                  /homes/skollbach/Downloads/ASE/gcc-arm-embedded/gcc-arm-none-eabi-4_8-2014q1/bin/../lib/gcc/arm-none-eabi/4.8.3/../../../../arm-none-eabi/lib/armv7-m/libc.a(lib_a-freer.o)
__malloc_trim_threshold                           /homes/skollbach/Downloads/ASE/gcc-arm-embedded/gcc-arm-none-eabi-4_8-2014q1/bin/../lib/gcc/arm-none-eabi/4.8.3/../../../../arm-none-eabi/lib/armv7-m/libc.a(lib_a-mallocr.o)
                                                  /homes/skollbach/Downloads/ASE/gcc-arm-embedded/gcc-arm-none-eabi-4_8-2014q1/bin/../lib/gcc/arm-none-eabi/4.8.3/../../../../arm-none-eabi/lib/armv7-m/libc.a(lib_a-freer.o)
__malloc_unlock                                   /homes/skollbach/Downloads/ASE/gcc-arm-embedded/gcc-arm-none-eabi-4_8-2014q1/bin/../lib/gcc/arm-none-eabi/4.8.3/../../../../arm-none-eabi/lib/armv7-m/libc.a(lib_a-mlock.o)
                                                  /homes/skollbach/Downloads/ASE/gcc-arm-embedded/gcc-arm-none-eabi-4_8-2014q1/bin/../lib/gcc/arm-none-eabi/4.8.3/../../../../arm-none-eabi/lib/armv7-m/libc.a(lib_a-freer.o)
                                                  /homes/skollbach/Downloads/ASE/gcc-arm-embedded/gcc-arm-none-eabi-4_8-2014q1/bin/../lib/gcc/arm-none-eabi/4.8.3/../../../../arm-none-eabi/lib/armv7-m/libc.a(lib_a-reallocr.o)
                                                  /homes/skollbach/Downloads/ASE/gcc-arm-embedded/gcc-arm-none-eabi-4_8-2014q1/bin/../lib/gcc/arm-none-eabi/4.8.3/../../../../arm-none-eabi/lib/armv7-m/libc.a(lib_a-mallocr.o)
__mb_cur_max                                      /homes/skollbach/Downloads/ASE/gcc-arm-embedded/gcc-arm-none-eabi-4_8-2014q1/bin/../lib/gcc/arm-none-eabi/4.8.3/../../../../arm-none-eabi/lib/armv7-m/libc.a(lib_a-locale.o)
__mcmp                                            /homes/skollbach/Downloads/ASE/gcc-arm-embedded/gcc-arm-none-eabi-4_8-2014q1/bin/../lib/gcc/arm-none-eabi/4.8.3/../../../../arm-none-eabi/lib/armv7-m/libc.a(lib_a-mprec.o)
                                                  /homes/skollbach/Downloads/ASE/gcc-arm-embedded/gcc-arm-none-eabi-4_8-2014q1/bin/../lib/gcc/arm-none-eabi/4.8.3/../../../../arm-none-eabi/lib/armv7-m/libc.a(lib_a-dtoa.o)
__mdiff                                           /homes/skollbach/Downloads/ASE/gcc-arm-embedded/gcc-arm-none-eabi-4_8-2014q1/bin/../lib/gcc/arm-none-eabi/4.8.3/../../../../arm-none-eabi/lib/armv7-m/libc.a(lib_a-mprec.o)
                                                  /homes/skollbach/Downloads/ASE/gcc-arm-embedded/gcc-arm-none-eabi-4_8-2014q1/bin/../lib/gcc/arm-none-eabi/4.8.3/../../../../arm-none-eabi/lib/armv7-m/libc.a(lib_a-dtoa.o)
__mlocale_changed                                 /homes/skollbach/Downloads/ASE/gcc-arm-embedded/gcc-arm-none-eabi-4_8-2014q1/bin/../lib/gcc/arm-none-eabi/4.8.3/../../../../arm-none-eabi/lib/armv7-m/libc.a(lib_a-locale.o)
__mprec_bigtens                                   /homes/skollbach/Downloads/ASE/gcc-arm-embedded/gcc-arm-none-eabi-4_8-2014q1/bin/../lib/gcc/arm-none-eabi/4.8.3/../../../../arm-none-eabi/lib/armv7-m/libc.a(lib_a-mprec.o)
                                                  /homes/skollbach/Downloads/ASE/gcc-arm-embedded/gcc-arm-none-eabi-4_8-2014q1/bin/../lib/gcc/arm-none-eabi/4.8.3/../../../../arm-none-eabi/lib/armv7-m/libc.a(lib_a-dtoa.o)
__mprec_tens                                      /homes/skollbach/Downloads/ASE/gcc-arm-embedded/gcc-arm-none-eabi-4_8-2014q1/bin/../lib/gcc/arm-none-eabi/4.8.3/../../../../arm-none-eabi/lib/armv7-m/libc.a(lib_a-mprec.o)
                                                  /homes/skollbach/Downloads/ASE/gcc-arm-embedded/gcc-arm-none-eabi-4_8-2014q1/bin/../lib/gcc/arm-none-eabi/4.8.3/../../../../arm-none-eabi/lib/armv7-m/libc.a(lib_a-dtoa.o)
__mprec_tinytens                                  /homes/skollbach/Downloads/ASE/gcc-arm-embedded/gcc-arm-none-eabi-4_8-2014q1/bin/../lib/gcc/arm-none-eabi/4.8.3/../../../../arm-none-eabi/lib/armv7-m/libc.a(lib_a-mprec.o)
__muldf3                                          /homes/skollbach/Downloads/ASE/gcc-arm-embedded/gcc-arm-none-eabi-4_8-2014q1/bin/../lib/gcc/arm-none-eabi/4.8.3/armv7-m/libgcc.a(_arm_muldivdf3.o)
__mulsf3                                          /homes/skollbach/Downloads/ASE/gcc-arm-embedded/gcc-arm-none-eabi-4_8-2014q1/bin/../lib/gcc/arm-none-eabi/4.8.3/armv7-m/libgcc.a(_arm_muldivsf3.o)
__multadd                                         /homes/skollbach/Downloads/ASE/gcc-arm-embedded/gcc-arm-none-eabi-4_8-2014q1/bin/../lib/gcc/arm-none-eabi/4.8.3/../../../../arm-none-eabi/lib/armv7-m/libc.a(lib_a-mprec.o)
                                                  /homes/skollbach/Downloads/ASE/gcc-arm-embedded/gcc-arm-none-eabi-4_8-2014q1/bin/../lib/gcc/arm-none-eabi/4.8.3/../../../../arm-none-eabi/lib/armv7-m/libc.a(lib_a-dtoa.o)
__multiply                                        /homes/skollbach/Downloads/ASE/gcc-arm-embedded/gcc-arm-none-eabi-4_8-2014q1/bin/../lib/gcc/arm-none-eabi/4.8.3/../../../../arm-none-eabi/lib/armv7-m/libc.a(lib_a-mprec.o)
                                                  /homes/skollbach/Downloads/ASE/gcc-arm-embedded/gcc-arm-none-eabi-4_8-2014q1/bin/../lib/gcc/arm-none-eabi/4.8.3/../../../../arm-none-eabi/lib/armv7-m/libc.a(lib_a-dtoa.o)
__nedf2                                           /homes/skollbach/Downloads/ASE/gcc-arm-embedded/gcc-arm-none-eabi-4_8-2014q1/bin/../lib/gcc/arm-none-eabi/4.8.3/armv7-m/libgcc.a(_arm_cmpdf2.o)
__nesf2                                           /homes/skollbach/Downloads/ASE/gcc-arm-embedded/gcc-arm-none-eabi-4_8-2014q1/bin/../lib/gcc/arm-none-eabi/4.8.3/armv7-m/libgcc.a(_arm_cmpsf2.o)
__nlocale_changed                                 /homes/skollbach/Downloads/ASE/gcc-arm-embedded/gcc-arm-none-eabi-4_8-2014q1/bin/../lib/gcc/arm-none-eabi/4.8.3/../../../../arm-none-eabi/lib/armv7-m/libc.a(lib_a-locale.o)
__pow5mult                                        /homes/skollbach/Downloads/ASE/gcc-arm-embedded/gcc-arm-none-eabi-4_8-2014q1/bin/../lib/gcc/arm-none-eabi/4.8.3/../../../../arm-none-eabi/lib/armv7-m/libc.a(lib_a-mprec.o)
                                                  /homes/skollbach/Downloads/ASE/gcc-arm-embedded/gcc-arm-none-eabi-4_8-2014q1/bin/../lib/gcc/arm-none-eabi/4.8.3/../../../../arm-none-eabi/lib/armv7-m/libc.a(lib_a-dtoa.o)
__process_stack_base__                            build/obj/crt0.o
__process_stack_end__                             build/obj/crt0.o
__ratio                                           /homes/skollbach/Downloads/ASE/gcc-arm-embedded/gcc-arm-none-eabi-4_8-2014q1/bin/../lib/gcc/arm-none-eabi/4.8.3/../../../../arm-none-eabi/lib/armv7-m/libc.a(lib_a-mprec.o)
__register_exitproc                               /homes/skollbach/Downloads/ASE/gcc-arm-embedded/gcc-arm-none-eabi-4_8-2014q1/bin/../lib/gcc/arm-none-eabi/4.8.3/../../../../arm-none-eabi/lib/armv7-m/libc.a(lib_a-__atexit.o)
                                                  /homes/skollbach/Downloads/ASE/gcc-arm-embedded/gcc-arm-none-eabi-4_8-2014q1/bin/../lib/gcc/arm-none-eabi/4.8.3/../../../../arm-none-eabi/lib/armv7-m/libc.a(lib_a-cxa_atexit.o)
__restore_core_regs                               /homes/skollbach/Downloads/ASE/gcc-arm-embedded/gcc-arm-none-eabi-4_8-2014q1/bin/../lib/gcc/arm-none-eabi/4.8.3/armv7-m/libgcc.a(libunwind.o)
__s2b                                             /homes/skollbach/Downloads/ASE/gcc-arm-embedded/gcc-arm-none-eabi-4_8-2014q1/bin/../lib/gcc/arm-none-eabi/4.8.3/../../../../arm-none-eabi/lib/armv7-m/libc.a(lib_a-mprec.o)
__sclose                                          /homes/skollbach/Downloads/ASE/gcc-arm-embedded/gcc-arm-none-eabi-4_8-2014q1/bin/../lib/gcc/arm-none-eabi/4.8.3/../../../../arm-none-eabi/lib/armv7-m/libc.a(lib_a-stdio.o)
                                                  /homes/skollbach/Downloads/ASE/gcc-arm-embedded/gcc-arm-none-eabi-4_8-2014q1/bin/../lib/gcc/arm-none-eabi/4.8.3/../../../../arm-none-eabi/lib/armv7-m/libc.a(lib_a-findfp.o)
__seofread                                        /homes/skollbach/Downloads/ASE/gcc-arm-embedded/gcc-arm-none-eabi-4_8-2014q1/bin/../lib/gcc/arm-none-eabi/4.8.3/../../../../arm-none-eabi/lib/armv7-m/libc.a(lib_a-stdio.o)
__sflush_r                                        /homes/skollbach/Downloads/ASE/gcc-arm-embedded/gcc-arm-none-eabi-4_8-2014q1/bin/../lib/gcc/arm-none-eabi/4.8.3/../../../../arm-none-eabi/lib/armv7-m/libc.a(lib_a-fflush.o)
__sfmoreglue                                      /homes/skollbach/Downloads/ASE/gcc-arm-embedded/gcc-arm-none-eabi-4_8-2014q1/bin/../lib/gcc/arm-none-eabi/4.8.3/../../../../arm-none-eabi/lib/armv7-m/libc.a(lib_a-findfp.o)
__sfp                                             /homes/skollbach/Downloads/ASE/gcc-arm-embedded/gcc-arm-none-eabi-4_8-2014q1/bin/../lib/gcc/arm-none-eabi/4.8.3/../../../../arm-none-eabi/lib/armv7-m/libc.a(lib_a-findfp.o)
__sfp_lock_acquire                                /homes/skollbach/Downloads/ASE/gcc-arm-embedded/gcc-arm-none-eabi-4_8-2014q1/bin/../lib/gcc/arm-none-eabi/4.8.3/../../../../arm-none-eabi/lib/armv7-m/libc.a(lib_a-findfp.o)
                                                  /homes/skollbach/Downloads/ASE/gcc-arm-embedded/gcc-arm-none-eabi-4_8-2014q1/bin/../lib/gcc/arm-none-eabi/4.8.3/../../../../arm-none-eabi/lib/armv7-m/libc.a(lib_a-fclose.o)
__sfp_lock_release                                /homes/skollbach/Downloads/ASE/gcc-arm-embedded/gcc-arm-none-eabi-4_8-2014q1/bin/../lib/gcc/arm-none-eabi/4.8.3/../../../../arm-none-eabi/lib/armv7-m/libc.a(lib_a-findfp.o)
                                                  /homes/skollbach/Downloads/ASE/gcc-arm-embedded/gcc-arm-none-eabi-4_8-2014q1/bin/../lib/gcc/arm-none-eabi/4.8.3/../../../../arm-none-eabi/lib/armv7-m/libc.a(lib_a-fclose.o)
__sfvwrite_r                                      /homes/skollbach/Downloads/ASE/gcc-arm-embedded/gcc-arm-none-eabi-4_8-2014q1/bin/../lib/gcc/arm-none-eabi/4.8.3/../../../../arm-none-eabi/lib/armv7-m/libc.a(lib_a-fvwrite.o)
                                                  /homes/skollbach/Downloads/ASE/gcc-arm-embedded/gcc-arm-none-eabi-4_8-2014q1/bin/../lib/gcc/arm-none-eabi/4.8.3/../../../../arm-none-eabi/lib/armv7-m/libc.a(lib_a-fwrite.o)
                                                  /homes/skollbach/Downloads/ASE/gcc-arm-embedded/gcc-arm-none-eabi-4_8-2014q1/bin/../lib/gcc/arm-none-eabi/4.8.3/../../../../arm-none-eabi/lib/armv7-m/libc.a(lib_a-fputs.o)
__sigtramp                                        /homes/skollbach/Downloads/ASE/gcc-arm-embedded/gcc-arm-none-eabi-4_8-2014q1/bin/../lib/gcc/arm-none-eabi/4.8.3/../../../../arm-none-eabi/lib/armv7-m/libc.a(lib_a-signal.o)
__sigtramp_r                                      /homes/skollbach/Downloads/ASE/gcc-arm-embedded/gcc-arm-none-eabi-4_8-2014q1/bin/../lib/gcc/arm-none-eabi/4.8.3/../../../../arm-none-eabi/lib/armv7-m/libc.a(lib_a-signal.o)
__sinit                                           /homes/skollbach/Downloads/ASE/gcc-arm-embedded/gcc-arm-none-eabi-4_8-2014q1/bin/../lib/gcc/arm-none-eabi/4.8.3/../../../../arm-none-eabi/lib/armv7-m/libc.a(lib_a-findfp.o)
                                                  /homes/skollbach/Downloads/ASE/gcc-arm-embedded/gcc-arm-none-eabi-4_8-2014q1/bin/../lib/gcc/arm-none-eabi/4.8.3/../../../../arm-none-eabi/lib/armv7-m/libc.a(lib_a-fclose.o)
                                                  /homes/skollbach/Downloads/ASE/gcc-arm-embedded/gcc-arm-none-eabi-4_8-2014q1/bin/../lib/gcc/arm-none-eabi/4.8.3/../../../../arm-none-eabi/lib/armv7-m/libc.a(lib_a-fflush.o)
                                                  /homes/skollbach/Downloads/ASE/gcc-arm-embedded/gcc-arm-none-eabi-4_8-2014q1/bin/../lib/gcc/arm-none-eabi/4.8.3/../../../../arm-none-eabi/lib/armv7-m/libc.a(lib_a-wsetup.o)
                                                  /homes/skollbach/Downloads/ASE/gcc-arm-embedded/gcc-arm-none-eabi-4_8-2014q1/bin/../lib/gcc/arm-none-eabi/4.8.3/../../../../arm-none-eabi/lib/armv7-m/libc.a(lib_a-wbuf.o)
                                                  /homes/skollbach/Downloads/ASE/gcc-arm-embedded/gcc-arm-none-eabi-4_8-2014q1/bin/../lib/gcc/arm-none-eabi/4.8.3/../../../../arm-none-eabi/lib/armv7-m/libc.a(lib_a-putc.o)
                                                  /homes/skollbach/Downloads/ASE/gcc-arm-embedded/gcc-arm-none-eabi-4_8-2014q1/bin/../lib/gcc/arm-none-eabi/4.8.3/../../../../arm-none-eabi/lib/armv7-m/libc.a(lib_a-fwrite.o)
                                                  /homes/skollbach/Downloads/ASE/gcc-arm-embedded/gcc-arm-none-eabi-4_8-2014q1/bin/../lib/gcc/arm-none-eabi/4.8.3/../../../../arm-none-eabi/lib/armv7-m/libc.a(lib_a-fputs.o)
                                                  /homes/skollbach/Downloads/ASE/gcc-arm-embedded/gcc-arm-none-eabi-4_8-2014q1/bin/../lib/gcc/arm-none-eabi/4.8.3/../../../../arm-none-eabi/lib/armv7-m/libc.a(lib_a-fputc.o)
__sinit_lock_acquire                              /homes/skollbach/Downloads/ASE/gcc-arm-embedded/gcc-arm-none-eabi-4_8-2014q1/bin/../lib/gcc/arm-none-eabi/4.8.3/../../../../arm-none-eabi/lib/armv7-m/libc.a(lib_a-findfp.o)
__sinit_lock_release                              /homes/skollbach/Downloads/ASE/gcc-arm-embedded/gcc-arm-none-eabi-4_8-2014q1/bin/../lib/gcc/arm-none-eabi/4.8.3/../../../../arm-none-eabi/lib/armv7-m/libc.a(lib_a-findfp.o)
__smakebuf_r                                      /homes/skollbach/Downloads/ASE/gcc-arm-embedded/gcc-arm-none-eabi-4_8-2014q1/bin/../lib/gcc/arm-none-eabi/4.8.3/../../../../arm-none-eabi/lib/armv7-m/libc.a(lib_a-makebuf.o)
                                                  /homes/skollbach/Downloads/ASE/gcc-arm-embedded/gcc-arm-none-eabi-4_8-2014q1/bin/../lib/gcc/arm-none-eabi/4.8.3/../../../../arm-none-eabi/lib/armv7-m/libc.a(lib_a-wsetup.o)
__sread                                           /homes/skollbach/Downloads/ASE/gcc-arm-embedded/gcc-arm-none-eabi-4_8-2014q1/bin/../lib/gcc/arm-none-eabi/4.8.3/../../../../arm-none-eabi/lib/armv7-m/libc.a(lib_a-stdio.o)
                                                  /homes/skollbach/Downloads/ASE/gcc-arm-embedded/gcc-arm-none-eabi-4_8-2014q1/bin/../lib/gcc/arm-none-eabi/4.8.3/../../../../arm-none-eabi/lib/armv7-m/libc.a(lib_a-findfp.o)
__sseek                                           /homes/skollbach/Downloads/ASE/gcc-arm-embedded/gcc-arm-none-eabi-4_8-2014q1/bin/../lib/gcc/arm-none-eabi/4.8.3/../../../../arm-none-eabi/lib/armv7-m/libc.a(lib_a-stdio.o)
                                                  /homes/skollbach/Downloads/ASE/gcc-arm-embedded/gcc-arm-none-eabi-4_8-2014q1/bin/../lib/gcc/arm-none-eabi/4.8.3/../../../../arm-none-eabi/lib/armv7-m/libc.a(lib_a-makebuf.o)
                                                  /homes/skollbach/Downloads/ASE/gcc-arm-embedded/gcc-arm-none-eabi-4_8-2014q1/bin/../lib/gcc/arm-none-eabi/4.8.3/../../../../arm-none-eabi/lib/armv7-m/libc.a(lib_a-findfp.o)
__ssprint_r                                       /homes/skollbach/Downloads/ASE/gcc-arm-embedded/gcc-arm-none-eabi-4_8-2014q1/bin/../lib/gcc/arm-none-eabi/4.8.3/../../../../arm-none-eabi/lib/armv7-m/libc.a(lib_a-svfiprintf.o)
                                                  /homes/skollbach/Downloads/ASE/gcc-arm-embedded/gcc-arm-none-eabi-4_8-2014q1/bin/../lib/gcc/arm-none-eabi/4.8.3/../../../../arm-none-eabi/lib/armv7-m/libc.a(lib_a-svfprintf.o)
__subdf3                                          /homes/skollbach/Downloads/ASE/gcc-arm-embedded/gcc-arm-none-eabi-4_8-2014q1/bin/../lib/gcc/arm-none-eabi/4.8.3/armv7-m/libgcc.a(_arm_addsubdf3.o)
__subsf3                                          /homes/skollbach/Downloads/ASE/gcc-arm-embedded/gcc-arm-none-eabi-4_8-2014q1/bin/../lib/gcc/arm-none-eabi/4.8.3/armv7-m/libgcc.a(_arm_addsubsf3.o)
__swbuf                                           /homes/skollbach/Downloads/ASE/gcc-arm-embedded/gcc-arm-none-eabi-4_8-2014q1/bin/../lib/gcc/arm-none-eabi/4.8.3/../../../../arm-none-eabi/lib/armv7-m/libc.a(lib_a-wbuf.o)
__swbuf_r                                         /homes/skollbach/Downloads/ASE/gcc-arm-embedded/gcc-arm-none-eabi-4_8-2014q1/bin/../lib/gcc/arm-none-eabi/4.8.3/../../../../arm-none-eabi/lib/armv7-m/libc.a(lib_a-wbuf.o)
                                                  /homes/skollbach/Downloads/ASE/gcc-arm-embedded/gcc-arm-none-eabi-4_8-2014q1/bin/../lib/gcc/arm-none-eabi/4.8.3/../../../../arm-none-eabi/lib/armv7-m/libc.a(lib_a-putc.o)
__swrite                                          /homes/skollbach/Downloads/ASE/gcc-arm-embedded/gcc-arm-none-eabi-4_8-2014q1/bin/../lib/gcc/arm-none-eabi/4.8.3/../../../../arm-none-eabi/lib/armv7-m/libc.a(lib_a-stdio.o)
                                                  /homes/skollbach/Downloads/ASE/gcc-arm-embedded/gcc-arm-none-eabi-4_8-2014q1/bin/../lib/gcc/arm-none-eabi/4.8.3/../../../../arm-none-eabi/lib/armv7-m/libc.a(lib_a-findfp.o)
__swsetup_r                                       /homes/skollbach/Downloads/ASE/gcc-arm-embedded/gcc-arm-none-eabi-4_8-2014q1/bin/../lib/gcc/arm-none-eabi/4.8.3/../../../../arm-none-eabi/lib/armv7-m/libc.a(lib_a-wsetup.o)
                                                  /homes/skollbach/Downloads/ASE/gcc-arm-embedded/gcc-arm-none-eabi-4_8-2014q1/bin/../lib/gcc/arm-none-eabi/4.8.3/../../../../arm-none-eabi/lib/armv7-m/libc.a(lib_a-wbuf.o)
                                                  /homes/skollbach/Downloads/ASE/gcc-arm-embedded/gcc-arm-none-eabi-4_8-2014q1/bin/../lib/gcc/arm-none-eabi/4.8.3/../../../../arm-none-eabi/lib/armv7-m/libc.a(lib_a-fvwrite.o)
__truncdfsf2                                      /homes/skollbach/Downloads/ASE/gcc-arm-embedded/gcc-arm-none-eabi-4_8-2014q1/bin/../lib/gcc/arm-none-eabi/4.8.3/armv7-m/libgcc.a(_arm_truncdfsf2.o)
__udivdi3                                         /homes/skollbach/Downloads/ASE/gcc-arm-embedded/gcc-arm-none-eabi-4_8-2014q1/bin/../lib/gcc/arm-none-eabi/4.8.3/armv7-m/libgcc.a(_udivdi3.o)
                                                  /homes/skollbach/Downloads/ASE/gcc-arm-embedded/gcc-arm-none-eabi-4_8-2014q1/bin/../lib/gcc/arm-none-eabi/4.8.3/armv7-m/libgcc.a(bpabi.o)
__ulp                                             /homes/skollbach/Downloads/ASE/gcc-arm-embedded/gcc-arm-none-eabi-4_8-2014q1/bin/../lib/gcc/arm-none-eabi/4.8.3/../../../../arm-none-eabi/lib/armv7-m/libc.a(lib_a-mprec.o)
_atoi_r                                           /homes/skollbach/Downloads/ASE/gcc-arm-embedded/gcc-arm-none-eabi-4_8-2014q1/bin/../lib/gcc/arm-none-eabi/4.8.3/../../../../arm-none-eabi/lib/armv7-m/libc.a(lib_a-atoi.o)
_bss_end                                          build/obj/crt0.o
_bss_start                                        build/obj/crt0.o
_calloc_r                                         /homes/skollbach/Downloads/ASE/gcc-arm-embedded/gcc-arm-none-eabi-4_8-2014q1/bin/../lib/gcc/arm-none-eabi/4.8.3/../../../../arm-none-eabi/lib/armv7-m/libc.a(lib_a-callocr.o)
                                                  /homes/skollbach/Downloads/ASE/gcc-arm-embedded/gcc-arm-none-eabi-4_8-2014q1/bin/../lib/gcc/arm-none-eabi/4.8.3/../../../../arm-none-eabi/lib/armv7-m/libc.a(lib_a-mprec.o)
_cleanup                                          /homes/skollbach/Downloads/ASE/gcc-arm-embedded/gcc-arm-none-eabi-4_8-2014q1/bin/../lib/gcc/arm-none-eabi/4.8.3/../../../../arm-none-eabi/lib/armv7-m/libc.a(lib_a-findfp.o)
_cleanup_r                                        /homes/skollbach/Downloads/ASE/gcc-arm-embedded/gcc-arm-none-eabi-4_8-2014q1/bin/../lib/gcc/arm-none-eabi/4.8.3/../../../../arm-none-eabi/lib/armv7-m/libc.a(lib_a-findfp.o)
                                                  /homes/skollbach/Downloads/ASE/gcc-arm-embedded/gcc-arm-none-eabi-4_8-2014q1/bin/../lib/gcc/arm-none-eabi/4.8.3/../../../../arm-none-eabi/lib/armv7-m/libc.a(lib_a-makebuf.o)
_close_r                                          build/obj/syscalls.o
                                                  /homes/skollbach/Downloads/ASE/gcc-arm-embedded/gcc-arm-none-eabi-4_8-2014q1/bin/../lib/gcc/arm-none-eabi/4.8.3/../../../../arm-none-eabi/lib/armv7-m/libc.a(lib_a-stdio.o)
_core_init                                        build/obj/chmemcore.o
                                                  build/obj/chsys.o
_ctype_                                           /homes/skollbach/Downloads/ASE/gcc-arm-embedded/gcc-arm-none-eabi-4_8-2014q1/bin/../lib/gcc/arm-none-eabi/4.8.3/../../../../arm-none-eabi/lib/armv7-m/libc.a(lib_a-ctype_.o)
_data                                             build/obj/crt0.o
_default_exit                                     build/obj/crt0.o
_dtoa_r                                           /homes/skollbach/Downloads/ASE/gcc-arm-embedded/gcc-arm-none-eabi-4_8-2014q1/bin/../lib/gcc/arm-none-eabi/4.8.3/../../../../arm-none-eabi/lib/armv7-m/libc.a(lib_a-dtoa.o)
                                                  /homes/skollbach/Downloads/ASE/gcc-arm-embedded/gcc-arm-none-eabi-4_8-2014q1/bin/../lib/gcc/arm-none-eabi/4.8.3/../../../../arm-none-eabi/lib/armv7-m/libc.a(lib_a-svfprintf.o)
_edata                                            build/obj/crt0.o
_exit                                             build/obj/stubs.o
                                                  /homes/skollbach/Downloads/ASE/gcc-arm-embedded/gcc-arm-none-eabi-4_8-2014q1/bin/../lib/gcc/arm-none-eabi/4.8.3/../../../../arm-none-eabi/lib/armv7-m/libc.a(lib_a-abort.o)
_fclose_r                                         /homes/skollbach/Downloads/ASE/gcc-arm-embedded/gcc-arm-none-eabi-4_8-2014q1/bin/../lib/gcc/arm-none-eabi/4.8.3/../../../../arm-none-eabi/lib/armv7-m/libc.a(lib_a-fclose.o)
_fflush_r                                         /homes/skollbach/Downloads/ASE/gcc-arm-embedded/gcc-arm-none-eabi-4_8-2014q1/bin/../lib/gcc/arm-none-eabi/4.8.3/../../../../arm-none-eabi/lib/armv7-m/libc.a(lib_a-fflush.o)
                                                  /homes/skollbach/Downloads/ASE/gcc-arm-embedded/gcc-arm-none-eabi-4_8-2014q1/bin/../lib/gcc/arm-none-eabi/4.8.3/../../../../arm-none-eabi/lib/armv7-m/libc.a(lib_a-fclose.o)
                                                  /homes/skollbach/Downloads/ASE/gcc-arm-embedded/gcc-arm-none-eabi-4_8-2014q1/bin/../lib/gcc/arm-none-eabi/4.8.3/../../../../arm-none-eabi/lib/armv7-m/libc.a(lib_a-wbuf.o)
                                                  /homes/skollbach/Downloads/ASE/gcc-arm-embedded/gcc-arm-none-eabi-4_8-2014q1/bin/../lib/gcc/arm-none-eabi/4.8.3/../../../../arm-none-eabi/lib/armv7-m/libc.a(lib_a-fvwrite.o)
_fputc_r                                          /homes/skollbach/Downloads/ASE/gcc-arm-embedded/gcc-arm-none-eabi-4_8-2014q1/bin/../lib/gcc/arm-none-eabi/4.8.3/../../../../arm-none-eabi/lib/armv7-m/libc.a(lib_a-fputc.o)
_fputs_r                                          /homes/skollbach/Downloads/ASE/gcc-arm-embedded/gcc-arm-none-eabi-4_8-2014q1/bin/../lib/gcc/arm-none-eabi/4.8.3/../../../../arm-none-eabi/lib/armv7-m/libc.a(lib_a-fputs.o)
_free_r                                           /homes/skollbach/Downloads/ASE/gcc-arm-embedded/gcc-arm-none-eabi-4_8-2014q1/bin/../lib/gcc/arm-none-eabi/4.8.3/../../../../arm-none-eabi/lib/armv7-m/libc.a(lib_a-freer.o)
                                                  /homes/skollbach/Downloads/ASE/gcc-arm-embedded/gcc-arm-none-eabi-4_8-2014q1/bin/../lib/gcc/arm-none-eabi/4.8.3/../../../../arm-none-eabi/lib/armv7-m/libc.a(lib_a-fclose.o)
                                                  /homes/skollbach/Downloads/ASE/gcc-arm-embedded/gcc-arm-none-eabi-4_8-2014q1/bin/../lib/gcc/arm-none-eabi/4.8.3/../../../../arm-none-eabi/lib/armv7-m/libc.a(lib_a-svfiprintf.o)
                                                  /homes/skollbach/Downloads/ASE/gcc-arm-embedded/gcc-arm-none-eabi-4_8-2014q1/bin/../lib/gcc/arm-none-eabi/4.8.3/../../../../arm-none-eabi/lib/armv7-m/libc.a(lib_a-fflush.o)
                                                  /homes/skollbach/Downloads/ASE/gcc-arm-embedded/gcc-arm-none-eabi-4_8-2014q1/bin/../lib/gcc/arm-none-eabi/4.8.3/../../../../arm-none-eabi/lib/armv7-m/libc.a(lib_a-wsetup.o)
                                                  /homes/skollbach/Downloads/ASE/gcc-arm-embedded/gcc-arm-none-eabi-4_8-2014q1/bin/../lib/gcc/arm-none-eabi/4.8.3/../../../../arm-none-eabi/lib/armv7-m/libc.a(lib_a-reent.o)
                                                  /homes/skollbach/Downloads/ASE/gcc-arm-embedded/gcc-arm-none-eabi-4_8-2014q1/bin/../lib/gcc/arm-none-eabi/4.8.3/../../../../arm-none-eabi/lib/armv7-m/libc.a(lib_a-reallocr.o)
                                                  /homes/skollbach/Downloads/ASE/gcc-arm-embedded/gcc-arm-none-eabi-4_8-2014q1/bin/../lib/gcc/arm-none-eabi/4.8.3/../../../../arm-none-eabi/lib/armv7-m/libc.a(lib_a-mallocr.o)
                                                  /homes/skollbach/Downloads/ASE/gcc-arm-embedded/gcc-arm-none-eabi-4_8-2014q1/bin/../lib/gcc/arm-none-eabi/4.8.3/../../../../arm-none-eabi/lib/armv7-m/libc.a(lib_a-malloc.o)
                                                  /homes/skollbach/Downloads/ASE/gcc-arm-embedded/gcc-arm-none-eabi-4_8-2014q1/bin/../lib/gcc/arm-none-eabi/4.8.3/../../../../arm-none-eabi/lib/armv7-m/libc.a(lib_a-fvwrite.o)
_fstat_r                                          build/obj/syscalls.o
                                                  /homes/skollbach/Downloads/ASE/gcc-arm-embedded/gcc-arm-none-eabi-4_8-2014q1/bin/../lib/gcc/arm-none-eabi/4.8.3/../../../../arm-none-eabi/lib/armv7-m/libc.a(lib_a-makebuf.o)
_fwalk                                            /homes/skollbach/Downloads/ASE/gcc-arm-embedded/gcc-arm-none-eabi-4_8-2014q1/bin/../lib/gcc/arm-none-eabi/4.8.3/../../../../arm-none-eabi/lib/armv7-m/libc.a(lib_a-fwalk.o)
                                                  /homes/skollbach/Downloads/ASE/gcc-arm-embedded/gcc-arm-none-eabi-4_8-2014q1/bin/../lib/gcc/arm-none-eabi/4.8.3/../../../../arm-none-eabi/lib/armv7-m/libc.a(lib_a-findfp.o)
_fwalk_reent                                      /homes/skollbach/Downloads/ASE/gcc-arm-embedded/gcc-arm-none-eabi-4_8-2014q1/bin/../lib/gcc/arm-none-eabi/4.8.3/../../../../arm-none-eabi/lib/armv7-m/libc.a(lib_a-fwalk.o)
                                                  /homes/skollbach/Downloads/ASE/gcc-arm-embedded/gcc-arm-none-eabi-4_8-2014q1/bin/../lib/gcc/arm-none-eabi/4.8.3/../../../../arm-none-eabi/lib/armv7-m/libc.a(lib_a-fflush.o)
_fwrite_r                                         /homes/skollbach/Downloads/ASE/gcc-arm-embedded/gcc-arm-none-eabi-4_8-2014q1/bin/../lib/gcc/arm-none-eabi/4.8.3/../../../../arm-none-eabi/lib/armv7-m/libc.a(lib_a-fwrite.o)
_getpid                                           build/obj/stubs.o
                                                  /homes/skollbach/Downloads/ASE/gcc-arm-embedded/gcc-arm-none-eabi-4_8-2014q1/bin/../lib/gcc/arm-none-eabi/4.8.3/../../../../arm-none-eabi/lib/armv7-m/libc.a(lib_a-signalr.o)
_getpid_r                                         /homes/skollbach/Downloads/ASE/gcc-arm-embedded/gcc-arm-none-eabi-4_8-2014q1/bin/../lib/gcc/arm-none-eabi/4.8.3/../../../../arm-none-eabi/lib/armv7-m/libc.a(lib_a-signalr.o)
                                                  /homes/skollbach/Downloads/ASE/gcc-arm-embedded/gcc-arm-none-eabi-4_8-2014q1/bin/../lib/gcc/arm-none-eabi/4.8.3/../../../../arm-none-eabi/lib/armv7-m/libc.a(lib_a-signal.o)
_global_impure_ptr                                /homes/skollbach/Downloads/ASE/gcc-arm-embedded/gcc-arm-none-eabi-4_8-2014q1/bin/../lib/gcc/arm-none-eabi/4.8.3/../../../../arm-none-eabi/lib/armv7-m/libc.a(lib_a-impure.o)
                                                  /homes/skollbach/Downloads/ASE/gcc-arm-embedded/gcc-arm-none-eabi-4_8-2014q1/bin/../lib/gcc/arm-none-eabi/4.8.3/../../../../arm-none-eabi/lib/armv7-m/libc.a(lib_a-findfp.o)
                                                  /homes/skollbach/Downloads/ASE/gcc-arm-embedded/gcc-arm-none-eabi-4_8-2014q1/bin/../lib/gcc/arm-none-eabi/4.8.3/../../../../arm-none-eabi/lib/armv7-m/libc.a(lib_a-fflush.o)
                                                  /homes/skollbach/Downloads/ASE/gcc-arm-embedded/gcc-arm-none-eabi-4_8-2014q1/bin/../lib/gcc/arm-none-eabi/4.8.3/../../../../arm-none-eabi/lib/armv7-m/libc.a(lib_a-__atexit.o)
_heap_init                                        build/obj/chheap.o
                                                  build/obj/chsys.o
_idle_thread                                      build/obj/chsys.o
_idle_thread_wa                                   build/obj/chsys.o
_impure_ptr                                       /homes/skollbach/Downloads/ASE/gcc-arm-embedded/gcc-arm-none-eabi-4_8-2014q1/bin/../lib/gcc/arm-none-eabi/4.8.3/../../../../arm-none-eabi/lib/armv7-m/libc.a(lib_a-impure.o)
                                                  /homes/skollbach/Downloads/ASE/gcc-arm-embedded/gcc-arm-none-eabi-4_8-2014q1/bin/../lib/gcc/arm-none-eabi/4.8.3/../../../../arm-none-eabi/lib/armv7-m/libc.a(lib_a-fclose.o)
                                                  /homes/skollbach/Downloads/ASE/gcc-arm-embedded/gcc-arm-none-eabi-4_8-2014q1/bin/../lib/gcc/arm-none-eabi/4.8.3/../../../../arm-none-eabi/lib/armv7-m/libc.a(lib_a-locale.o)
                                                  /homes/skollbach/Downloads/ASE/gcc-arm-embedded/gcc-arm-none-eabi-4_8-2014q1/bin/../lib/gcc/arm-none-eabi/4.8.3/../../../../arm-none-eabi/lib/armv7-m/libc.a(lib_a-findfp.o)
                                                  /homes/skollbach/Downloads/ASE/gcc-arm-embedded/gcc-arm-none-eabi-4_8-2014q1/bin/../lib/gcc/arm-none-eabi/4.8.3/../../../../arm-none-eabi/lib/armv7-m/libc.a(lib_a-fflush.o)
                                                  /homes/skollbach/Downloads/ASE/gcc-arm-embedded/gcc-arm-none-eabi-4_8-2014q1/bin/../lib/gcc/arm-none-eabi/4.8.3/../../../../arm-none-eabi/lib/armv7-m/libc.a(lib_a-wsetup.o)
                                                  /homes/skollbach/Downloads/ASE/gcc-arm-embedded/gcc-arm-none-eabi-4_8-2014q1/bin/../lib/gcc/arm-none-eabi/4.8.3/../../../../arm-none-eabi/lib/armv7-m/libc.a(lib_a-wbuf.o)
                                                  /homes/skollbach/Downloads/ASE/gcc-arm-embedded/gcc-arm-none-eabi-4_8-2014q1/bin/../lib/gcc/arm-none-eabi/4.8.3/../../../../arm-none-eabi/lib/armv7-m/libc.a(lib_a-syswrite.o)
                                                  /homes/skollbach/Downloads/ASE/gcc-arm-embedded/gcc-arm-none-eabi-4_8-2014q1/bin/../lib/gcc/arm-none-eabi/4.8.3/../../../../arm-none-eabi/lib/armv7-m/libc.a(lib_a-strtol.o)
                                                  /homes/skollbach/Downloads/ASE/gcc-arm-embedded/gcc-arm-none-eabi-4_8-2014q1/bin/../lib/gcc/arm-none-eabi/4.8.3/../../../../arm-none-eabi/lib/armv7-m/libc.a(lib_a-sprintf.o)
                                                  /homes/skollbach/Downloads/ASE/gcc-arm-embedded/gcc-arm-none-eabi-4_8-2014q1/bin/../lib/gcc/arm-none-eabi/4.8.3/../../../../arm-none-eabi/lib/armv7-m/libc.a(lib_a-signal.o)
                                                  /homes/skollbach/Downloads/ASE/gcc-arm-embedded/gcc-arm-none-eabi-4_8-2014q1/bin/../lib/gcc/arm-none-eabi/4.8.3/../../../../arm-none-eabi/lib/armv7-m/libc.a(lib_a-reent.o)
                                                  /homes/skollbach/Downloads/ASE/gcc-arm-embedded/gcc-arm-none-eabi-4_8-2014q1/bin/../lib/gcc/arm-none-eabi/4.8.3/../../../../arm-none-eabi/lib/armv7-m/libc.a(lib_a-realloc.o)
                                                  /homes/skollbach/Downloads/ASE/gcc-arm-embedded/gcc-arm-none-eabi-4_8-2014q1/bin/../lib/gcc/arm-none-eabi/4.8.3/../../../../arm-none-eabi/lib/armv7-m/libc.a(lib_a-putc.o)
                                                  /homes/skollbach/Downloads/ASE/gcc-arm-embedded/gcc-arm-none-eabi-4_8-2014q1/bin/../lib/gcc/arm-none-eabi/4.8.3/../../../../arm-none-eabi/lib/armv7-m/libc.a(lib_a-malloc.o)
                                                  /homes/skollbach/Downloads/ASE/gcc-arm-embedded/gcc-arm-none-eabi-4_8-2014q1/bin/../lib/gcc/arm-none-eabi/4.8.3/../../../../arm-none-eabi/lib/armv7-m/libc.a(lib_a-fwrite.o)
                                                  /homes/skollbach/Downloads/ASE/gcc-arm-embedded/gcc-arm-none-eabi-4_8-2014q1/bin/../lib/gcc/arm-none-eabi/4.8.3/../../../../arm-none-eabi/lib/armv7-m/libc.a(lib_a-fputs.o)
                                                  /homes/skollbach/Downloads/ASE/gcc-arm-embedded/gcc-arm-none-eabi-4_8-2014q1/bin/../lib/gcc/arm-none-eabi/4.8.3/../../../../arm-none-eabi/lib/armv7-m/libc.a(lib_a-fputc.o)
                                                  /homes/skollbach/Downloads/ASE/gcc-arm-embedded/gcc-arm-none-eabi-4_8-2014q1/bin/../lib/gcc/arm-none-eabi/4.8.3/../../../../arm-none-eabi/lib/armv7-m/libstdc++.a(vterminate.o)
_init_signal                                      /homes/skollbach/Downloads/ASE/gcc-arm-embedded/gcc-arm-none-eabi-4_8-2014q1/bin/../lib/gcc/arm-none-eabi/4.8.3/../../../../arm-none-eabi/lib/armv7-m/libc.a(lib_a-signal.o)
_init_signal_r                                    /homes/skollbach/Downloads/ASE/gcc-arm-embedded/gcc-arm-none-eabi-4_8-2014q1/bin/../lib/gcc/arm-none-eabi/4.8.3/../../../../arm-none-eabi/lib/armv7-m/libc.a(lib_a-signal.o)
_isatty_r                                         build/obj/syscalls.o
                                                  /homes/skollbach/Downloads/ASE/gcc-arm-embedded/gcc-arm-none-eabi-4_8-2014q1/bin/../lib/gcc/arm-none-eabi/4.8.3/../../../../arm-none-eabi/lib/armv7-m/libc.a(lib_a-makebuf.o)
_kill                                             build/obj/stubs.o
                                                  /homes/skollbach/Downloads/ASE/gcc-arm-embedded/gcc-arm-none-eabi-4_8-2014q1/bin/../lib/gcc/arm-none-eabi/4.8.3/../../../../arm-none-eabi/lib/armv7-m/libc.a(lib_a-signalr.o)
_kill_r                                           /homes/skollbach/Downloads/ASE/gcc-arm-embedded/gcc-arm-none-eabi-4_8-2014q1/bin/../lib/gcc/arm-none-eabi/4.8.3/../../../../arm-none-eabi/lib/armv7-m/libc.a(lib_a-signalr.o)
                                                  /homes/skollbach/Downloads/ASE/gcc-arm-embedded/gcc-arm-none-eabi-4_8-2014q1/bin/../lib/gcc/arm-none-eabi/4.8.3/../../../../arm-none-eabi/lib/armv7-m/libc.a(lib_a-signal.o)
_localeconv_r                                     /homes/skollbach/Downloads/ASE/gcc-arm-embedded/gcc-arm-none-eabi-4_8-2014q1/bin/../lib/gcc/arm-none-eabi/4.8.3/../../../../arm-none-eabi/lib/armv7-m/libc.a(lib_a-locale.o)
                                                  /homes/skollbach/Downloads/ASE/gcc-arm-embedded/gcc-arm-none-eabi-4_8-2014q1/bin/../lib/gcc/arm-none-eabi/4.8.3/../../../../arm-none-eabi/lib/armv7-m/libc.a(lib_a-svfprintf.o)
_lseek_r                                          build/obj/syscalls.o
                                                  /homes/skollbach/Downloads/ASE/gcc-arm-embedded/gcc-arm-none-eabi-4_8-2014q1/bin/../lib/gcc/arm-none-eabi/4.8.3/../../../../arm-none-eabi/lib/armv7-m/libc.a(lib_a-stdio.o)
_malloc_r                                         /homes/skollbach/Downloads/ASE/gcc-arm-embedded/gcc-arm-none-eabi-4_8-2014q1/bin/../lib/gcc/arm-none-eabi/4.8.3/../../../../arm-none-eabi/lib/armv7-m/libc.a(lib_a-mallocr.o)
                                                  /homes/skollbach/Downloads/ASE/gcc-arm-embedded/gcc-arm-none-eabi-4_8-2014q1/bin/../lib/gcc/arm-none-eabi/4.8.3/../../../../arm-none-eabi/lib/armv7-m/libc.a(lib_a-callocr.o)
                                                  /homes/skollbach/Downloads/ASE/gcc-arm-embedded/gcc-arm-none-eabi-4_8-2014q1/bin/../lib/gcc/arm-none-eabi/4.8.3/../../../../arm-none-eabi/lib/armv7-m/libc.a(lib_a-svfiprintf.o)
                                                  /homes/skollbach/Downloads/ASE/gcc-arm-embedded/gcc-arm-none-eabi-4_8-2014q1/bin/../lib/gcc/arm-none-eabi/4.8.3/../../../../arm-none-eabi/lib/armv7-m/libc.a(lib_a-makebuf.o)
                                                  /homes/skollbach/Downloads/ASE/gcc-arm-embedded/gcc-arm-none-eabi-4_8-2014q1/bin/../lib/gcc/arm-none-eabi/4.8.3/../../../../arm-none-eabi/lib/armv7-m/libc.a(lib_a-findfp.o)
                                                  /homes/skollbach/Downloads/ASE/gcc-arm-embedded/gcc-arm-none-eabi-4_8-2014q1/bin/../lib/gcc/arm-none-eabi/4.8.3/../../../../arm-none-eabi/lib/armv7-m/libc.a(lib_a-svfprintf.o)
                                                  /homes/skollbach/Downloads/ASE/gcc-arm-embedded/gcc-arm-none-eabi-4_8-2014q1/bin/../lib/gcc/arm-none-eabi/4.8.3/../../../../arm-none-eabi/lib/armv7-m/libc.a(lib_a-signal.o)
                                                  /homes/skollbach/Downloads/ASE/gcc-arm-embedded/gcc-arm-none-eabi-4_8-2014q1/bin/../lib/gcc/arm-none-eabi/4.8.3/../../../../arm-none-eabi/lib/armv7-m/libc.a(lib_a-reallocr.o)
                                                  /homes/skollbach/Downloads/ASE/gcc-arm-embedded/gcc-arm-none-eabi-4_8-2014q1/bin/../lib/gcc/arm-none-eabi/4.8.3/../../../../arm-none-eabi/lib/armv7-m/libc.a(lib_a-malloc.o)
                                                  /homes/skollbach/Downloads/ASE/gcc-arm-embedded/gcc-arm-none-eabi-4_8-2014q1/bin/../lib/gcc/arm-none-eabi/4.8.3/../../../../arm-none-eabi/lib/armv7-m/libc.a(lib_a-fvwrite.o)
_malloc_trim_r                                    /homes/skollbach/Downloads/ASE/gcc-arm-embedded/gcc-arm-none-eabi-4_8-2014q1/bin/../lib/gcc/arm-none-eabi/4.8.3/../../../../arm-none-eabi/lib/armv7-m/libc.a(lib_a-freer.o)
_mprec_log10                                      /homes/skollbach/Downloads/ASE/gcc-arm-embedded/gcc-arm-none-eabi-4_8-2014q1/bin/../lib/gcc/arm-none-eabi/4.8.3/../../../../arm-none-eabi/lib/armv7-m/libc.a(lib_a-mprec.o)
_pal_lld_init                                     build/obj/pal_lld.o
                                                  build/obj/hal.o
_pal_lld_setgroupmode                             build/obj/pal_lld.o
                                                  build/obj/board.o
                                                  build/obj/pal.o
_port_init                                        build/obj/chcore_v7m.o
                                                  build/obj/chsys.o
_port_irq_epilogue                                build/obj/chcore_v7m.o
                                                  build/obj/serial_lld.o
                                                  build/obj/i2c_lld.o
                                                  build/obj/can_lld.o
                                                  build/obj/ext_lld_isr.o
                                                  build/obj/stm32_dma.o
_port_switch                                      build/obj/chcore_v7m.o
                                                  build/obj/chschd.o
_port_switch_from_isr                             build/obj/chcore_v7m.o
_port_thread_start                                build/obj/chcore_v7m.o
                                                  build/obj/chthreads.o
_putc_r                                           /homes/skollbach/Downloads/ASE/gcc-arm-embedded/gcc-arm-none-eabi-4_8-2014q1/bin/../lib/gcc/arm-none-eabi/4.8.3/../../../../arm-none-eabi/lib/armv7-m/libc.a(lib_a-putc.o)
                                                  /homes/skollbach/Downloads/ASE/gcc-arm-embedded/gcc-arm-none-eabi-4_8-2014q1/bin/../lib/gcc/arm-none-eabi/4.8.3/../../../../arm-none-eabi/lib/armv7-m/libc.a(lib_a-fputc.o)
_raise_r                                          /homes/skollbach/Downloads/ASE/gcc-arm-embedded/gcc-arm-none-eabi-4_8-2014q1/bin/../lib/gcc/arm-none-eabi/4.8.3/../../../../arm-none-eabi/lib/armv7-m/libc.a(lib_a-signal.o)
_read_r                                           build/obj/syscalls.o
                                                  /homes/skollbach/Downloads/ASE/gcc-arm-embedded/gcc-arm-none-eabi-4_8-2014q1/bin/../lib/gcc/arm-none-eabi/4.8.3/../../../../arm-none-eabi/lib/armv7-m/libc.a(lib_a-stdio.o)
_realloc_r                                        /homes/skollbach/Downloads/ASE/gcc-arm-embedded/gcc-arm-none-eabi-4_8-2014q1/bin/../lib/gcc/arm-none-eabi/4.8.3/../../../../arm-none-eabi/lib/armv7-m/libc.a(lib_a-reallocr.o)
                                                  /homes/skollbach/Downloads/ASE/gcc-arm-embedded/gcc-arm-none-eabi-4_8-2014q1/bin/../lib/gcc/arm-none-eabi/4.8.3/../../../../arm-none-eabi/lib/armv7-m/libc.a(lib_a-svfiprintf.o)
                                                  /homes/skollbach/Downloads/ASE/gcc-arm-embedded/gcc-arm-none-eabi-4_8-2014q1/bin/../lib/gcc/arm-none-eabi/4.8.3/../../../../arm-none-eabi/lib/armv7-m/libc.a(lib_a-realloc.o)
                                                  /homes/skollbach/Downloads/ASE/gcc-arm-embedded/gcc-arm-none-eabi-4_8-2014q1/bin/../lib/gcc/arm-none-eabi/4.8.3/../../../../arm-none-eabi/lib/armv7-m/libc.a(lib_a-fvwrite.o)
_reclaim_reent                                    /homes/skollbach/Downloads/ASE/gcc-arm-embedded/gcc-arm-none-eabi-4_8-2014q1/bin/../lib/gcc/arm-none-eabi/4.8.3/../../../../arm-none-eabi/lib/armv7-m/libc.a(lib_a-reent.o)
_sbrk_r                                           build/obj/syscalls.o
                                                  /homes/skollbach/Downloads/ASE/gcc-arm-embedded/gcc-arm-none-eabi-4_8-2014q1/bin/../lib/gcc/arm-none-eabi/4.8.3/../../../../arm-none-eabi/lib/armv7-m/libc.a(lib_a-freer.o)
                                                  /homes/skollbach/Downloads/ASE/gcc-arm-embedded/gcc-arm-none-eabi-4_8-2014q1/bin/../lib/gcc/arm-none-eabi/4.8.3/../../../../arm-none-eabi/lib/armv7-m/libc.a(lib_a-mallocr.o)
_scheduler_init                                   build/obj/chschd.o
                                                  build/obj/chsys.o
_setlocale_r                                      /homes/skollbach/Downloads/ASE/gcc-arm-embedded/gcc-arm-none-eabi-4_8-2014q1/bin/../lib/gcc/arm-none-eabi/4.8.3/../../../../arm-none-eabi/lib/armv7-m/libc.a(lib_a-locale.o)
_signal_r                                         /homes/skollbach/Downloads/ASE/gcc-arm-embedded/gcc-arm-none-eabi-4_8-2014q1/bin/../lib/gcc/arm-none-eabi/4.8.3/../../../../arm-none-eabi/lib/armv7-m/libc.a(lib_a-signal.o)
_sprintf_r                                        /homes/skollbach/Downloads/ASE/gcc-arm-embedded/gcc-arm-none-eabi-4_8-2014q1/bin/../lib/gcc/arm-none-eabi/4.8.3/../../../../arm-none-eabi/lib/armv7-m/libc.a(lib_a-sprintf.o)
_stm32_dma_streams                                build/obj/stm32_dma.o
                                                  build/obj/spi_lld.o
_strtol_r                                         /homes/skollbach/Downloads/ASE/gcc-arm-embedded/gcc-arm-none-eabi-4_8-2014q1/bin/../lib/gcc/arm-none-eabi/4.8.3/../../../../arm-none-eabi/lib/armv7-m/libc.a(lib_a-strtol.o)
                                                  /homes/skollbach/Downloads/ASE/gcc-arm-embedded/gcc-arm-none-eabi-4_8-2014q1/bin/../lib/gcc/arm-none-eabi/4.8.3/../../../../arm-none-eabi/lib/armv7-m/libc.a(lib_a-atoi.o)
_svfiprintf_r                                     /homes/skollbach/Downloads/ASE/gcc-arm-embedded/gcc-arm-none-eabi-4_8-2014q1/bin/../lib/gcc/arm-none-eabi/4.8.3/../../../../arm-none-eabi/lib/armv7-m/libc.a(lib_a-svfiprintf.o)
_svfprintf_r                                      /homes/skollbach/Downloads/ASE/gcc-arm-embedded/gcc-arm-none-eabi-4_8-2014q1/bin/../lib/gcc/arm-none-eabi/4.8.3/../../../../arm-none-eabi/lib/armv7-m/libc.a(lib_a-svfprintf.o)
                                                  /homes/skollbach/Downloads/ASE/gcc-arm-embedded/gcc-arm-none-eabi-4_8-2014q1/bin/../lib/gcc/arm-none-eabi/4.8.3/../../../../arm-none-eabi/lib/armv7-m/libc.a(lib_a-sprintf.o)
_textdata                                         build/obj/crt0.o
_thread_init                                      build/obj/chthreads.o
                                                  build/obj/chsys.o
_trace_init                                       build/obj/chdebug.o
                                                  build/obj/chsys.o
_unhandled_exception                              build/obj/vectors.o
_vectors                                          build/obj/vectors.o
_vt_init                                          build/obj/chvt.o
                                                  build/obj/chsys.o
_write_r                                          build/obj/syscalls.o
                                                  /homes/skollbach/Downloads/ASE/gcc-arm-embedded/gcc-arm-none-eabi-4_8-2014q1/bin/../lib/gcc/arm-none-eabi/4.8.3/../../../../arm-none-eabi/lib/armv7-m/libc.a(lib_a-stdio.o)
                                                  /homes/skollbach/Downloads/ASE/gcc-arm-embedded/gcc-arm-none-eabi-4_8-2014q1/bin/../lib/gcc/arm-none-eabi/4.8.3/../../../../arm-none-eabi/lib/armv7-m/libc.a(lib_a-syswrite.o)
abort                                             /homes/skollbach/Downloads/ASE/gcc-arm-embedded/gcc-arm-none-eabi-4_8-2014q1/bin/../lib/gcc/arm-none-eabi/4.8.3/../../../../arm-none-eabi/lib/armv7-m/libc.a(lib_a-abort.o)
                                                  /homes/skollbach/Downloads/ASE/gcc-arm-embedded/gcc-arm-none-eabi-4_8-2014q1/bin/../lib/gcc/arm-none-eabi/4.8.3/armv7-m/libgcc.a(pr-support.o)
                                                  /homes/skollbach/Downloads/ASE/gcc-arm-embedded/gcc-arm-none-eabi-4_8-2014q1/bin/../lib/gcc/arm-none-eabi/4.8.3/armv7-m/libgcc.a(unwind-arm.o)
                                                  /homes/skollbach/Downloads/ASE/gcc-arm-embedded/gcc-arm-none-eabi-4_8-2014q1/bin/../lib/gcc/arm-none-eabi/4.8.3/../../../../arm-none-eabi/lib/armv7-m/libstdc++.a(vterminate.o)
                                                  /homes/skollbach/Downloads/ASE/gcc-arm-embedded/gcc-arm-none-eabi-4_8-2014q1/bin/../lib/gcc/arm-none-eabi/4.8.3/../../../../arm-none-eabi/lib/armv7-m/libstdc++.a(eh_personality.o)
                                                  /homes/skollbach/Downloads/ASE/gcc-arm-embedded/gcc-arm-none-eabi-4_8-2014q1/bin/../lib/gcc/arm-none-eabi/4.8.3/../../../../arm-none-eabi/lib/armv7-m/libstdc++.a(eh_terminate.o)
amiro::A2500R24A::A2500R24A(amiro::HWSPIDriver*)  build/obj/a2500r24a.o
                                                  build/obj/main.o
amiro::A2500R24A::A2500R24A(amiro::HWSPIDriver*)  build/obj/a2500r24a.o
amiro::A2500R24A::configure(amiro::A2500R24A::A2500R24AConfig*) build/obj/a2500r24a.o
amiro::A2500R24A::getCheck()                      build/obj/a2500r24a.o
                                                  build/obj/main.o
amiro::A2500R24A::getEventSource()                build/obj/a2500r24a.o
amiro::A2500R24A::main()                          build/obj/a2500r24a.o
amiro::A2500R24A::~A2500R24A()                    build/obj/a2500r24a.o
amiro::A2500R24A::~A2500R24A()                    build/obj/a2500r24a.o
amiro::A2500R24A::~A2500R24A()                    build/obj/a2500r24a.o
                                                  build/obj/main.o
amiro::AT24::AT24(unsigned int, unsigned char, unsigned short, amiro::I2CDriver*) build/obj/at24.o
amiro::AT24::AT24(unsigned int, unsigned char, unsigned short, amiro::I2CDriver*) build/obj/at24.o
                                                  build/obj/main.o
amiro::AT24::close(void*)                         build/obj/at24.o
amiro::AT24::poll_ack(void*)                      build/obj/at24.o
amiro::AT24::read(void*, unsigned char*, unsigned int) build/obj/at24.o
amiro::AT24::write(void*, unsigned char const*, unsigned int) build/obj/at24.o
amiro::AT24::~AT24()                              build/obj/at24.o
amiro::AT24::~AT24()                              build/obj/at24.o
                                                  build/obj/main.o
amiro::Color::Color()                             build/obj/Color.o
                                                  build/obj/main.o
                                                  build/obj/tlc5947.o
amiro::Color::Color()                             build/obj/Color.o
amiro::Color::Color(amiro::Color const&)          build/obj/Color.o
                                                  build/obj/main.o
                                                  build/obj/LightRing.o
                                                  build/obj/tlc5947.o
amiro::Color::Color(amiro::Color const&)          build/obj/Color.o
amiro::Color::Color(amiro::Color::GlobalColor)    build/obj/Color.o
                                                  build/obj/main.o
amiro::Color::Color(amiro::Color::GlobalColor)    build/obj/Color.o
amiro::Color::Color(int, int, int)                build/obj/Color.o
                                                  build/obj/main.o
                                                  build/obj/LightRing.o
amiro::Color::Color(int, int, int)                build/obj/Color.o
amiro::Color::darker(int)                         build/obj/Color.o
amiro::Color::getBlue()                           build/obj/Color.o
                                                  build/obj/ControllerAreaNetworkTx.o
                                                  build/obj/tlc5947.o
amiro::Color::getGreen()                          build/obj/Color.o
                                                  build/obj/ControllerAreaNetworkTx.o
                                                  build/obj/tlc5947.o
amiro::Color::getRed()                            build/obj/Color.o
                                                  build/obj/ControllerAreaNetworkTx.o
                                                  build/obj/tlc5947.o
amiro::Color::getRedGreenBlue(int*, int*, int*)   build/obj/Color.o
amiro::Color::lighter(int)                        build/obj/Color.o
amiro::Color::operator=(amiro::Color const&)      build/obj/Color.o
                                                  build/obj/main.o
                                                  build/obj/tlc5947.o
amiro::Color::operator=(amiro::Color::GlobalColor) build/obj/Color.o
                                                  build/obj/main.o
                                                  build/obj/tlc5947.o
amiro::Color::setRedGreenBlue(int, int, int)      build/obj/Color.o
amiro::ControllerAreaNetworkRx::ControllerAreaNetworkRx(CANDriver*, unsigned char) build/obj/ControllerAreaNetworkRx.o
amiro::ControllerAreaNetworkRx::ControllerAreaNetworkRx(CANDriver*, unsigned char) build/obj/ControllerAreaNetworkRx.o
                                                  build/obj/LightRing.o
amiro::ControllerAreaNetworkRx::decodeBoardId(CANRxFrame*) build/obj/ControllerAreaNetworkRx.o
                                                  build/obj/LightRing.o
amiro::ControllerAreaNetworkRx::decodeDeviceId(CANRxFrame*) build/obj/ControllerAreaNetworkRx.o
                                                  build/obj/LightRing.o
amiro::ControllerAreaNetworkRx::decodeIndexId(CANRxFrame*) build/obj/ControllerAreaNetworkRx.o
amiro::ControllerAreaNetworkRx::getActualSpeed(types::kinematic&) build/obj/ControllerAreaNetworkRx.o
amiro::ControllerAreaNetworkRx::getGyroscopeValue(int) build/obj/ControllerAreaNetworkRx.o
amiro::ControllerAreaNetworkRx::getMagnetometerValue(int) build/obj/ControllerAreaNetworkRx.o
amiro::ControllerAreaNetworkRx::getOdometry()     build/obj/ControllerAreaNetworkRx.o
amiro::ControllerAreaNetworkRx::getPowerStatus()  build/obj/ControllerAreaNetworkRx.o
amiro::ControllerAreaNetworkRx::getProximityFloorValue(int) build/obj/ControllerAreaNetworkRx.o
amiro::ControllerAreaNetworkRx::getProximityRingValue(int) build/obj/ControllerAreaNetworkRx.o
amiro::ControllerAreaNetworkRx::getRobotID()      build/obj/ControllerAreaNetworkRx.o
                                                  build/obj/main.o
amiro::ControllerAreaNetworkRx::main()            build/obj/ControllerAreaNetworkRx.o
                                                  build/obj/LightRing.o
amiro::ControllerAreaNetworkRx::receiveMessage(CANRxFrame*) build/obj/ControllerAreaNetworkRx.o
amiro::ControllerAreaNetworkRx::receiveSensorVal(CANRxFrame*) build/obj/ControllerAreaNetworkRx.o
amiro::ControllerAreaNetworkRx::rxCmdShell(CANRxFrame*) build/obj/ControllerAreaNetworkRx.o
amiro::ControllerAreaNetworkRx::~ControllerAreaNetworkRx() build/obj/ControllerAreaNetworkRx.o
                                                  build/obj/main.o
                                                  build/obj/LightRing.o
amiro::ControllerAreaNetworkRx::~ControllerAreaNetworkRx() build/obj/ControllerAreaNetworkRx.o
amiro::ControllerAreaNetworkRx::~ControllerAreaNetworkRx() build/obj/ControllerAreaNetworkRx.o
amiro::ControllerAreaNetworkTx::ControllerAreaNetworkTx(CANDriver*, unsigned char) build/obj/ControllerAreaNetworkTx.o
amiro::ControllerAreaNetworkTx::ControllerAreaNetworkTx(CANDriver*, unsigned char) build/obj/ControllerAreaNetworkTx.o
                                                  build/obj/LightRing.o
amiro::ControllerAreaNetworkTx::broadcastShutdown() build/obj/ControllerAreaNetworkTx.o
amiro::ControllerAreaNetworkTx::encodeBoardId(CANTxFrame*, int) build/obj/ControllerAreaNetworkTx.o
amiro::ControllerAreaNetworkTx::encodeDeviceId(CANTxFrame*, int) build/obj/ControllerAreaNetworkTx.o
amiro::ControllerAreaNetworkTx::encodeIndexId(CANTxFrame*, int) build/obj/ControllerAreaNetworkTx.o
amiro::ControllerAreaNetworkTx::main()            build/obj/ControllerAreaNetworkTx.o
                                                  build/obj/LightRing.o
amiro::ControllerAreaNetworkTx::setKinematicConstants(float, float) build/obj/ControllerAreaNetworkTx.o
amiro::ControllerAreaNetworkTx::setLightBrightness(int) build/obj/ControllerAreaNetworkTx.o
amiro::ControllerAreaNetworkTx::setLightColor(int, amiro::Color) build/obj/ControllerAreaNetworkTx.o
amiro::ControllerAreaNetworkTx::setOdometry(types::position) build/obj/ControllerAreaNetworkTx.o
amiro::ControllerAreaNetworkTx::setTargetPosition(types::position&, unsigned long) build/obj/ControllerAreaNetworkTx.o
amiro::ControllerAreaNetworkTx::setTargetSpeed(long, long) build/obj/ControllerAreaNetworkTx.o
amiro::ControllerAreaNetworkTx::setTargetSpeed(types::kinematic&) build/obj/ControllerAreaNetworkTx.o
amiro::ControllerAreaNetworkTx::transmitMessage(CANTxFrame*) build/obj/ControllerAreaNetworkTx.o
amiro::ControllerAreaNetworkTx::txQueryShell(unsigned char, char*, unsigned short) build/obj/ControllerAreaNetworkTx.o
amiro::ControllerAreaNetworkTx::txReplyShell(unsigned char, char*, unsigned short) build/obj/ControllerAreaNetworkTx.o
amiro::ControllerAreaNetworkTx::updateSensorVal() build/obj/ControllerAreaNetworkTx.o
                                                  build/obj/LightRing.o
amiro::ControllerAreaNetworkTx::~ControllerAreaNetworkTx() build/obj/ControllerAreaNetworkTx.o
amiro::ControllerAreaNetworkTx::~ControllerAreaNetworkTx() build/obj/ControllerAreaNetworkTx.o
                                                  build/obj/main.o
                                                  build/obj/LightRing.o
amiro::ControllerAreaNetworkTx::~ControllerAreaNetworkTx() build/obj/ControllerAreaNetworkTx.o
amiro::EEPROM::EEPROM(BaseFileStreamVMT const*, unsigned int, unsigned char, unsigned short, amiro::HWSPIDriver*) build/obj/eeprom.o
amiro::EEPROM::EEPROM(BaseFileStreamVMT const*, unsigned int, unsigned char, unsigned short, amiro::HWSPIDriver*) build/obj/eeprom.o
amiro::EEPROM::EEPROM(BaseFileStreamVMT const*, unsigned int, unsigned char, unsigned short, unsigned char, amiro::I2CDriver*) build/obj/eeprom.o
amiro::EEPROM::EEPROM(BaseFileStreamVMT const*, unsigned int, unsigned char, unsigned short, unsigned char, amiro::I2CDriver*) build/obj/eeprom.o
                                                  build/obj/at24.o
amiro::EEPROM::acquire()                          build/obj/eeprom.o
amiro::EEPROM::geterror(void*)                    build/obj/eeprom.o
                                                  build/obj/at24.o
amiro::EEPROM::getposition(void*)                 build/obj/eeprom.o
                                                  build/obj/at24.o
amiro::EEPROM::getsize(void*)                     build/obj/eeprom.o
                                                  build/obj/main.o
                                                  build/obj/at24.o
amiro::EEPROM::lseek(void*, unsigned long)        build/obj/eeprom.o
                                                  build/obj/at24.o
amiro::EEPROM::release()                          build/obj/eeprom.o
amiro::EEPROM::~EEPROM()                          build/obj/eeprom.o
amiro::EEPROM::~EEPROM()                          build/obj/eeprom.o
                                                  build/obj/at24.o
amiro::Global::Global()                           build/obj/main.o
amiro::Global::Global()                           build/obj/main.o
amiro::Global::~Global()                          build/obj/main.o
amiro::Global::~Global()                          build/obj/main.o
amiro::HWI2CDriver::HWI2CDriver(I2CDriver*)       build/obj/HWI2CDriver.o
amiro::HWI2CDriver::HWI2CDriver(I2CDriver*)       build/obj/HWI2CDriver.o
                                                  build/obj/main.o
amiro::HWI2CDriver::acquireBus()                  build/obj/HWI2CDriver.o
amiro::HWI2CDriver::getErrors()                   build/obj/HWI2CDriver.o
amiro::HWI2CDriver::masterReceive(amiro::I2CRxParams const*, unsigned long) build/obj/HWI2CDriver.o
amiro::HWI2CDriver::masterTransmit(amiro::I2CTxParams const*, unsigned long) build/obj/HWI2CDriver.o
amiro::HWI2CDriver::releaseBus()                  build/obj/HWI2CDriver.o
amiro::HWI2CDriver::start(I2CConfig const*)       build/obj/HWI2CDriver.o
                                                  build/obj/main.o
amiro::HWI2CDriver::stop()                        build/obj/HWI2CDriver.o
amiro::HWI2CDriver::~HWI2CDriver()                build/obj/HWI2CDriver.o
amiro::HWI2CDriver::~HWI2CDriver()                build/obj/HWI2CDriver.o
amiro::HWI2CDriver::~HWI2CDriver()                build/obj/HWI2CDriver.o
amiro::HWSPIDriver::HWSPIDriver(SPIDriver*, SPIConfig const*) build/obj/HWSPIDriver.o
amiro::HWSPIDriver::HWSPIDriver(SPIDriver*, SPIConfig const*) build/obj/HWSPIDriver.o
                                                  build/obj/main.o
amiro::HWSPIDriver::exchange(unsigned char*, unsigned char const*, unsigned int) build/obj/HWSPIDriver.o
                                                  build/obj/a2500r24a.o
amiro::HWSPIDriver::read(unsigned char*, unsigned int) build/obj/HWSPIDriver.o
amiro::HWSPIDriver::write(unsigned char const*, unsigned int) build/obj/HWSPIDriver.o
                                                  build/obj/tlc5947.o
amiro::HWSPIDriver::~HWSPIDriver()                build/obj/HWSPIDriver.o
amiro::HWSPIDriver::~HWSPIDriver()                build/obj/HWSPIDriver.o
                                                  build/obj/main.o
amiro::HWSPIDriver::~HWSPIDriver()                build/obj/HWSPIDriver.o
amiro::I2CDriver::~I2CDriver()                    build/obj/HWI2CDriver.o
                                                  build/obj/main.o
amiro::I2CDriver::~I2CDriver()                    build/obj/HWI2CDriver.o
                                                  build/obj/main.o
amiro::I2CDriver::~I2CDriver()                    build/obj/HWI2CDriver.o
                                                  build/obj/main.o
amiro::Lidar::Lidar(unsigned char, amiro::Lidar::SETUP) build/obj/Lidar.o
amiro::Lidar::Lidar(unsigned char, amiro::Lidar::SETUP) build/obj/Lidar.o
                                                  build/obj/main.o
amiro::Lidar::checkDataString(char const*)        build/obj/Lidar.o
amiro::Lidar::getData(unsigned char&, unsigned long) build/obj/Lidar.o
amiro::Lidar::getNumberOfValues()                 build/obj/Lidar.o
amiro::Lidar::getScan(unsigned short (&) [682])   build/obj/Lidar.o
amiro::Lidar::main()                              build/obj/Lidar.o
amiro::Lidar::printData()                         build/obj/Lidar.o
amiro::Lidar::printDetails()                      build/obj/Lidar.o
amiro::Lidar::printInformation()                  build/obj/Lidar.o
amiro::Lidar::printSpecification()                build/obj/Lidar.o
amiro::Lidar::scannedData                         build/obj/Lidar.o
amiro::Lidar::updateSensorVal()                   build/obj/Lidar.o
amiro::Lidar::~Lidar()                            build/obj/Lidar.o
                                                  build/obj/main.o
amiro::Lidar::~Lidar()                            build/obj/Lidar.o
amiro::LightRing::LightRing(CANDriver*, amiro::TLC5947*, amiro::fileSystemIo::FSIOLightRing*) build/obj/LightRing.o
amiro::LightRing::LightRing(CANDriver*, amiro::TLC5947*, amiro::fileSystemIo::FSIOLightRing*) build/obj/LightRing.o
                                                  build/obj/main.o
amiro::LightRing::periodicBroadcast()             build/obj/LightRing.o
amiro::LightRing::receiveMessage(CANRxFrame*)     build/obj/LightRing.o
amiro::LightRing::setLightBrightness(int)         build/obj/LightRing.o
                                                  build/obj/main.o
amiro::LightRing::setLightColor(int, amiro::Color) build/obj/LightRing.o
                                                  build/obj/main.o
amiro::LightRing::start(unsigned long)            build/obj/LightRing.o
                                                  build/obj/main.o
amiro::LightRing::terminate()                     build/obj/LightRing.o
                                                  build/obj/main.o
amiro::LightRing::~LightRing()                    build/obj/LightRing.o
amiro::LightRing::~LightRing()                    build/obj/LightRing.o
amiro::LightRing::~LightRing()                    build/obj/LightRing.o
amiro::SerialCanMux::SerialCanMux(SerialDriver*, CANDriver*, unsigned char) build/obj/serial_can_mux.o
amiro::SerialCanMux::SerialCanMux(SerialDriver*, CANDriver*, unsigned char) build/obj/serial_can_mux.o
                                                  build/obj/main.o
amiro::SerialCanMux::checkByteForBLReset(unsigned char*, unsigned int) build/obj/serial_can_mux.o
amiro::SerialCanMux::convCan2Serial(unsigned char*, unsigned int) build/obj/serial_can_mux.o
                                                  build/obj/LightRing.o
amiro::SerialCanMux::get()                        build/obj/serial_can_mux.o
amiro::SerialCanMux::put(unsigned char)           build/obj/serial_can_mux.o
amiro::SerialCanMux::rcvSwitchCmd(unsigned char)  build/obj/serial_can_mux.o
                                                  build/obj/LightRing.o
amiro::SerialCanMux::read(unsigned char*, unsigned int) build/obj/serial_can_mux.o
amiro::SerialCanMux::restartSystem()              build/obj/serial_can_mux.o
amiro::SerialCanMux::sendSwitchCmd(unsigned char) build/obj/serial_can_mux.o
                                                  build/obj/main.o
amiro::SerialCanMux::sendViaCan(unsigned long, unsigned char*, unsigned int) build/obj/serial_can_mux.o
amiro::SerialCanMux::write(unsigned char const*, unsigned int) build/obj/serial_can_mux.o
amiro::SerialCanMux::~SerialCanMux()              build/obj/serial_can_mux.o
                                                  build/obj/main.o
amiro::SerialCanMux::~SerialCanMux()              build/obj/serial_can_mux.o
amiro::SerialCanMux::~SerialCanMux()              build/obj/serial_can_mux.o
amiro::TLC5947::TLC5947(amiro::HWSPIDriver*, GPIO_TypeDef*, int) build/obj/tlc5947.o
amiro::TLC5947::TLC5947(amiro::HWSPIDriver*, GPIO_TypeDef*, int) build/obj/tlc5947.o
                                                  build/obj/main.o
amiro::TLC5947::caluclateBlueGrayscale(amiro::Color, int) const build/obj/tlc5947.o
amiro::TLC5947::caluclateGreenGrayscale(amiro::Color, int) const build/obj/tlc5947.o
amiro::TLC5947::caluclateRedGrayscale(amiro::Color, int) const build/obj/tlc5947.o
amiro::TLC5947::disable()                         build/obj/tlc5947.o
amiro::TLC5947::enable()                          build/obj/tlc5947.o
                                                  build/obj/main.o
amiro::TLC5947::main()                            build/obj/tlc5947.o
amiro::TLC5947::setBrightness(int)                build/obj/tlc5947.o
                                                  build/obj/LightRing.o
amiro::TLC5947::setColor(int, amiro::Color)       build/obj/tlc5947.o
                                                  build/obj/LightRing.o
amiro::TLC5947::update()                          build/obj/tlc5947.o
                                                  build/obj/main.o
                                                  build/obj/LightRing.o
amiro::TLC5947::~TLC5947()                        build/obj/tlc5947.o
amiro::TLC5947::~TLC5947()                        build/obj/tlc5947.o
                                                  build/obj/main.o
amiro::TLC5947::~TLC5947()                        build/obj/tlc5947.o
amiro::UserThread::UserThread()                   build/obj/userthread.o
amiro::UserThread::UserThread()                   build/obj/userthread.o
                                                  build/obj/main.o
amiro::UserThread::main()                         build/obj/userthread.o
amiro::UserThread::~UserThread()                  build/obj/userthread.o
                                                  build/obj/main.o
amiro::UserThread::~UserThread()                  build/obj/userthread.o
amiro::UserThread::~UserThread()                  build/obj/userthread.o
amiro::fileSystemIo::FileSystemIoBase::getBoardId(unsigned char*) build/obj/FileSystemInputOutputBase.o
                                                  build/obj/main.o
amiro::fileSystemIo::FileSystemIoBase::getCheck() build/obj/FileSystemInputOutputBase.o
                                                  build/obj/main.o
amiro::fileSystemIo::FileSystemIoBase::init()     build/obj/FileSystemInputOutputBase.o
                                                  build/obj/main.o
amiro::fileSystemIo::FileSystemIoBase::initPreamble(unsigned char, unsigned char, bool) build/obj/FileSystemInputOutputBase.o
amiro::fileSystemIo::FileSystemIoBase::resetMemory() build/obj/FileSystemInputOutputBase.o
                                                  build/obj/main.o
amiro::fileSystemIo::FileSystemIoBase::setBoardId(unsigned char) build/obj/FileSystemInputOutputBase.o
                                                  build/obj/main.o
atoi                                              /homes/skollbach/Downloads/ASE/gcc-arm-embedded/gcc-arm-none-eabi-4_8-2014q1/bin/../lib/gcc/arm-none-eabi/4.8.3/../../../../arm-none-eabi/lib/armv7-m/libc.a(lib_a-atoi.o)
                                                  build/obj/main.o
boardClearI2CBus                                  build/obj/board.o
                                                  build/obj/main.o
boardInit                                         build/obj/board.o
                                                  build/obj/hal.o
boardPeripheryCheck(BaseSequentialStream*)        build/obj/main.o
boardRequestShutdown                              build/obj/board.o
boardStandby                                      build/obj/board.o
canInit                                           build/obj/can.o
                                                  build/obj/hal.o
canObjectInit                                     build/obj/can.o
                                                  build/obj/can_lld.o
canReceive                                        build/obj/can.o
                                                  build/obj/ControllerAreaNetworkRx.o
canSTM32SetFilters                                build/obj/can_lld.o
canSleep                                          build/obj/can.o
canStart                                          build/obj/can.o
                                                  build/obj/ControllerAreaNetworkRx.o
canStop                                           build/obj/can.o
                                                  build/obj/ControllerAreaNetworkRx.o
canTransmit                                       build/obj/can.o
                                                  build/obj/serial_can_mux.o
                                                  build/obj/ControllerAreaNetworkTx.o
canWakeup                                         build/obj/can.o
can_lld_init                                      build/obj/can_lld.o
                                                  build/obj/can.o
can_lld_is_rx_nonempty                            build/obj/can_lld.o
                                                  build/obj/can.o
can_lld_is_tx_empty                               build/obj/can_lld.o
                                                  build/obj/can.o
can_lld_receive                                   build/obj/can_lld.o
                                                  build/obj/can.o
can_lld_sleep                                     build/obj/can_lld.o
                                                  build/obj/can.o
can_lld_start                                     build/obj/can_lld.o
                                                  build/obj/can.o
can_lld_stop                                      build/obj/can_lld.o
                                                  build/obj/can.o
can_lld_transmit                                  build/obj/can_lld.o
                                                  build/obj/can.o
can_lld_wakeup                                    build/obj/can_lld.o
                                                  build/obj/can.o
chCondBroadcast                                   build/obj/chcond.o
                                                  build/obj/ch.o
chCondBroadcastI                                  build/obj/chcond.o
                                                  build/obj/ch.o
chCondInit                                        build/obj/chcond.o
                                                  build/obj/ch.o
chCondSignal                                      build/obj/chcond.o
                                                  build/obj/ch.o
chCondSignalI                                     build/obj/chcond.o
                                                  build/obj/ch.o
chCondWait                                        build/obj/chcond.o
                                                  build/obj/ch.o
chCondWaitS                                       build/obj/chcond.o
                                                  build/obj/ch.o
chCondWaitTimeout                                 build/obj/chcond.o
                                                  build/obj/ch.o
chCondWaitTimeoutS                                build/obj/chcond.o
chCoreAlloc                                       build/obj/chmemcore.o
                                                  build/obj/ch.o
                                                  build/obj/syscalls.o
                                                  build/obj/chheap.o
chCoreAllocI                                      build/obj/chmemcore.o
                                                  build/obj/ch.o
chCoreStatus                                      build/obj/chmemcore.o
                                                  build/obj/main.o
                                                  build/obj/ch.o
chDbgCheckClassI                                  build/obj/chdebug.o
                                                  build/obj/serial.o
                                                  build/obj/chmempools.o
                                                  build/obj/chmemcore.o
                                                  build/obj/chqueues.o
                                                  build/obj/chmboxes.o
                                                  build/obj/chevents.o
                                                  build/obj/chcond.o
                                                  build/obj/chsem.o
                                                  build/obj/chthreads.o
                                                  build/obj/chschd.o
                                                  build/obj/chvt.o
                                                  build/obj/chsys.o
chDbgCheckClassS                                  build/obj/chdebug.o
                                                  build/obj/chmboxes.o
                                                  build/obj/chcond.o
                                                  build/obj/chmtx.o
                                                  build/obj/chsem.o
                                                  build/obj/chschd.o
chDbgPanic                                        build/obj/chdebug.o
                                                  build/obj/LightRing.o
                                                  build/obj/ch.o
                                                  build/obj/syscalls.o
                                                  build/obj/spi_lld.o
                                                  build/obj/i2c_lld.o
                                                  build/obj/can_lld.o
                                                  build/obj/stm32_dma.o
                                                  build/obj/spi.o
                                                  build/obj/serial.o
                                                  build/obj/pal.o
                                                  build/obj/i2c.o
                                                  build/obj/ext.o
                                                  build/obj/can.o
                                                  build/obj/chmempools.o
                                                  build/obj/chheap.o
                                                  build/obj/chqueues.o
                                                  build/obj/chmboxes.o
                                                  build/obj/chmsg.o
                                                  build/obj/chevents.o
                                                  build/obj/chcond.o
                                                  build/obj/chmtx.o
                                                  build/obj/chsem.o
                                                  build/obj/chregistry.o
                                                  build/obj/chdynamic.o
                                                  build/obj/chthreads.o
                                                  build/obj/chschd.o
                                                  build/obj/chvt.o
chEvtAddEvents                                    build/obj/chevents.o
                                                  build/obj/ch.o
chEvtBroadcastFlags                               build/obj/chevents.o
                                                  build/obj/ch.o
chEvtBroadcastFlagsI                              build/obj/chevents.o
                                                  build/obj/ch.o
                                                  build/obj/shell.o
                                                  build/obj/evtimer.o
                                                  build/obj/serial_lld.o
                                                  build/obj/can_lld.o
                                                  build/obj/serial.o
                                                  build/obj/can.o
chEvtDispatch                                     build/obj/chevents.o
                                                  build/obj/ch.o
chEvtGetAndClearEvents                            build/obj/chevents.o
                                                  build/obj/ch.o
chEvtGetAndClearFlags                             build/obj/chevents.o
                                                  build/obj/ch.o
chEvtGetAndClearFlagsI                            build/obj/chevents.o
                                                  build/obj/ch.o
chEvtRegisterMask                                 build/obj/chevents.o
                                                  build/obj/ch.o
chEvtSignal                                       build/obj/chevents.o
                                                  build/obj/ch.o
chEvtSignalI                                      build/obj/chevents.o
                                                  build/obj/ch.o
chEvtUnregister                                   build/obj/chevents.o
                                                  build/obj/ch.o
chEvtWaitAll                                      build/obj/chevents.o
                                                  build/obj/ch.o
chEvtWaitAllTimeout                               build/obj/chevents.o
                                                  build/obj/ch.o
chEvtWaitAny                                      build/obj/chevents.o
                                                  build/obj/ch.o
chEvtWaitAnyTimeout                               build/obj/chevents.o
                                                  build/obj/ch.o
chEvtWaitOne                                      build/obj/chevents.o
                                                  build/obj/ch.o
chEvtWaitOneTimeout                               build/obj/chevents.o
                                                  build/obj/ch.o
chHeapAlloc                                       build/obj/chheap.o
                                                  build/obj/chdynamic.o
chHeapFree                                        build/obj/chheap.o
                                                  build/obj/chdynamic.o
chHeapInit                                        build/obj/chheap.o
chHeapStatus                                      build/obj/chheap.o
chIQGetTimeout                                    build/obj/chqueues.o
                                                  build/obj/serial_can_mux.o
                                                  build/obj/Lidar.o
                                                  build/obj/ch.o
                                                  build/obj/serial.o
chIQInit                                          build/obj/chqueues.o
                                                  build/obj/ch.o
                                                  build/obj/serial.o
chIQPutI                                          build/obj/chqueues.o
                                                  build/obj/ch.o
                                                  build/obj/serial.o
chIQReadTimeout                                   build/obj/chqueues.o
                                                  build/obj/serial_can_mux.o
                                                  build/obj/ch.o
                                                  build/obj/serial.o
chIQResetI                                        build/obj/chqueues.o
                                                  build/obj/Lidar.o
                                                  build/obj/ch.o
                                                  build/obj/serial.o
chMBFetch                                         build/obj/chmboxes.o
                                                  build/obj/ch.o
chMBFetchI                                        build/obj/chmboxes.o
                                                  build/obj/ch.o
chMBFetchS                                        build/obj/chmboxes.o
                                                  build/obj/ch.o
chMBInit                                          build/obj/chmboxes.o
                                                  build/obj/ch.o
chMBPost                                          build/obj/chmboxes.o
                                                  build/obj/ch.o
chMBPostAhead                                     build/obj/chmboxes.o
                                                  build/obj/ch.o
chMBPostAheadI                                    build/obj/chmboxes.o
                                                  build/obj/ch.o
chMBPostAheadS                                    build/obj/chmboxes.o
                                                  build/obj/ch.o
chMBPostI                                         build/obj/chmboxes.o
                                                  build/obj/ch.o
chMBPostS                                         build/obj/chmboxes.o
                                                  build/obj/ch.o
chMBReset                                         build/obj/chmboxes.o
                                                  build/obj/ch.o
chMsgRelease                                      build/obj/chmsg.o
                                                  build/obj/ch.o
chMsgSend                                         build/obj/chmsg.o
                                                  build/obj/ch.o
chMsgWait                                         build/obj/chmsg.o
                                                  build/obj/ch.o
chMtxInit                                         build/obj/chmtx.o
                                                  build/obj/eeprom.o
                                                  build/obj/ch.o
                                                  build/obj/spi.o
                                                  build/obj/i2c.o
                                                  build/obj/chheap.o
chMtxLock                                         build/obj/chmtx.o
                                                  build/obj/eeprom.o
                                                  build/obj/ch.o
                                                  build/obj/spi.o
                                                  build/obj/i2c.o
                                                  build/obj/chheap.o
chMtxLockS                                        build/obj/chmtx.o
                                                  build/obj/ch.o
                                                  build/obj/chcond.o
chMtxTryLock                                      build/obj/chmtx.o
                                                  build/obj/ch.o
chMtxTryLockS                                     build/obj/chmtx.o
                                                  build/obj/ch.o
chMtxUnlock                                       build/obj/chmtx.o
                                                  build/obj/eeprom.o
                                                  build/obj/ch.o
                                                  build/obj/spi.o
                                                  build/obj/i2c.o
                                                  build/obj/chheap.o
chMtxUnlockAll                                    build/obj/chmtx.o
                                                  build/obj/ch.o
chMtxUnlockS                                      build/obj/chmtx.o
                                                  build/obj/ch.o
                                                  build/obj/chcond.o
chOQGetI                                          build/obj/chqueues.o
                                                  build/obj/ch.o
                                                  build/obj/serial_lld.o
                                                  build/obj/serial.o
chOQInit                                          build/obj/chqueues.o
                                                  build/obj/ch.o
                                                  build/obj/serial.o
chOQPutTimeout                                    build/obj/chqueues.o
                                                  build/obj/serial_can_mux.o
                                                  build/obj/ch.o
                                                  build/obj/serial.o
chOQResetI                                        build/obj/chqueues.o
                                                  build/obj/ch.o
                                                  build/obj/serial.o
chOQWriteTimeout                                  build/obj/chqueues.o
                                                  build/obj/LightRing.o
                                                  build/obj/serial_can_mux.o
                                                  build/obj/ch.o
                                                  build/obj/serial.o
chPoolAlloc                                       build/obj/chmempools.o
                                                  build/obj/ch.o
                                                  build/obj/chdynamic.o
chPoolAllocI                                      build/obj/chmempools.o
                                                  build/obj/ch.o
chPoolFree                                        build/obj/chmempools.o
                                                  build/obj/ch.o
                                                  build/obj/chdynamic.o
chPoolFreeI                                       build/obj/chmempools.o
                                                  build/obj/ch.o
chPoolInit                                        build/obj/chmempools.o
                                                  build/obj/ch.o
chPoolLoadArray                                   build/obj/chmempools.o
                                                  build/obj/ch.o
chRegFirstThread                                  build/obj/chregistry.o
chRegNextThread                                   build/obj/chregistry.o
chSchDoReschedule                                 build/obj/chschd.o
                                                  build/obj/chcore_v7m.o
chSchDoRescheduleAhead                            build/obj/chschd.o
chSchDoRescheduleBehind                           build/obj/chschd.o
                                                  build/obj/chthreads.o
chSchGoSleepS                                     build/obj/chschd.o
                                                  build/obj/ch.o
                                                  build/obj/i2c_lld.o
                                                  build/obj/spi.o
                                                  build/obj/chmsg.o
                                                  build/obj/chevents.o
                                                  build/obj/chcond.o
                                                  build/obj/chmtx.o
                                                  build/obj/chsem.o
                                                  build/obj/chthreads.o
chSchGoSleepTimeoutS                              build/obj/chschd.o
                                                  build/obj/can_lld.o
                                                  build/obj/can.o
                                                  build/obj/chqueues.o
                                                  build/obj/chevents.o
                                                  build/obj/chcond.o
                                                  build/obj/chsem.o
                                                  build/obj/chthreads.o
chSchReadyI                                       build/obj/chschd.o
                                                  build/obj/ch.o
                                                  build/obj/spi_lld.o
                                                  build/obj/i2c_lld.o
                                                  build/obj/chqueues.o
                                                  build/obj/chmsg.o
                                                  build/obj/chevents.o
                                                  build/obj/chcond.o
                                                  build/obj/chmtx.o
                                                  build/obj/chsem.o
                                                  build/obj/chthreads.o
chSchRescheduleS                                  build/obj/chschd.o
                                                  build/obj/ch.o
                                                  build/obj/serial.o
                                                  build/obj/can.o
                                                  build/obj/chmboxes.o
                                                  build/obj/chevents.o
                                                  build/obj/chcond.o
                                                  build/obj/chmtx.o
                                                  build/obj/chsem.o
                                                  build/obj/chthreads.o
chSchWakeupS                                      build/obj/chschd.o
                                                  build/obj/ch.o
                                                  build/obj/chmsg.o
                                                  build/obj/chcond.o
                                                  build/obj/chmtx.o
                                                  build/obj/chsem.o
                                                  build/obj/chdynamic.o
                                                  build/obj/chthreads.o
chSemAddCounterI                                  build/obj/chsem.o
                                                  build/obj/ch.o
chSemInit                                         build/obj/chsem.o
                                                  build/obj/ch.o
                                                  build/obj/can.o
                                                  build/obj/chmboxes.o
chSemReset                                        build/obj/chsem.o
                                                  build/obj/ch.o
chSemResetI                                       build/obj/chsem.o
                                                  build/obj/ch.o
                                                  build/obj/can.o
                                                  build/obj/chmboxes.o
chSemSignal                                       build/obj/chsem.o
                                                  build/obj/ch.o
chSemSignalI                                      build/obj/chsem.o
                                                  build/obj/ch.o
                                                  build/obj/can_lld.o
                                                  build/obj/chmboxes.o
chSemSignalWait                                   build/obj/chsem.o
                                                  build/obj/ch.o
chSemWait                                         build/obj/chsem.o
                                                  build/obj/ch.o
chSemWaitS                                        build/obj/chsem.o
                                                  build/obj/ch.o
chSemWaitTimeout                                  build/obj/chsem.o
                                                  build/obj/ch.o
chSemWaitTimeoutS                                 build/obj/chsem.o
                                                  build/obj/ch.o
                                                  build/obj/can.o
                                                  build/obj/chmboxes.o
chSysInit                                         build/obj/chsys.o
                                                  build/obj/ch.o
chSysTimerHandlerI                                build/obj/chsys.o
                                                  build/obj/chcore_v7m.o
chThdAddRef                                       build/obj/chdynamic.o
chThdCreateFromHeap                               build/obj/chdynamic.o
                                                  build/obj/shell.o
chThdCreateFromMemoryPool                         build/obj/chdynamic.o
chThdCreateI                                      build/obj/chthreads.o
                                                  build/obj/chdynamic.o
chThdCreateStatic                                 build/obj/chthreads.o
                                                  build/obj/main.o
                                                  build/obj/userthread.o
                                                  build/obj/LightRing.o
                                                  build/obj/Lidar.o
                                                  build/obj/ControllerAreaNetworkTx.o
                                                  build/obj/ControllerAreaNetworkRx.o
                                                  build/obj/a2500r24a.o
                                                  build/obj/tlc5947.o
                                                  build/obj/shell.o
                                                  build/obj/chsys.o
chThdExit                                         build/obj/chthreads.o
                                                  build/obj/ch.o
                                                  build/obj/chcore_v7m.o
chThdExitS                                        build/obj/chthreads.o
                                                  build/obj/ch.o
                                                  build/obj/shell.o
chThdRelease                                      build/obj/chdynamic.o
                                                  build/obj/main.o
                                                  build/obj/chregistry.o
                                                  build/obj/chthreads.o
chThdResume                                       build/obj/chthreads.o
chThdSetPriority                                  build/obj/chthreads.o
                                                  build/obj/ch.o
chThdSleep                                        build/obj/chthreads.o
                                                  build/obj/serial_can_mux.o
                                                  build/obj/at24.o
                                                  build/obj/ch.o
                                                  build/obj/board.o
chThdSleepUntil                                   build/obj/chthreads.o
                                                  build/obj/ch.o
chThdTerminate                                    build/obj/chthreads.o
                                                  build/obj/ch.o
chThdWait                                         build/obj/chthreads.o
                                                  build/obj/ch.o
chThdYield                                        build/obj/chthreads.o
                                                  build/obj/ch.o
chVTResetI                                        build/obj/chvt.o
                                                  build/obj/ch.o
                                                  build/obj/evtimer.o
                                                  build/obj/i2c_lld.o
                                                  build/obj/chschd.o
chVTSetI                                          build/obj/chvt.o
                                                  build/obj/ch.o
                                                  build/obj/evtimer.o
                                                  build/obj/i2c_lld.o
                                                  build/obj/chschd.o
ch_debug                                          build/obj/chregistry.o
                                                  build/obj/chsys.o
chibios_rt::BaseStaticThread<1024>::start(unsigned long) build/obj/userthread.o
chibios_rt::BaseStaticThread<128>::start(unsigned long) build/obj/ControllerAreaNetworkRx.o
                                                  build/obj/ControllerAreaNetworkTx.o
chibios_rt::BaseStaticThread<192>::start(unsigned long) build/obj/tlc5947.o
chibios_rt::BaseStaticThread<256>::start(unsigned long) build/obj/a2500r24a.o
                                                  build/obj/Lidar.o
chibios_rt::BaseThread::BaseThread()              build/obj/ch.o
                                                  build/obj/userthread.o
                                                  build/obj/Lidar.o
                                                  build/obj/ControllerAreaNetworkTx.o
                                                  build/obj/ControllerAreaNetworkRx.o
                                                  build/obj/a2500r24a.o
                                                  build/obj/tlc5947.o
chibios_rt::BaseThread::BaseThread()              build/obj/ch.o
chibios_rt::BaseThread::addEvents(unsigned long)  build/obj/ch.o
chibios_rt::BaseThread::dispatchEvents(void (* const*)(long), unsigned long) build/obj/ch.o
chibios_rt::BaseThread::exit(long)                build/obj/ch.o
chibios_rt::BaseThread::exitS(long)               build/obj/ch.o
chibios_rt::BaseThread::getAndClearEvents(unsigned long) build/obj/ch.o
chibios_rt::BaseThread::main()                    build/obj/ch.o
                                                  build/obj/userthread.o
                                                  build/obj/Lidar.o
                                                  build/obj/ControllerAreaNetworkTx.o
                                                  build/obj/ControllerAreaNetworkRx.o
                                                  build/obj/a2500r24a.o
                                                  build/obj/tlc5947.o
chibios_rt::BaseThread::setName(char const*)      build/obj/ch.o
                                                  build/obj/Lidar.o
                                                  build/obj/ControllerAreaNetworkTx.o
                                                  build/obj/ControllerAreaNetworkRx.o
                                                  build/obj/tlc5947.o
chibios_rt::BaseThread::setPriority(unsigned long) build/obj/ch.o
chibios_rt::BaseThread::shouldTerminate()         build/obj/ch.o
                                                  build/obj/userthread.o
                                                  build/obj/Lidar.o
                                                  build/obj/ControllerAreaNetworkTx.o
                                                  build/obj/ControllerAreaNetworkRx.o
                                                  build/obj/a2500r24a.o
                                                  build/obj/tlc5947.o
chibios_rt::BaseThread::sleep(unsigned long)      build/obj/ch.o
                                                  build/obj/main.o
                                                  build/obj/userthread.o
                                                  build/obj/serial_can_mux.o
                                                  build/obj/Lidar.o
                                                  build/obj/ControllerAreaNetworkTx.o
chibios_rt::BaseThread::sleepUntil(unsigned long) build/obj/ch.o
chibios_rt::BaseThread::start(unsigned long)      build/obj/ch.o
chibios_rt::BaseThread::unlockAllMutexes()        build/obj/ch.o
chibios_rt::BaseThread::unlockMutex()             build/obj/ch.o
chibios_rt::BaseThread::unlockMutexS()            build/obj/ch.o
chibios_rt::BaseThread::waitAllEvents(unsigned long) build/obj/ch.o
chibios_rt::BaseThread::waitAllEventsTimeout(unsigned long, unsigned long) build/obj/ch.o
chibios_rt::BaseThread::waitAnyEvent(unsigned long) build/obj/ch.o
                                                  build/obj/tlc5947.o
chibios_rt::BaseThread::waitAnyEventTimeout(unsigned long, unsigned long) build/obj/ch.o
                                                  build/obj/a2500r24a.o
chibios_rt::BaseThread::waitMessage()             build/obj/ch.o
chibios_rt::BaseThread::waitOneEvent(unsigned long) build/obj/ch.o
                                                  build/obj/Lidar.o
                                                  build/obj/ControllerAreaNetworkTx.o
chibios_rt::BaseThread::waitOneEventTimeout(unsigned long, unsigned long) build/obj/ch.o
                                                  build/obj/ControllerAreaNetworkRx.o
chibios_rt::BaseThread::yield()                   build/obj/ch.o
chibios_rt::BinarySemaphore::BinarySemaphore(bool) build/obj/ch.o
chibios_rt::BinarySemaphore::BinarySemaphore(bool) build/obj/ch.o
chibios_rt::BinarySemaphore::getStateI()          build/obj/ch.o
chibios_rt::BinarySemaphore::reset(bool)          build/obj/ch.o
chibios_rt::BinarySemaphore::resetI(bool)         build/obj/ch.o
chibios_rt::BinarySemaphore::signal()             build/obj/ch.o
chibios_rt::BinarySemaphore::signalI()            build/obj/ch.o
chibios_rt::BinarySemaphore::wait()               build/obj/ch.o
chibios_rt::BinarySemaphore::waitS()              build/obj/ch.o
chibios_rt::BinarySemaphore::waitTimeout(unsigned long) build/obj/ch.o
chibios_rt::BinarySemaphore::waitTimeoutS(unsigned long) build/obj/ch.o
chibios_rt::CondVar::CondVar()                    build/obj/ch.o
chibios_rt::CondVar::CondVar()                    build/obj/ch.o
chibios_rt::CondVar::broadcast()                  build/obj/ch.o
chibios_rt::CondVar::broadcastI()                 build/obj/ch.o
chibios_rt::CondVar::signal()                     build/obj/ch.o
chibios_rt::CondVar::signalI()                    build/obj/ch.o
chibios_rt::CondVar::wait()                       build/obj/ch.o
chibios_rt::CondVar::waitS()                      build/obj/ch.o
chibios_rt::CondVar::waitTimeout(unsigned long)   build/obj/ch.o
chibios_rt::Core::alloc(unsigned int)             build/obj/ch.o
chibios_rt::Core::allocI(unsigned int)            build/obj/ch.o
chibios_rt::Core::getStatus()                     build/obj/ch.o
chibios_rt::CounterSemaphore::CounterSemaphore(long) build/obj/ch.o
chibios_rt::CounterSemaphore::CounterSemaphore(long) build/obj/ch.o
chibios_rt::CounterSemaphore::addCounterI(long)   build/obj/ch.o
chibios_rt::CounterSemaphore::getCounterI()       build/obj/ch.o
chibios_rt::CounterSemaphore::reset(long)         build/obj/ch.o
chibios_rt::CounterSemaphore::resetI(long)        build/obj/ch.o
chibios_rt::CounterSemaphore::signal()            build/obj/ch.o
chibios_rt::CounterSemaphore::signalI()           build/obj/ch.o
chibios_rt::CounterSemaphore::signalWait(chibios_rt::CounterSemaphore*, chibios_rt::CounterSemaphore*) build/obj/ch.o
chibios_rt::CounterSemaphore::wait()              build/obj/ch.o
chibios_rt::CounterSemaphore::waitS()             build/obj/ch.o
chibios_rt::CounterSemaphore::waitTimeout(unsigned long) build/obj/ch.o
chibios_rt::CounterSemaphore::waitTimeoutS(unsigned long) build/obj/ch.o
chibios_rt::EvtListener::getAndClearFlags()       build/obj/ch.o
chibios_rt::EvtListener::getAndClearFlagsI()      build/obj/ch.o
chibios_rt::EvtSource::EvtSource()                build/obj/ch.o
                                                  build/obj/a2500r24a.o
chibios_rt::EvtSource::EvtSource()                build/obj/ch.o
chibios_rt::EvtSource::broadcastFlags(unsigned long) build/obj/ch.o
                                                  build/obj/a2500r24a.o
chibios_rt::EvtSource::broadcastFlagsI(unsigned long) build/obj/ch.o
chibios_rt::EvtSource::registerMask(chibios_rt::EvtListener*, unsigned long) build/obj/ch.o
chibios_rt::EvtSource::registerOne(chibios_rt::EvtListener*, long) build/obj/ch.o
                                                  build/obj/Lidar.o
                                                  build/obj/ControllerAreaNetworkTx.o
                                                  build/obj/ControllerAreaNetworkRx.o
chibios_rt::EvtSource::unregister(chibios_rt::EvtListener*) build/obj/ch.o
                                                  build/obj/Lidar.o
                                                  build/obj/ControllerAreaNetworkTx.o
                                                  build/obj/ControllerAreaNetworkRx.o
chibios_rt::InQueue::InQueue(unsigned char*, unsigned int, void (*)(GenericQueue*), void*) build/obj/ch.o
chibios_rt::InQueue::InQueue(unsigned char*, unsigned int, void (*)(GenericQueue*), void*) build/obj/ch.o
chibios_rt::InQueue::get()                        build/obj/ch.o
chibios_rt::InQueue::getEmptyI()                  build/obj/ch.o
chibios_rt::InQueue::getFullI()                   build/obj/ch.o
chibios_rt::InQueue::getTimeout(unsigned long)    build/obj/ch.o
chibios_rt::InQueue::isEmptyI()                   build/obj/ch.o
chibios_rt::InQueue::isFullI()                    build/obj/ch.o
chibios_rt::InQueue::putI(unsigned char)          build/obj/ch.o
chibios_rt::InQueue::readTimeout(unsigned char*, unsigned int, unsigned long) build/obj/ch.o
chibios_rt::InQueue::resetI()                     build/obj/ch.o
chibios_rt::Mailbox::Mailbox(long*, long)         build/obj/ch.o
chibios_rt::Mailbox::Mailbox(long*, long)         build/obj/ch.o
chibios_rt::Mailbox::fetch(long*, unsigned long)  build/obj/ch.o
chibios_rt::Mailbox::fetchI(long*)                build/obj/ch.o
chibios_rt::Mailbox::fetchS(long*, unsigned long) build/obj/ch.o
chibios_rt::Mailbox::getFreeCountI()              build/obj/ch.o
chibios_rt::Mailbox::getUsedCountI()              build/obj/ch.o
chibios_rt::Mailbox::post(long, unsigned long)    build/obj/ch.o
chibios_rt::Mailbox::postAhead(long, unsigned long) build/obj/ch.o
chibios_rt::Mailbox::postAheadI(long)             build/obj/ch.o
chibios_rt::Mailbox::postAheadS(long, unsigned long) build/obj/ch.o
chibios_rt::Mailbox::postI(long)                  build/obj/ch.o
chibios_rt::Mailbox::postS(long, unsigned long)   build/obj/ch.o
chibios_rt::Mailbox::reset()                      build/obj/ch.o
chibios_rt::MemoryPool::MemoryPool(unsigned int, void* (*)(unsigned int)) build/obj/ch.o
chibios_rt::MemoryPool::MemoryPool(unsigned int, void* (*)(unsigned int)) build/obj/ch.o
chibios_rt::MemoryPool::MemoryPool(unsigned int, void* (*)(unsigned int), void*, unsigned int) build/obj/ch.o
chibios_rt::MemoryPool::MemoryPool(unsigned int, void* (*)(unsigned int), void*, unsigned int) build/obj/ch.o
chibios_rt::MemoryPool::alloc()                   build/obj/ch.o
chibios_rt::MemoryPool::allocI()                  build/obj/ch.o
chibios_rt::MemoryPool::free(void*)               build/obj/ch.o
chibios_rt::MemoryPool::freeI(void*)              build/obj/ch.o
chibios_rt::MemoryPool::loadArray(void*, unsigned int) build/obj/ch.o
chibios_rt::Mutex::Mutex()                        build/obj/ch.o
chibios_rt::Mutex::Mutex()                        build/obj/ch.o
chibios_rt::Mutex::lock()                         build/obj/ch.o
chibios_rt::Mutex::lockS()                        build/obj/ch.o
chibios_rt::Mutex::tryLock()                      build/obj/ch.o
chibios_rt::Mutex::tryLockS()                     build/obj/ch.o
chibios_rt::OutQueue::OutQueue(unsigned char*, unsigned int, void (*)(GenericQueue*), void*) build/obj/ch.o
chibios_rt::OutQueue::OutQueue(unsigned char*, unsigned int, void (*)(GenericQueue*), void*) build/obj/ch.o
chibios_rt::OutQueue::getEmptyI()                 build/obj/ch.o
chibios_rt::OutQueue::getFullI()                  build/obj/ch.o
chibios_rt::OutQueue::getI()                      build/obj/ch.o
chibios_rt::OutQueue::isEmptyI()                  build/obj/ch.o
chibios_rt::OutQueue::isFullI()                   build/obj/ch.o
chibios_rt::OutQueue::put(unsigned char)          build/obj/ch.o
chibios_rt::OutQueue::putTimeout(unsigned char, unsigned long) build/obj/ch.o
chibios_rt::OutQueue::resetI()                    build/obj/ch.o
chibios_rt::OutQueue::writeTimeout(unsigned char const*, unsigned int, unsigned long) build/obj/ch.o
chibios_rt::System::getTime()                     build/obj/ch.o
chibios_rt::System::init()                        build/obj/ch.o
                                                  build/obj/main.o
chibios_rt::System::isTimeWithin(unsigned long, unsigned long) build/obj/ch.o
chibios_rt::System::lock()                        build/obj/ch.o
chibios_rt::System::lockFromIsr()                 build/obj/ch.o
chibios_rt::System::unlock()                      build/obj/ch.o
chibios_rt::System::unlockFromIsr()               build/obj/ch.o
chibios_rt::ThreadReference::getMessage()         build/obj/ch.o
chibios_rt::ThreadReference::isPendingMessage()   build/obj/ch.o
chibios_rt::ThreadReference::releaseMessage(long) build/obj/ch.o
chibios_rt::ThreadReference::requestTerminate()   build/obj/ch.o
                                                  build/obj/main.o
                                                  build/obj/LightRing.o
chibios_rt::ThreadReference::resume(long)         build/obj/ch.o
chibios_rt::ThreadReference::resumeI(long)        build/obj/ch.o
chibios_rt::ThreadReference::sendMessage(long)    build/obj/ch.o
chibios_rt::ThreadReference::signalEvents(unsigned long) build/obj/ch.o
                                                  build/obj/tlc5947.o
chibios_rt::ThreadReference::signalEventsI(unsigned long) build/obj/ch.o
chibios_rt::ThreadReference::stop()               build/obj/ch.o
                                                  build/obj/userthread.o
                                                  build/obj/LightRing.o
                                                  build/obj/Lidar.o
                                                  build/obj/ControllerAreaNetworkTx.o
                                                  build/obj/ControllerAreaNetworkRx.o
                                                  build/obj/a2500r24a.o
                                                  build/obj/tlc5947.o
chibios_rt::ThreadReference::suspend()            build/obj/ch.o
chibios_rt::ThreadReference::suspendS()           build/obj/ch.o
chibios_rt::ThreadReference::wait()               build/obj/ch.o
                                                  build/obj/main.o
                                                  build/obj/LightRing.o
chibios_rt::Timer::isArmedI()                     build/obj/ch.o
chibios_rt::Timer::resetI()                       build/obj/ch.o
chibios_rt::Timer::setI(unsigned long, void (*)(void*), void*) build/obj/ch.o
chibios_rt::_thd_start(void*)                     build/obj/ch.o
                                                  build/obj/main.o
                                                  build/obj/userthread.o
                                                  build/obj/LightRing.o
                                                  build/obj/Lidar.o
                                                  build/obj/ControllerAreaNetworkTx.o
                                                  build/obj/ControllerAreaNetworkRx.o
                                                  build/obj/a2500r24a.o
                                                  build/obj/tlc5947.o
chsnprintf                                        build/obj/chprintf.o
chvprintf                                         build/obj/chprintf.o
                                                  build/obj/main.o
                                                  build/obj/serial_can_mux.o
                                                  build/obj/Lidar.o
                                                  build/obj/shell.o
cleanup_glue                                      /homes/skollbach/Downloads/ASE/gcc-arm-embedded/gcc-arm-none-eabi-4_8-2014q1/bin/../lib/gcc/arm-none-eabi/4.8.3/../../../../arm-none-eabi/lib/armv7-m/libc.a(lib_a-reent.o)
dbg_check_disable                                 build/obj/chdebug.o
dbg_check_enable                                  build/obj/chdebug.o
                                                  build/obj/chsys.o
dbg_check_enter_isr                               build/obj/chdebug.o
                                                  build/obj/serial_lld.o
                                                  build/obj/i2c_lld.o
                                                  build/obj/can_lld.o
                                                  build/obj/ext_lld_isr.o
                                                  build/obj/stm32_dma.o
                                                  build/obj/chcore_v7m.o
dbg_check_leave_isr                               build/obj/chdebug.o
                                                  build/obj/serial_lld.o
                                                  build/obj/i2c_lld.o
                                                  build/obj/can_lld.o
                                                  build/obj/ext_lld_isr.o
                                                  build/obj/stm32_dma.o
                                                  build/obj/chcore_v7m.o
dbg_check_lock                                    build/obj/chdebug.o
                                                  build/obj/serial_can_mux.o
                                                  build/obj/Lidar.o
                                                  build/obj/ch.o
                                                  build/obj/shell.o
                                                  build/obj/evtimer.o
                                                  build/obj/board.o
                                                  build/obj/i2c_lld.o
                                                  build/obj/spi.o
                                                  build/obj/serial.o
                                                  build/obj/i2c.o
                                                  build/obj/ext.o
                                                  build/obj/can.o
                                                  build/obj/chmempools.o
                                                  build/obj/chmemcore.o
                                                  build/obj/chqueues.o
                                                  build/obj/chmboxes.o
                                                  build/obj/chmsg.o
                                                  build/obj/chevents.o
                                                  build/obj/chcond.o
                                                  build/obj/chmtx.o
                                                  build/obj/chsem.o
                                                  build/obj/chregistry.o
                                                  build/obj/chdynamic.o
                                                  build/obj/chthreads.o
                                                  build/obj/chcore_v7m.o
dbg_check_lock_from_isr                           build/obj/chdebug.o
                                                  build/obj/ch.o
                                                  build/obj/evtimer.o
                                                  build/obj/serial_lld.o
                                                  build/obj/spi_lld.o
                                                  build/obj/i2c_lld.o
                                                  build/obj/can_lld.o
                                                  build/obj/chschd.o
                                                  build/obj/chsys.o
                                                  build/obj/chcore_v7m.o
dbg_check_suspend                                 build/obj/chdebug.o
dbg_check_unlock                                  build/obj/chdebug.o
                                                  build/obj/serial_can_mux.o
                                                  build/obj/Lidar.o
                                                  build/obj/ch.o
                                                  build/obj/evtimer.o
                                                  build/obj/i2c_lld.o
                                                  build/obj/spi.o
                                                  build/obj/serial.o
                                                  build/obj/i2c.o
                                                  build/obj/ext.o
                                                  build/obj/can.o
                                                  build/obj/chmempools.o
                                                  build/obj/chmemcore.o
                                                  build/obj/chqueues.o
                                                  build/obj/chmboxes.o
                                                  build/obj/chmsg.o
                                                  build/obj/chevents.o
                                                  build/obj/chcond.o
                                                  build/obj/chmtx.o
                                                  build/obj/chsem.o
                                                  build/obj/chregistry.o
                                                  build/obj/chdynamic.o
                                                  build/obj/chthreads.o
                                                  build/obj/chcore_v7m.o
dbg_check_unlock_from_isr                         build/obj/chdebug.o
                                                  build/obj/ch.o
                                                  build/obj/evtimer.o
                                                  build/obj/serial_lld.o
                                                  build/obj/spi_lld.o
                                                  build/obj/i2c_lld.o
                                                  build/obj/can_lld.o
                                                  build/obj/chschd.o
                                                  build/obj/chsys.o
                                                  build/obj/chcore_v7m.o
dbg_isr_cnt                                       build/obj/chdebug.o
dbg_lock_cnt                                      build/obj/chdebug.o
dbg_panic_msg                                     build/obj/chdebug.o
                                                  build/obj/Debug.o
dbg_trace                                         build/obj/chdebug.o
                                                  build/obj/chschd.o
dbg_trace_buffer                                  build/obj/chdebug.o
dmaInit                                           build/obj/stm32_dma.o
                                                  build/obj/hal_lld.o
dmaStreamAllocate                                 build/obj/stm32_dma.o
                                                  build/obj/spi_lld.o
dmaStreamRelease                                  build/obj/stm32_dma.o
                                                  build/obj/spi_lld.o
errno                                             /homes/skollbach/Downloads/ASE/gcc-arm-embedded/gcc-arm-none-eabi-4_8-2014q1/bin/../lib/gcc/arm-none-eabi/4.8.3/../../../../arm-none-eabi/lib/armv7-m/libc.a(lib_a-signalr.o)
                                                  /homes/skollbach/Downloads/ASE/gcc-arm-embedded/gcc-arm-none-eabi-4_8-2014q1/bin/../lib/gcc/arm-none-eabi/4.8.3/../../../../arm-none-eabi/lib/armv7-m/libc.a(lib_a-reent.o)
                                                  build/obj/stubs.o
evtStart                                          build/obj/evtimer.o
                                                  build/obj/Lidar.o
                                                  build/obj/ControllerAreaNetworkTx.o
evtStop                                           build/obj/evtimer.o
                                                  build/obj/Lidar.o
                                                  build/obj/ControllerAreaNetworkTx.o
extChannelDisable                                 build/obj/ext.o
extChannelEnable                                  build/obj/ext.o
extInit                                           build/obj/ext.o
                                                  build/obj/hal.o
extObjectInit                                     build/obj/ext.o
                                                  build/obj/ext_lld.o
extSetChannelModeI                                build/obj/ext.o
extStart                                          build/obj/ext.o
                                                  build/obj/main.o
extStop                                           build/obj/ext.o
ext_lld_channel_disable                           build/obj/ext_lld.o
                                                  build/obj/ext.o
ext_lld_channel_enable                            build/obj/ext_lld.o
                                                  build/obj/ext.o
ext_lld_exti_irq_disable                          build/obj/ext_lld_isr.o
                                                  build/obj/ext_lld.o
ext_lld_exti_irq_enable                           build/obj/ext_lld_isr.o
                                                  build/obj/ext_lld.o
ext_lld_init                                      build/obj/ext_lld.o
                                                  build/obj/ext.o
ext_lld_start                                     build/obj/ext_lld.o
                                                  build/obj/ext.o
ext_lld_stop                                      build/obj/ext_lld.o
                                                  build/obj/ext.o
extcfg                                            build/obj/exti.o
                                                  build/obj/main.o
fclose                                            /homes/skollbach/Downloads/ASE/gcc-arm-embedded/gcc-arm-none-eabi-4_8-2014q1/bin/../lib/gcc/arm-none-eabi/4.8.3/../../../../arm-none-eabi/lib/armv7-m/libc.a(lib_a-fclose.o)
                                                  /homes/skollbach/Downloads/ASE/gcc-arm-embedded/gcc-arm-none-eabi-4_8-2014q1/bin/../lib/gcc/arm-none-eabi/4.8.3/../../../../arm-none-eabi/lib/armv7-m/libc.a(lib_a-findfp.o)
fflush                                            /homes/skollbach/Downloads/ASE/gcc-arm-embedded/gcc-arm-none-eabi-4_8-2014q1/bin/../lib/gcc/arm-none-eabi/4.8.3/../../../../arm-none-eabi/lib/armv7-m/libc.a(lib_a-fflush.o)
fputc                                             /homes/skollbach/Downloads/ASE/gcc-arm-embedded/gcc-arm-none-eabi-4_8-2014q1/bin/../lib/gcc/arm-none-eabi/4.8.3/../../../../arm-none-eabi/lib/armv7-m/libc.a(lib_a-fputc.o)
                                                  /homes/skollbach/Downloads/ASE/gcc-arm-embedded/gcc-arm-none-eabi-4_8-2014q1/bin/../lib/gcc/arm-none-eabi/4.8.3/../../../../arm-none-eabi/lib/armv7-m/libstdc++.a(vterminate.o)
fputs                                             /homes/skollbach/Downloads/ASE/gcc-arm-embedded/gcc-arm-none-eabi-4_8-2014q1/bin/../lib/gcc/arm-none-eabi/4.8.3/../../../../arm-none-eabi/lib/armv7-m/libc.a(lib_a-fputs.o)
                                                  /homes/skollbach/Downloads/ASE/gcc-arm-embedded/gcc-arm-none-eabi-4_8-2014q1/bin/../lib/gcc/arm-none-eabi/4.8.3/../../../../arm-none-eabi/lib/armv7-m/libstdc++.a(vterminate.o)
free                                              /homes/skollbach/Downloads/ASE/gcc-arm-embedded/gcc-arm-none-eabi-4_8-2014q1/bin/../lib/gcc/arm-none-eabi/4.8.3/../../../../arm-none-eabi/lib/armv7-m/libc.a(lib_a-malloc.o)
                                                  /homes/skollbach/Downloads/ASE/gcc-arm-embedded/gcc-arm-none-eabi-4_8-2014q1/bin/../lib/gcc/arm-none-eabi/4.8.3/../../../../arm-none-eabi/lib/armv7-m/libstdc++.a(cp-demangle.o)
                                                  /homes/skollbach/Downloads/ASE/gcc-arm-embedded/gcc-arm-none-eabi-4_8-2014q1/bin/../lib/gcc/arm-none-eabi/4.8.3/../../../../arm-none-eabi/lib/armv7-m/libstdc++.a(eh_alloc.o)
                                                  /homes/skollbach/Downloads/ASE/gcc-arm-embedded/gcc-arm-none-eabi-4_8-2014q1/bin/../lib/gcc/arm-none-eabi/4.8.3/../../../../arm-none-eabi/lib/armv7-m/libstdc++.a(vterminate.o)
                                                  /homes/skollbach/Downloads/ASE/gcc-arm-embedded/gcc-arm-none-eabi-4_8-2014q1/bin/../lib/gcc/arm-none-eabi/4.8.3/../../../../arm-none-eabi/lib/armv7-m/libstdc++.a(del_op.o)
fwrite                                            /homes/skollbach/Downloads/ASE/gcc-arm-embedded/gcc-arm-none-eabi-4_8-2014q1/bin/../lib/gcc/arm-none-eabi/4.8.3/../../../../arm-none-eabi/lib/armv7-m/libc.a(lib_a-fwrite.o)
                                                  /homes/skollbach/Downloads/ASE/gcc-arm-embedded/gcc-arm-none-eabi-4_8-2014q1/bin/../lib/gcc/arm-none-eabi/4.8.3/../../../../arm-none-eabi/lib/armv7-m/libstdc++.a(vterminate.o)
global                                            build/obj/main.o
                                                  build/obj/LightRing.o
                                                  build/obj/Lidar.o
halInit                                           build/obj/hal.o
                                                  build/obj/main.o
halIsCounterWithin                                build/obj/hal.o
halPolledDelay                                    build/obj/hal.o
hal_lld_init                                      build/obj/hal_lld.o
                                                  build/obj/hal.o
haltErrorCode                                     build/obj/Debug.o
                                                  build/obj/spi_lld.o
                                                  build/obj/chdebug.o
i2cAcquireBus                                     build/obj/i2c.o
                                                  build/obj/HWI2CDriver.o
i2cGetErrors                                      build/obj/i2c.o
                                                  build/obj/HWI2CDriver.o
i2cInit                                           build/obj/i2c.o
                                                  build/obj/hal.o
i2cMasterReceiveTimeout                           build/obj/i2c.o
                                                  build/obj/HWI2CDriver.o
i2cMasterTransmitTimeout                          build/obj/i2c.o
                                                  build/obj/HWI2CDriver.o
i2cObjectInit                                     build/obj/i2c.o
                                                  build/obj/i2c_lld.o
i2cReleaseBus                                     build/obj/i2c.o
                                                  build/obj/HWI2CDriver.o
i2cStart                                          build/obj/i2c.o
                                                  build/obj/HWI2CDriver.o
i2cStop                                           build/obj/i2c.o
                                                  build/obj/HWI2CDriver.o
i2c_lld_init                                      build/obj/i2c_lld.o
                                                  build/obj/i2c.o
i2c_lld_master_receive_timeout                    build/obj/i2c_lld.o
                                                  build/obj/i2c.o
i2c_lld_master_transmit_timeout                   build/obj/i2c_lld.o
                                                  build/obj/i2c.o
i2c_lld_start                                     build/obj/i2c_lld.o
                                                  build/obj/i2c.o
i2c_lld_stop                                      build/obj/i2c_lld.o
                                                  build/obj/i2c.o
localeconv                                        /homes/skollbach/Downloads/ASE/gcc-arm-embedded/gcc-arm-none-eabi-4_8-2014q1/bin/../lib/gcc/arm-none-eabi/4.8.3/../../../../arm-none-eabi/lib/armv7-m/libc.a(lib_a-locale.o)
main                                              build/obj/main.o
                                                  build/obj/crt0.o
malloc                                            /homes/skollbach/Downloads/ASE/gcc-arm-embedded/gcc-arm-none-eabi-4_8-2014q1/bin/../lib/gcc/arm-none-eabi/4.8.3/../../../../arm-none-eabi/lib/armv7-m/libc.a(lib_a-malloc.o)
                                                  /homes/skollbach/Downloads/ASE/gcc-arm-embedded/gcc-arm-none-eabi-4_8-2014q1/bin/../lib/gcc/arm-none-eabi/4.8.3/../../../../arm-none-eabi/lib/armv7-m/libc.a(lib_a-__atexit.o)
                                                  /homes/skollbach/Downloads/ASE/gcc-arm-embedded/gcc-arm-none-eabi-4_8-2014q1/bin/../lib/gcc/arm-none-eabi/4.8.3/../../../../arm-none-eabi/lib/armv7-m/libstdc++.a(eh_alloc.o)
memchr                                            /homes/skollbach/Downloads/ASE/gcc-arm-embedded/gcc-arm-none-eabi-4_8-2014q1/bin/../lib/gcc/arm-none-eabi/4.8.3/../../../../arm-none-eabi/lib/armv7-m/libc.a(lib_a-memchr-stub.o)
                                                  /homes/skollbach/Downloads/ASE/gcc-arm-embedded/gcc-arm-none-eabi-4_8-2014q1/bin/../lib/gcc/arm-none-eabi/4.8.3/../../../../arm-none-eabi/lib/armv7-m/libc.a(lib_a-svfiprintf.o)
                                                  /homes/skollbach/Downloads/ASE/gcc-arm-embedded/gcc-arm-none-eabi-4_8-2014q1/bin/../lib/gcc/arm-none-eabi/4.8.3/../../../../arm-none-eabi/lib/armv7-m/libc.a(lib_a-svfprintf.o)
                                                  /homes/skollbach/Downloads/ASE/gcc-arm-embedded/gcc-arm-none-eabi-4_8-2014q1/bin/../lib/gcc/arm-none-eabi/4.8.3/../../../../arm-none-eabi/lib/armv7-m/libc.a(lib_a-fvwrite.o)
memcmp                                            /homes/skollbach/Downloads/ASE/gcc-arm-embedded/gcc-arm-none-eabi-4_8-2014q1/bin/../lib/gcc/arm-none-eabi/4.8.3/../../../../arm-none-eabi/lib/armv7-m/libc.a(lib_a-memcmp.o)
                                                  /homes/skollbach/Downloads/ASE/gcc-arm-embedded/gcc-arm-none-eabi-4_8-2014q1/bin/../lib/gcc/arm-none-eabi/4.8.3/../../../../arm-none-eabi/lib/armv7-m/libstdc++.a(cp-demangle.o)
memcpy                                            /homes/skollbach/Downloads/ASE/gcc-arm-embedded/gcc-arm-none-eabi-4_8-2014q1/bin/../lib/gcc/arm-none-eabi/4.8.3/../../../../arm-none-eabi/lib/armv7-m/libc.a(lib_a-memcpy.o)
                                                  /homes/skollbach/Downloads/ASE/gcc-arm-embedded/gcc-arm-none-eabi-4_8-2014q1/bin/../lib/gcc/arm-none-eabi/4.8.3/../../../../arm-none-eabi/lib/armv7-m/libc.a(lib_a-svfiprintf.o)
                                                  /homes/skollbach/Downloads/ASE/gcc-arm-embedded/gcc-arm-none-eabi-4_8-2014q1/bin/../lib/gcc/arm-none-eabi/4.8.3/../../../../arm-none-eabi/lib/armv7-m/libc.a(lib_a-mprec.o)
                                                  /homes/skollbach/Downloads/ASE/gcc-arm-embedded/gcc-arm-none-eabi-4_8-2014q1/bin/../lib/gcc/arm-none-eabi/4.8.3/../../../../arm-none-eabi/lib/armv7-m/libc.a(lib_a-dtoa.o)
                                                  /homes/skollbach/Downloads/ASE/gcc-arm-embedded/gcc-arm-none-eabi-4_8-2014q1/bin/../lib/gcc/arm-none-eabi/4.8.3/../../../../arm-none-eabi/lib/armv7-m/libc.a(lib_a-fvwrite.o)
                                                  /homes/skollbach/Downloads/ASE/gcc-arm-embedded/gcc-arm-none-eabi-4_8-2014q1/bin/../lib/gcc/arm-none-eabi/4.8.3/armv7-m/libgcc.a(unwind-arm.o)
                                                  /homes/skollbach/Downloads/ASE/gcc-arm-embedded/gcc-arm-none-eabi-4_8-2014q1/bin/../lib/gcc/arm-none-eabi/4.8.3/../../../../arm-none-eabi/lib/armv7-m/libstdc++.a(cp-demangle.o)
                                                  build/obj/serial_can_mux.o
                                                  build/obj/Lidar.o
                                                  build/obj/ControllerAreaNetworkTx.o
                                                  build/obj/memstreams.o
memmove                                           /homes/skollbach/Downloads/ASE/gcc-arm-embedded/gcc-arm-none-eabi-4_8-2014q1/bin/../lib/gcc/arm-none-eabi/4.8.3/../../../../arm-none-eabi/lib/armv7-m/libc.a(lib_a-memmove.o)
                                                  /homes/skollbach/Downloads/ASE/gcc-arm-embedded/gcc-arm-none-eabi-4_8-2014q1/bin/../lib/gcc/arm-none-eabi/4.8.3/../../../../arm-none-eabi/lib/armv7-m/libc.a(lib_a-svfiprintf.o)
                                                  /homes/skollbach/Downloads/ASE/gcc-arm-embedded/gcc-arm-none-eabi-4_8-2014q1/bin/../lib/gcc/arm-none-eabi/4.8.3/../../../../arm-none-eabi/lib/armv7-m/libc.a(lib_a-reallocr.o)
                                                  /homes/skollbach/Downloads/ASE/gcc-arm-embedded/gcc-arm-none-eabi-4_8-2014q1/bin/../lib/gcc/arm-none-eabi/4.8.3/../../../../arm-none-eabi/lib/armv7-m/libc.a(lib_a-fvwrite.o)
memset                                            /homes/skollbach/Downloads/ASE/gcc-arm-embedded/gcc-arm-none-eabi-4_8-2014q1/bin/../lib/gcc/arm-none-eabi/4.8.3/../../../../arm-none-eabi/lib/armv7-m/libc.a(lib_a-memset.o)
                                                  /homes/skollbach/Downloads/ASE/gcc-arm-embedded/gcc-arm-none-eabi-4_8-2014q1/bin/../lib/gcc/arm-none-eabi/4.8.3/../../../../arm-none-eabi/lib/armv7-m/libc.a(lib_a-callocr.o)
                                                  /homes/skollbach/Downloads/ASE/gcc-arm-embedded/gcc-arm-none-eabi-4_8-2014q1/bin/../lib/gcc/arm-none-eabi/4.8.3/../../../../arm-none-eabi/lib/armv7-m/libc.a(lib_a-findfp.o)
                                                  /homes/skollbach/Downloads/ASE/gcc-arm-embedded/gcc-arm-none-eabi-4_8-2014q1/bin/../lib/gcc/arm-none-eabi/4.8.3/../../../../arm-none-eabi/lib/armv7-m/libstdc++.a(eh_alloc.o)
                                                  build/obj/syscalls.o
msObjectInit                                      build/obj/memstreams.o
                                                  build/obj/chprintf.o
non-virtual thunk to amiro::LightRing::receiveMessage(CANRxFrame*) build/obj/LightRing.o
non-virtual thunk to amiro::LightRing::start(unsigned long) build/obj/LightRing.o
non-virtual thunk to amiro::LightRing::~LightRing() build/obj/LightRing.o
non-virtual thunk to amiro::LightRing::~LightRing() build/obj/LightRing.o
nvicDisableVector                                 build/obj/nvic.o
                                                  build/obj/serial_lld.o
                                                  build/obj/i2c_lld.o
                                                  build/obj/can_lld.o
                                                  build/obj/ext_lld_isr.o
                                                  build/obj/stm32_dma.o
nvicEnableVector                                  build/obj/nvic.o
                                                  build/obj/Debug.o
                                                  build/obj/serial_lld.o
                                                  build/obj/i2c_lld.o
                                                  build/obj/can_lld.o
                                                  build/obj/ext_lld_isr.o
                                                  build/obj/stm32_dma.o
nvicSetSystemHandlerPriority                      build/obj/nvic.o
                                                  build/obj/chcore_v7m.o
operator delete(void*)                            /homes/skollbach/Downloads/ASE/gcc-arm-embedded/gcc-arm-none-eabi-4_8-2014q1/bin/../lib/gcc/arm-none-eabi/4.8.3/../../../../arm-none-eabi/lib/armv7-m/libstdc++.a(del_op.o)
                                                  /homes/skollbach/Downloads/ASE/gcc-arm-embedded/gcc-arm-none-eabi-4_8-2014q1/bin/../lib/gcc/arm-none-eabi/4.8.3/../../../../arm-none-eabi/lib/armv7-m/libstdc++.a(tinfo.o)
                                                  /homes/skollbach/Downloads/ASE/gcc-arm-embedded/gcc-arm-none-eabi-4_8-2014q1/bin/../lib/gcc/arm-none-eabi/4.8.3/../../../../arm-none-eabi/lib/armv7-m/libstdc++.a(si_class_type_info.o)
                                                  /homes/skollbach/Downloads/ASE/gcc-arm-embedded/gcc-arm-none-eabi-4_8-2014q1/bin/../lib/gcc/arm-none-eabi/4.8.3/../../../../arm-none-eabi/lib/armv7-m/libstdc++.a(class_type_info.o)
                                                  /homes/skollbach/Downloads/ASE/gcc-arm-embedded/gcc-arm-none-eabi-4_8-2014q1/bin/../lib/gcc/arm-none-eabi/4.8.3/../../../../arm-none-eabi/lib/armv7-m/libstdc++.a(eh_exception.o)
                                                  build/obj/main.o
                                                  build/obj/userthread.o
                                                  build/obj/LightRing.o
                                                  build/obj/serial_can_mux.o
                                                  build/obj/ControllerAreaNetworkTx.o
                                                  build/obj/ControllerAreaNetworkRx.o
                                                  build/obj/a2500r24a.o
                                                  build/obj/tlc5947.o
                                                  build/obj/HWI2CDriver.o
                                                  build/obj/HWSPIDriver.o
palReadBus                                        build/obj/pal.o
palSetBusMode                                     build/obj/pal.o
palWriteBus                                       build/obj/pal.o
pal_default_config                                build/obj/board.o
                                                  build/obj/hal.o
port_halt                                         build/obj/chcore.o
                                                  build/obj/spi_lld.o
                                                  build/obj/chdebug.o
power_down_cb(EXTDriver*, unsigned long)          build/obj/exti.o
putc                                              /homes/skollbach/Downloads/ASE/gcc-arm-embedded/gcc-arm-none-eabi-4_8-2014q1/bin/../lib/gcc/arm-none-eabi/4.8.3/../../../../arm-none-eabi/lib/armv7-m/libc.a(lib_a-putc.o)
raise                                             /homes/skollbach/Downloads/ASE/gcc-arm-embedded/gcc-arm-none-eabi-4_8-2014q1/bin/../lib/gcc/arm-none-eabi/4.8.3/../../../../arm-none-eabi/lib/armv7-m/libc.a(lib_a-signal.o)
                                                  /homes/skollbach/Downloads/ASE/gcc-arm-embedded/gcc-arm-none-eabi-4_8-2014q1/bin/../lib/gcc/arm-none-eabi/4.8.3/../../../../arm-none-eabi/lib/armv7-m/libc.a(lib_a-abort.o)
realloc                                           /homes/skollbach/Downloads/ASE/gcc-arm-embedded/gcc-arm-none-eabi-4_8-2014q1/bin/../lib/gcc/arm-none-eabi/4.8.3/../../../../arm-none-eabi/lib/armv7-m/libc.a(lib_a-realloc.o)
                                                  /homes/skollbach/Downloads/ASE/gcc-arm-embedded/gcc-arm-none-eabi-4_8-2014q1/bin/../lib/gcc/arm-none-eabi/4.8.3/../../../../arm-none-eabi/lib/armv7-m/libstdc++.a(cp-demangle.o)
restore_core_regs                                 /homes/skollbach/Downloads/ASE/gcc-arm-embedded/gcc-arm-none-eabi-4_8-2014q1/bin/../lib/gcc/arm-none-eabi/4.8.3/armv7-m/libgcc.a(libunwind.o)
                                                  /homes/skollbach/Downloads/ASE/gcc-arm-embedded/gcc-arm-none-eabi-4_8-2014q1/bin/../lib/gcc/arm-none-eabi/4.8.3/armv7-m/libgcc.a(unwind-arm.o)
rlist                                             build/obj/chschd.o
                                                  build/obj/main.o
                                                  build/obj/ch.o
                                                  build/obj/shell.o
                                                  build/obj/i2c_lld.o
                                                  build/obj/spi.o
                                                  build/obj/chqueues.o
                                                  build/obj/chmsg.o
                                                  build/obj/chevents.o
                                                  build/obj/chcond.o
                                                  build/obj/chmtx.o
                                                  build/obj/chsem.o
                                                  build/obj/chregistry.o
                                                  build/obj/chthreads.o
                                                  build/obj/chdebug.o
                                                  build/obj/chsys.o
                                                  build/obj/chcore_v7m.o
sdIncomingDataI                                   build/obj/serial.o
                                                  build/obj/serial_can_mux.o
                                                  build/obj/serial_lld.o
sdInit                                            build/obj/serial.o
                                                  build/obj/hal.o
sdObjectInit                                      build/obj/serial.o
                                                  build/obj/serial_lld.o
sdRequestDataI                                    build/obj/serial.o
sdStart                                           build/obj/serial.o
                                                  build/obj/main.o
                                                  build/obj/Lidar.o
sdStop                                            build/obj/serial.o
                                                  build/obj/Lidar.o
sd_lld_init                                       build/obj/serial_lld.o
                                                  build/obj/serial.o
sd_lld_start                                      build/obj/serial_lld.o
                                                  build/obj/serial.o
sd_lld_stop                                       build/obj/serial_lld.o
                                                  build/obj/serial.o
setlocale                                         /homes/skollbach/Downloads/ASE/gcc-arm-embedded/gcc-arm-none-eabi-4_8-2014q1/bin/../lib/gcc/arm-none-eabi/4.8.3/../../../../arm-none-eabi/lib/armv7-m/libc.a(lib_a-locale.o)
shellCreate                                       build/obj/shell.o
                                                  build/obj/main.o
shellCreateStatic                                 build/obj/shell.o
shellExit                                         build/obj/shell.o
shellGetLine                                      build/obj/shell.o
shellInit                                         build/obj/shell.o
shellRequestCheck(BaseSequentialStream*, int, char**) build/obj/main.o
shellRequestGetBoardId(BaseSequentialStream*, int, char**) build/obj/main.o
shellRequestGetBootloaderInfo(BaseSequentialStream*, int, char**) build/obj/main.o
shellRequestGetMemoryData(BaseSequentialStream*, int, char**) build/obj/main.o
shellRequestGetRobotId(BaseSequentialStream*, int, char**) build/obj/main.o
shellRequestGetSystemLoad(BaseSequentialStream*, int, char**) build/obj/main.o
shellRequestResetMemory(BaseSequentialStream*, int, char**) build/obj/main.o
shellRequestSetBoardId(BaseSequentialStream*, int, char**) build/obj/main.o
shellRequestShutdown(BaseSequentialStream*, int, char**) build/obj/main.o
shellSwitchBoardCmd(BaseSequentialStream*, int, char**) build/obj/main.o
shell_terminated                                  build/obj/shell.o
shutdown_now                                      build/obj/exti.o
                                                  build/obj/main.o
                                                  build/obj/LightRing.o
signal                                            /homes/skollbach/Downloads/ASE/gcc-arm-embedded/gcc-arm-none-eabi-4_8-2014q1/bin/../lib/gcc/arm-none-eabi/4.8.3/../../../../arm-none-eabi/lib/armv7-m/libc.a(lib_a-signal.o)
spiAcquireBus                                     build/obj/spi.o
                                                  build/obj/HWSPIDriver.o
spiExchange                                       build/obj/spi.o
                                                  build/obj/HWSPIDriver.o
spiIgnore                                         build/obj/spi.o
spiInit                                           build/obj/spi.o
                                                  build/obj/hal.o
spiObjectInit                                     build/obj/spi.o
                                                  build/obj/spi_lld.o
spiReceive                                        build/obj/spi.o
                                                  build/obj/HWSPIDriver.o
spiReleaseBus                                     build/obj/spi.o
                                                  build/obj/HWSPIDriver.o
spiSelect                                         build/obj/spi.o
                                                  build/obj/HWSPIDriver.o
spiSend                                           build/obj/spi.o
                                                  build/obj/HWSPIDriver.o
spiStart                                          build/obj/spi.o
                                                  build/obj/HWSPIDriver.o
spiStartExchange                                  build/obj/spi.o
spiStartIgnore                                    build/obj/spi.o
spiStartReceive                                   build/obj/spi.o
spiStartSend                                      build/obj/spi.o
spiStop                                           build/obj/spi.o
spiUnselect                                       build/obj/spi.o
                                                  build/obj/HWSPIDriver.o
spi_lld_exchange                                  build/obj/spi_lld.o
                                                  build/obj/spi.o
spi_lld_ignore                                    build/obj/spi_lld.o
                                                  build/obj/spi.o
spi_lld_init                                      build/obj/spi_lld.o
                                                  build/obj/spi.o
spi_lld_polled_exchange                           build/obj/spi_lld.o
spi_lld_receive                                   build/obj/spi_lld.o
                                                  build/obj/spi.o
spi_lld_select                                    build/obj/spi_lld.o
                                                  build/obj/spi.o
spi_lld_send                                      build/obj/spi_lld.o
                                                  build/obj/spi.o
spi_lld_start                                     build/obj/spi_lld.o
                                                  build/obj/spi.o
spi_lld_stop                                      build/obj/spi_lld.o
                                                  build/obj/spi.o
spi_lld_unselect                                  build/obj/spi_lld.o
                                                  build/obj/spi.o
sprintf                                           /homes/skollbach/Downloads/ASE/gcc-arm-embedded/gcc-arm-none-eabi-4_8-2014q1/bin/../lib/gcc/arm-none-eabi/4.8.3/../../../../arm-none-eabi/lib/armv7-m/libc.a(lib_a-sprintf.o)
                                                  /homes/skollbach/Downloads/ASE/gcc-arm-embedded/gcc-arm-none-eabi-4_8-2014q1/bin/../lib/gcc/arm-none-eabi/4.8.3/../../../../arm-none-eabi/lib/armv7-m/libstdc++.a(cp-demangle.o)
std::bad_exception::what() const                  /homes/skollbach/Downloads/ASE/gcc-arm-embedded/gcc-arm-none-eabi-4_8-2014q1/bin/../lib/gcc/arm-none-eabi/4.8.3/../../../../arm-none-eabi/lib/armv7-m/libstdc++.a(eh_exception.o)
std::bad_exception::~bad_exception()              /homes/skollbach/Downloads/ASE/gcc-arm-embedded/gcc-arm-none-eabi-4_8-2014q1/bin/../lib/gcc/arm-none-eabi/4.8.3/../../../../arm-none-eabi/lib/armv7-m/libstdc++.a(eh_exception.o)
std::bad_exception::~bad_exception()              /homes/skollbach/Downloads/ASE/gcc-arm-embedded/gcc-arm-none-eabi-4_8-2014q1/bin/../lib/gcc/arm-none-eabi/4.8.3/../../../../arm-none-eabi/lib/armv7-m/libstdc++.a(eh_exception.o)
                                                  /homes/skollbach/Downloads/ASE/gcc-arm-embedded/gcc-arm-none-eabi-4_8-2014q1/bin/../lib/gcc/arm-none-eabi/4.8.3/../../../../arm-none-eabi/lib/armv7-m/libstdc++.a(eh_call.o)
std::bad_exception::~bad_exception()              /homes/skollbach/Downloads/ASE/gcc-arm-embedded/gcc-arm-none-eabi-4_8-2014q1/bin/../lib/gcc/arm-none-eabi/4.8.3/../../../../arm-none-eabi/lib/armv7-m/libstdc++.a(eh_exception.o)
std::exception::what() const                      /homes/skollbach/Downloads/ASE/gcc-arm-embedded/gcc-arm-none-eabi-4_8-2014q1/bin/../lib/gcc/arm-none-eabi/4.8.3/../../../../arm-none-eabi/lib/armv7-m/libstdc++.a(eh_exception.o)
std::exception::~exception()                      /homes/skollbach/Downloads/ASE/gcc-arm-embedded/gcc-arm-none-eabi-4_8-2014q1/bin/../lib/gcc/arm-none-eabi/4.8.3/../../../../arm-none-eabi/lib/armv7-m/libstdc++.a(eh_exception.o)
std::exception::~exception()                      /homes/skollbach/Downloads/ASE/gcc-arm-embedded/gcc-arm-none-eabi-4_8-2014q1/bin/../lib/gcc/arm-none-eabi/4.8.3/../../../../arm-none-eabi/lib/armv7-m/libstdc++.a(eh_exception.o)
std::exception::~exception()                      /homes/skollbach/Downloads/ASE/gcc-arm-embedded/gcc-arm-none-eabi-4_8-2014q1/bin/../lib/gcc/arm-none-eabi/4.8.3/../../../../arm-none-eabi/lib/armv7-m/libstdc++.a(eh_exception.o)
std::set_terminate(void (*)())                    /homes/skollbach/Downloads/ASE/gcc-arm-embedded/gcc-arm-none-eabi-4_8-2014q1/bin/../lib/gcc/arm-none-eabi/4.8.3/../../../../arm-none-eabi/lib/armv7-m/libstdc++.a(eh_terminate.o)
std::set_unexpected(void (*)())                   /homes/skollbach/Downloads/ASE/gcc-arm-embedded/gcc-arm-none-eabi-4_8-2014q1/bin/../lib/gcc/arm-none-eabi/4.8.3/../../../../arm-none-eabi/lib/armv7-m/libstdc++.a(eh_terminate.o)
std::terminate()                                  /homes/skollbach/Downloads/ASE/gcc-arm-embedded/gcc-arm-none-eabi-4_8-2014q1/bin/../lib/gcc/arm-none-eabi/4.8.3/../../../../arm-none-eabi/lib/armv7-m/libstdc++.a(eh_terminate.o)
                                                  /homes/skollbach/Downloads/ASE/gcc-arm-embedded/gcc-arm-none-eabi-4_8-2014q1/bin/../lib/gcc/arm-none-eabi/4.8.3/../../../../arm-none-eabi/lib/armv7-m/libstdc++.a(eh_alloc.o)
                                                  /homes/skollbach/Downloads/ASE/gcc-arm-embedded/gcc-arm-none-eabi-4_8-2014q1/bin/../lib/gcc/arm-none-eabi/4.8.3/../../../../arm-none-eabi/lib/armv7-m/libstdc++.a(eh_throw.o)
                                                  /homes/skollbach/Downloads/ASE/gcc-arm-embedded/gcc-arm-none-eabi-4_8-2014q1/bin/../lib/gcc/arm-none-eabi/4.8.3/../../../../arm-none-eabi/lib/armv7-m/libstdc++.a(eh_personality.o)
                                                  /homes/skollbach/Downloads/ASE/gcc-arm-embedded/gcc-arm-none-eabi-4_8-2014q1/bin/../lib/gcc/arm-none-eabi/4.8.3/../../../../arm-none-eabi/lib/armv7-m/libstdc++.a(eh_call.o)
                                                  /homes/skollbach/Downloads/ASE/gcc-arm-embedded/gcc-arm-none-eabi-4_8-2014q1/bin/../lib/gcc/arm-none-eabi/4.8.3/../../../../arm-none-eabi/lib/armv7-m/libstdc++.a(eh_arm.o)
                                                  /homes/skollbach/Downloads/ASE/gcc-arm-embedded/gcc-arm-none-eabi-4_8-2014q1/bin/../lib/gcc/arm-none-eabi/4.8.3/../../../../arm-none-eabi/lib/armv7-m/libstdc++.a(eh_catch.o)
                                                  /homes/skollbach/Downloads/ASE/gcc-arm-embedded/gcc-arm-none-eabi-4_8-2014q1/bin/../lib/gcc/arm-none-eabi/4.8.3/../../../../arm-none-eabi/lib/armv7-m/libstdc++.a(eh_unex_handler.o)
                                                  /homes/skollbach/Downloads/ASE/gcc-arm-embedded/gcc-arm-none-eabi-4_8-2014q1/bin/../lib/gcc/arm-none-eabi/4.8.3/../../../../arm-none-eabi/lib/armv7-m/libstdc++.a(pure.o)
std::type_info::__do_catch(std::type_info const*, void**, unsigned int) const /homes/skollbach/Downloads/ASE/gcc-arm-embedded/gcc-arm-none-eabi-4_8-2014q1/bin/../lib/gcc/arm-none-eabi/4.8.3/../../../../arm-none-eabi/lib/armv7-m/libstdc++.a(tinfo.o)
std::type_info::__do_upcast(__cxxabiv1::__class_type_info const*, void**) const /homes/skollbach/Downloads/ASE/gcc-arm-embedded/gcc-arm-none-eabi-4_8-2014q1/bin/../lib/gcc/arm-none-eabi/4.8.3/../../../../arm-none-eabi/lib/armv7-m/libstdc++.a(tinfo.o)
std::type_info::__is_function_p() const           /homes/skollbach/Downloads/ASE/gcc-arm-embedded/gcc-arm-none-eabi-4_8-2014q1/bin/../lib/gcc/arm-none-eabi/4.8.3/../../../../arm-none-eabi/lib/armv7-m/libstdc++.a(tinfo.o)
                                                  /homes/skollbach/Downloads/ASE/gcc-arm-embedded/gcc-arm-none-eabi-4_8-2014q1/bin/../lib/gcc/arm-none-eabi/4.8.3/../../../../arm-none-eabi/lib/armv7-m/libstdc++.a(si_class_type_info.o)
                                                  /homes/skollbach/Downloads/ASE/gcc-arm-embedded/gcc-arm-none-eabi-4_8-2014q1/bin/../lib/gcc/arm-none-eabi/4.8.3/../../../../arm-none-eabi/lib/armv7-m/libstdc++.a(class_type_info.o)
std::type_info::__is_pointer_p() const            /homes/skollbach/Downloads/ASE/gcc-arm-embedded/gcc-arm-none-eabi-4_8-2014q1/bin/../lib/gcc/arm-none-eabi/4.8.3/../../../../arm-none-eabi/lib/armv7-m/libstdc++.a(tinfo.o)
                                                  /homes/skollbach/Downloads/ASE/gcc-arm-embedded/gcc-arm-none-eabi-4_8-2014q1/bin/../lib/gcc/arm-none-eabi/4.8.3/../../../../arm-none-eabi/lib/armv7-m/libstdc++.a(si_class_type_info.o)
                                                  /homes/skollbach/Downloads/ASE/gcc-arm-embedded/gcc-arm-none-eabi-4_8-2014q1/bin/../lib/gcc/arm-none-eabi/4.8.3/../../../../arm-none-eabi/lib/armv7-m/libstdc++.a(class_type_info.o)
std::type_info::operator==(std::type_info const&) const /homes/skollbach/Downloads/ASE/gcc-arm-embedded/gcc-arm-none-eabi-4_8-2014q1/bin/../lib/gcc/arm-none-eabi/4.8.3/../../../../arm-none-eabi/lib/armv7-m/libstdc++.a(tinfo.o)
                                                  /homes/skollbach/Downloads/ASE/gcc-arm-embedded/gcc-arm-none-eabi-4_8-2014q1/bin/../lib/gcc/arm-none-eabi/4.8.3/../../../../arm-none-eabi/lib/armv7-m/libstdc++.a(si_class_type_info.o)
                                                  /homes/skollbach/Downloads/ASE/gcc-arm-embedded/gcc-arm-none-eabi-4_8-2014q1/bin/../lib/gcc/arm-none-eabi/4.8.3/../../../../arm-none-eabi/lib/armv7-m/libstdc++.a(class_type_info.o)
std::type_info::~type_info()                      /homes/skollbach/Downloads/ASE/gcc-arm-embedded/gcc-arm-none-eabi-4_8-2014q1/bin/../lib/gcc/arm-none-eabi/4.8.3/../../../../arm-none-eabi/lib/armv7-m/libstdc++.a(tinfo.o)
std::type_info::~type_info()                      /homes/skollbach/Downloads/ASE/gcc-arm-embedded/gcc-arm-none-eabi-4_8-2014q1/bin/../lib/gcc/arm-none-eabi/4.8.3/../../../../arm-none-eabi/lib/armv7-m/libstdc++.a(tinfo.o)
std::type_info::~type_info()                      /homes/skollbach/Downloads/ASE/gcc-arm-embedded/gcc-arm-none-eabi-4_8-2014q1/bin/../lib/gcc/arm-none-eabi/4.8.3/../../../../arm-none-eabi/lib/armv7-m/libstdc++.a(tinfo.o)
                                                  /homes/skollbach/Downloads/ASE/gcc-arm-embedded/gcc-arm-none-eabi-4_8-2014q1/bin/../lib/gcc/arm-none-eabi/4.8.3/../../../../arm-none-eabi/lib/armv7-m/libstdc++.a(class_type_info.o)
std::uncaught_exception()                         /homes/skollbach/Downloads/ASE/gcc-arm-embedded/gcc-arm-none-eabi-4_8-2014q1/bin/../lib/gcc/arm-none-eabi/4.8.3/../../../../arm-none-eabi/lib/armv7-m/libstdc++.a(eh_catch.o)
std::unexpected()                                 /homes/skollbach/Downloads/ASE/gcc-arm-embedded/gcc-arm-none-eabi-4_8-2014q1/bin/../lib/gcc/arm-none-eabi/4.8.3/../../../../arm-none-eabi/lib/armv7-m/libstdc++.a(eh_terminate.o)
                                                  /homes/skollbach/Downloads/ASE/gcc-arm-embedded/gcc-arm-none-eabi-4_8-2014q1/bin/../lib/gcc/arm-none-eabi/4.8.3/../../../../arm-none-eabi/lib/armv7-m/libstdc++.a(eh_personality.o)
                                                  /homes/skollbach/Downloads/ASE/gcc-arm-embedded/gcc-arm-none-eabi-4_8-2014q1/bin/../lib/gcc/arm-none-eabi/4.8.3/../../../../arm-none-eabi/lib/armv7-m/libstdc++.a(eh_call.o)
stm32_clock_init                                  build/obj/hal_lld.o
                                                  build/obj/board.o
strcasecmp                                        /homes/skollbach/Downloads/ASE/gcc-arm-embedded/gcc-arm-none-eabi-4_8-2014q1/bin/../lib/gcc/arm-none-eabi/4.8.3/../../../../arm-none-eabi/lib/armv7-m/libc.a(lib_a-strcasecmp.o)
                                                  build/obj/shell.o
strcmp                                            /homes/skollbach/Downloads/ASE/gcc-arm-embedded/gcc-arm-none-eabi-4_8-2014q1/bin/../lib/gcc/arm-none-eabi/4.8.3/../../../../arm-none-eabi/lib/armv7-m/libc.a(lib_a-strcmp.o)
                                                  /homes/skollbach/Downloads/ASE/gcc-arm-embedded/gcc-arm-none-eabi-4_8-2014q1/bin/../lib/gcc/arm-none-eabi/4.8.3/../../../../arm-none-eabi/lib/armv7-m/libc.a(lib_a-locale.o)
                                                  /homes/skollbach/Downloads/ASE/gcc-arm-embedded/gcc-arm-none-eabi-4_8-2014q1/bin/../lib/gcc/arm-none-eabi/4.8.3/../../../../arm-none-eabi/lib/armv7-m/libstdc++.a(tinfo.o)
                                                  /homes/skollbach/Downloads/ASE/gcc-arm-embedded/gcc-arm-none-eabi-4_8-2014q1/bin/../lib/gcc/arm-none-eabi/4.8.3/../../../../arm-none-eabi/lib/armv7-m/libstdc++.a(cp-demangle.o)
                                                  build/obj/main.o
strlen                                            /homes/skollbach/Downloads/ASE/gcc-arm-embedded/gcc-arm-none-eabi-4_8-2014q1/bin/../lib/gcc/arm-none-eabi/4.8.3/../../../../arm-none-eabi/lib/armv7-m/libc.a(lib_a-strlen.o)
                                                  /homes/skollbach/Downloads/ASE/gcc-arm-embedded/gcc-arm-none-eabi-4_8-2014q1/bin/../lib/gcc/arm-none-eabi/4.8.3/../../../../arm-none-eabi/lib/armv7-m/libc.a(lib_a-svfiprintf.o)
                                                  /homes/skollbach/Downloads/ASE/gcc-arm-embedded/gcc-arm-none-eabi-4_8-2014q1/bin/../lib/gcc/arm-none-eabi/4.8.3/../../../../arm-none-eabi/lib/armv7-m/libc.a(lib_a-svfprintf.o)
                                                  /homes/skollbach/Downloads/ASE/gcc-arm-embedded/gcc-arm-none-eabi-4_8-2014q1/bin/../lib/gcc/arm-none-eabi/4.8.3/../../../../arm-none-eabi/lib/armv7-m/libc.a(lib_a-fputs.o)
                                                  /homes/skollbach/Downloads/ASE/gcc-arm-embedded/gcc-arm-none-eabi-4_8-2014q1/bin/../lib/gcc/arm-none-eabi/4.8.3/../../../../arm-none-eabi/lib/armv7-m/libstdc++.a(cp-demangle.o)
strncmp                                           /homes/skollbach/Downloads/ASE/gcc-arm-embedded/gcc-arm-none-eabi-4_8-2014q1/bin/../lib/gcc/arm-none-eabi/4.8.3/../../../../arm-none-eabi/lib/armv7-m/libc.a(lib_a-strncmp.o)
                                                  /homes/skollbach/Downloads/ASE/gcc-arm-embedded/gcc-arm-none-eabi-4_8-2014q1/bin/../lib/gcc/arm-none-eabi/4.8.3/../../../../arm-none-eabi/lib/armv7-m/libstdc++.a(cp-demangle.o)
strpbrk                                           /homes/skollbach/Downloads/ASE/gcc-arm-embedded/gcc-arm-none-eabi-4_8-2014q1/bin/../lib/gcc/arm-none-eabi/4.8.3/../../../../arm-none-eabi/lib/armv7-m/libc.a(lib_a-strpbrk.o)
                                                  build/obj/shell.o
strspn                                            /homes/skollbach/Downloads/ASE/gcc-arm-embedded/gcc-arm-none-eabi-4_8-2014q1/bin/../lib/gcc/arm-none-eabi/4.8.3/../../../../arm-none-eabi/lib/armv7-m/libc.a(lib_a-strspn.o)
                                                  build/obj/shell.o
strtol                                            /homes/skollbach/Downloads/ASE/gcc-arm-embedded/gcc-arm-none-eabi-4_8-2014q1/bin/../lib/gcc/arm-none-eabi/4.8.3/../../../../arm-none-eabi/lib/armv7-m/libc.a(lib_a-strtol.o)
                                                  /homes/skollbach/Downloads/ASE/gcc-arm-embedded/gcc-arm-none-eabi-4_8-2014q1/bin/../lib/gcc/arm-none-eabi/4.8.3/../../../../arm-none-eabi/lib/armv7-m/libc.a(lib_a-atoi.o)
systemShutdown()                                  build/obj/main.o
testBrightness()                                  build/obj/main.o
testColors()                                      build/obj/main.o
testFade()                                        build/obj/main.o
testLights()                                      build/obj/main.o
tmInit                                            build/obj/tm.o
                                                  build/obj/hal.o
tmObjectInit                                      build/obj/tm.o
typeinfo for __cxxabiv1::__class_type_info        /homes/skollbach/Downloads/ASE/gcc-arm-embedded/gcc-arm-none-eabi-4_8-2014q1/bin/../lib/gcc/arm-none-eabi/4.8.3/../../../../arm-none-eabi/lib/armv7-m/libstdc++.a(class_type_info.o)
                                                  /homes/skollbach/Downloads/ASE/gcc-arm-embedded/gcc-arm-none-eabi-4_8-2014q1/bin/../lib/gcc/arm-none-eabi/4.8.3/../../../../arm-none-eabi/lib/armv7-m/libstdc++.a(si_class_type_info.o)
typeinfo for __cxxabiv1::__forced_unwind          /homes/skollbach/Downloads/ASE/gcc-arm-embedded/gcc-arm-none-eabi-4_8-2014q1/bin/../lib/gcc/arm-none-eabi/4.8.3/../../../../arm-none-eabi/lib/armv7-m/libstdc++.a(eh_exception.o)
                                                  /homes/skollbach/Downloads/ASE/gcc-arm-embedded/gcc-arm-none-eabi-4_8-2014q1/bin/../lib/gcc/arm-none-eabi/4.8.3/../../../../arm-none-eabi/lib/armv7-m/libstdc++.a(eh_arm.o)
typeinfo for __cxxabiv1::__foreign_exception      /homes/skollbach/Downloads/ASE/gcc-arm-embedded/gcc-arm-none-eabi-4_8-2014q1/bin/../lib/gcc/arm-none-eabi/4.8.3/../../../../arm-none-eabi/lib/armv7-m/libstdc++.a(eh_exception.o)
                                                  /homes/skollbach/Downloads/ASE/gcc-arm-embedded/gcc-arm-none-eabi-4_8-2014q1/bin/../lib/gcc/arm-none-eabi/4.8.3/../../../../arm-none-eabi/lib/armv7-m/libstdc++.a(eh_arm.o)
typeinfo for __cxxabiv1::__si_class_type_info     /homes/skollbach/Downloads/ASE/gcc-arm-embedded/gcc-arm-none-eabi-4_8-2014q1/bin/../lib/gcc/arm-none-eabi/4.8.3/../../../../arm-none-eabi/lib/armv7-m/libstdc++.a(si_class_type_info.o)
typeinfo for std::bad_exception                   /homes/skollbach/Downloads/ASE/gcc-arm-embedded/gcc-arm-none-eabi-4_8-2014q1/bin/../lib/gcc/arm-none-eabi/4.8.3/../../../../arm-none-eabi/lib/armv7-m/libstdc++.a(eh_exception.o)
                                                  /homes/skollbach/Downloads/ASE/gcc-arm-embedded/gcc-arm-none-eabi-4_8-2014q1/bin/../lib/gcc/arm-none-eabi/4.8.3/../../../../arm-none-eabi/lib/armv7-m/libstdc++.a(eh_call.o)
typeinfo for std::exception                       /homes/skollbach/Downloads/ASE/gcc-arm-embedded/gcc-arm-none-eabi-4_8-2014q1/bin/../lib/gcc/arm-none-eabi/4.8.3/../../../../arm-none-eabi/lib/armv7-m/libstdc++.a(eh_exception.o)
                                                  /homes/skollbach/Downloads/ASE/gcc-arm-embedded/gcc-arm-none-eabi-4_8-2014q1/bin/../lib/gcc/arm-none-eabi/4.8.3/../../../../arm-none-eabi/lib/armv7-m/libstdc++.a(vterminate.o)
typeinfo for std::type_info                       /homes/skollbach/Downloads/ASE/gcc-arm-embedded/gcc-arm-none-eabi-4_8-2014q1/bin/../lib/gcc/arm-none-eabi/4.8.3/../../../../arm-none-eabi/lib/armv7-m/libstdc++.a(tinfo.o)
                                                  /homes/skollbach/Downloads/ASE/gcc-arm-embedded/gcc-arm-none-eabi-4_8-2014q1/bin/../lib/gcc/arm-none-eabi/4.8.3/../../../../arm-none-eabi/lib/armv7-m/libstdc++.a(class_type_info.o)
typeinfo name for __cxxabiv1::__class_type_info   /homes/skollbach/Downloads/ASE/gcc-arm-embedded/gcc-arm-none-eabi-4_8-2014q1/bin/../lib/gcc/arm-none-eabi/4.8.3/../../../../arm-none-eabi/lib/armv7-m/libstdc++.a(class_type_info.o)
typeinfo name for __cxxabiv1::__forced_unwind     /homes/skollbach/Downloads/ASE/gcc-arm-embedded/gcc-arm-none-eabi-4_8-2014q1/bin/../lib/gcc/arm-none-eabi/4.8.3/../../../../arm-none-eabi/lib/armv7-m/libstdc++.a(eh_exception.o)
typeinfo name for __cxxabiv1::__foreign_exception /homes/skollbach/Downloads/ASE/gcc-arm-embedded/gcc-arm-none-eabi-4_8-2014q1/bin/../lib/gcc/arm-none-eabi/4.8.3/../../../../arm-none-eabi/lib/armv7-m/libstdc++.a(eh_exception.o)
typeinfo name for __cxxabiv1::__si_class_type_info /homes/skollbach/Downloads/ASE/gcc-arm-embedded/gcc-arm-none-eabi-4_8-2014q1/bin/../lib/gcc/arm-none-eabi/4.8.3/../../../../arm-none-eabi/lib/armv7-m/libstdc++.a(si_class_type_info.o)
typeinfo name for std::bad_exception              /homes/skollbach/Downloads/ASE/gcc-arm-embedded/gcc-arm-none-eabi-4_8-2014q1/bin/../lib/gcc/arm-none-eabi/4.8.3/../../../../arm-none-eabi/lib/armv7-m/libstdc++.a(eh_exception.o)
typeinfo name for std::exception                  /homes/skollbach/Downloads/ASE/gcc-arm-embedded/gcc-arm-none-eabi-4_8-2014q1/bin/../lib/gcc/arm-none-eabi/4.8.3/../../../../arm-none-eabi/lib/armv7-m/libstdc++.a(eh_exception.o)
typeinfo name for std::type_info                  /homes/skollbach/Downloads/ASE/gcc-arm-embedded/gcc-arm-none-eabi-4_8-2014q1/bin/../lib/gcc/arm-none-eabi/4.8.3/../../../../arm-none-eabi/lib/armv7-m/libstdc++.a(tinfo.o)
vtable for __cxxabiv1::__class_type_info          /homes/skollbach/Downloads/ASE/gcc-arm-embedded/gcc-arm-none-eabi-4_8-2014q1/bin/../lib/gcc/arm-none-eabi/4.8.3/../../../../arm-none-eabi/lib/armv7-m/libstdc++.a(class_type_info.o)
                                                  /homes/skollbach/Downloads/ASE/gcc-arm-embedded/gcc-arm-none-eabi-4_8-2014q1/bin/../lib/gcc/arm-none-eabi/4.8.3/../../../../arm-none-eabi/lib/armv7-m/libstdc++.a(tinfo.o)
                                                  /homes/skollbach/Downloads/ASE/gcc-arm-embedded/gcc-arm-none-eabi-4_8-2014q1/bin/../lib/gcc/arm-none-eabi/4.8.3/../../../../arm-none-eabi/lib/armv7-m/libstdc++.a(eh_exception.o)
vtable for __cxxabiv1::__forced_unwind            /homes/skollbach/Downloads/ASE/gcc-arm-embedded/gcc-arm-none-eabi-4_8-2014q1/bin/../lib/gcc/arm-none-eabi/4.8.3/../../../../arm-none-eabi/lib/armv7-m/libstdc++.a(eh_exception.o)
vtable for __cxxabiv1::__foreign_exception        /homes/skollbach/Downloads/ASE/gcc-arm-embedded/gcc-arm-none-eabi-4_8-2014q1/bin/../lib/gcc/arm-none-eabi/4.8.3/../../../../arm-none-eabi/lib/armv7-m/libstdc++.a(eh_exception.o)
vtable for __cxxabiv1::__si_class_type_info       /homes/skollbach/Downloads/ASE/gcc-arm-embedded/gcc-arm-none-eabi-4_8-2014q1/bin/../lib/gcc/arm-none-eabi/4.8.3/../../../../arm-none-eabi/lib/armv7-m/libstdc++.a(si_class_type_info.o)
                                                  /homes/skollbach/Downloads/ASE/gcc-arm-embedded/gcc-arm-none-eabi-4_8-2014q1/bin/../lib/gcc/arm-none-eabi/4.8.3/../../../../arm-none-eabi/lib/armv7-m/libstdc++.a(class_type_info.o)
                                                  /homes/skollbach/Downloads/ASE/gcc-arm-embedded/gcc-arm-none-eabi-4_8-2014q1/bin/../lib/gcc/arm-none-eabi/4.8.3/../../../../arm-none-eabi/lib/armv7-m/libstdc++.a(eh_exception.o)
vtable for amiro::A2500R24A                       build/obj/a2500r24a.o
vtable for amiro::ControllerAreaNetworkRx         build/obj/ControllerAreaNetworkRx.o
vtable for amiro::ControllerAreaNetworkTx         build/obj/ControllerAreaNetworkTx.o
vtable for amiro::HWI2CDriver                     build/obj/HWI2CDriver.o
vtable for amiro::HWSPIDriver                     build/obj/HWSPIDriver.o
vtable for amiro::I2CDriver                       build/obj/HWI2CDriver.o
                                                  build/obj/main.o
vtable for amiro::Lidar                           build/obj/Lidar.o
vtable for amiro::LightRing                       build/obj/LightRing.o
                                                  build/obj/main.o
vtable for amiro::SerialCanMux                    build/obj/serial_can_mux.o
vtable for amiro::TLC5947                         build/obj/tlc5947.o
vtable for amiro::UserThread                      build/obj/userthread.o
vtable for chibios_rt::BaseSequentialStreamInterface build/obj/serial_can_mux.o
vtable for chibios_rt::BaseStaticThread<1024>     build/obj/userthread.o
vtable for chibios_rt::BaseStaticThread<128>      build/obj/ControllerAreaNetworkRx.o
                                                  build/obj/ControllerAreaNetworkTx.o
vtable for chibios_rt::BaseStaticThread<192>      build/obj/tlc5947.o
vtable for chibios_rt::BaseStaticThread<256>      build/obj/a2500r24a.o
                                                  build/obj/Lidar.o
vtable for chibios_rt::BaseThread                 build/obj/ch.o
vtable for chibios_rt::ThreadReference            build/obj/ch.o
                                                  build/obj/userthread.o
                                                  build/obj/LightRing.o
                                                  build/obj/Lidar.o
                                                  build/obj/ControllerAreaNetworkTx.o
                                                  build/obj/ControllerAreaNetworkRx.o
                                                  build/obj/a2500r24a.o
                                                  build/obj/tlc5947.o
vtable for std::bad_exception                     /homes/skollbach/Downloads/ASE/gcc-arm-embedded/gcc-arm-none-eabi-4_8-2014q1/bin/../lib/gcc/arm-none-eabi/4.8.3/../../../../arm-none-eabi/lib/armv7-m/libstdc++.a(eh_exception.o)
                                                  /homes/skollbach/Downloads/ASE/gcc-arm-embedded/gcc-arm-none-eabi-4_8-2014q1/bin/../lib/gcc/arm-none-eabi/4.8.3/../../../../arm-none-eabi/lib/armv7-m/libstdc++.a(eh_call.o)
vtable for std::exception                         /homes/skollbach/Downloads/ASE/gcc-arm-embedded/gcc-arm-none-eabi-4_8-2014q1/bin/../lib/gcc/arm-none-eabi/4.8.3/../../../../arm-none-eabi/lib/armv7-m/libstdc++.a(eh_exception.o)
vtable for std::type_info                         /homes/skollbach/Downloads/ASE/gcc-arm-embedded/gcc-arm-none-eabi-4_8-2014q1/bin/../lib/gcc/arm-none-eabi/4.8.3/../../../../arm-none-eabi/lib/armv7-m/libstdc++.a(tinfo.o)
vtlist                                            build/obj/chvt.o
                                                  build/obj/ch.o
                                                  build/obj/shell.o
                                                  build/obj/chthreads.o
                                                  build/obj/chdebug.o
                                                  build/obj/chsys.o
write                                             /homes/skollbach/Downloads/ASE/gcc-arm-embedded/gcc-arm-none-eabi-4_8-2014q1/bin/../lib/gcc/arm-none-eabi/4.8.3/../../../../arm-none-eabi/lib/armv7-m/libc.a(lib_a-syswrite.o)
                                                  /homes/skollbach/Downloads/ASE/gcc-arm-embedded/gcc-arm-none-eabi-4_8-2014q1/bin/../lib/gcc/arm-none-eabi/4.8.3/../../../../arm-none-eabi/lib/armv7-m/libstdc++.a(pure.o)
